ARM GAS  C:\Users\plod1602\AppData\Local\Temp\ccNoYuMj.s 			page 1


   1              		.syntax unified
   2              		.cpu cortex-m3
   3              		.fpu softvfp
   4              		.eabi_attribute 20, 1
   5              		.eabi_attribute 21, 1
   6              		.eabi_attribute 23, 3
   7              		.eabi_attribute 24, 1
   8              		.eabi_attribute 25, 1
   9              		.eabi_attribute 26, 1
  10              		.eabi_attribute 30, 6
  11              		.eabi_attribute 34, 1
  12              		.eabi_attribute 18, 4
  13              		.thumb
  14              		.file	"Em_EEPROM.c"
  15              		.text
  16              	.Ltext0:
  17              		.cfi_sections	.debug_frame
  18              		.section	.text.Em_EEPROM_Start,"ax",%progbits
  19              		.align	2
  20              		.global	Em_EEPROM_Start
  21              		.thumb
  22              		.thumb_func
  23              		.type	Em_EEPROM_Start, %function
  24              	Em_EEPROM_Start:
  25              	.LFB0:
  26              		.file 1 ".\\Generated_Source\\PSoC5\\Em_EEPROM.c"
   1:.\Generated_Source\PSoC5/Em_EEPROM.c **** /*******************************************************************************
   2:.\Generated_Source\PSoC5/Em_EEPROM.c **** * File Name: Em_EEPROM.c
   3:.\Generated_Source\PSoC5/Em_EEPROM.c **** * Version 1.10
   4:.\Generated_Source\PSoC5/Em_EEPROM.c **** *
   5:.\Generated_Source\PSoC5/Em_EEPROM.c **** * Description:
   6:.\Generated_Source\PSoC5/Em_EEPROM.c **** *  This file provides the source code to API for the Emulated EEPROM Component.
   7:.\Generated_Source\PSoC5/Em_EEPROM.c **** *
   8:.\Generated_Source\PSoC5/Em_EEPROM.c **** ********************************************************************************
   9:.\Generated_Source\PSoC5/Em_EEPROM.c **** * Copyright 2013, Cypress Semiconductor Corporation.  All rights reserved.
  10:.\Generated_Source\PSoC5/Em_EEPROM.c **** * You may use this file only in accordance with the license, terms, conditions,
  11:.\Generated_Source\PSoC5/Em_EEPROM.c **** * disclaimers, and limitations in the end user license agreement accompanying
  12:.\Generated_Source\PSoC5/Em_EEPROM.c **** * the software package with which this file was provided.
  13:.\Generated_Source\PSoC5/Em_EEPROM.c **** *******************************************************************************/
  14:.\Generated_Source\PSoC5/Em_EEPROM.c **** 
  15:.\Generated_Source\PSoC5/Em_EEPROM.c **** #include "Em_EEPROM.h"
  16:.\Generated_Source\PSoC5/Em_EEPROM.c **** 
  17:.\Generated_Source\PSoC5/Em_EEPROM.c **** 
  18:.\Generated_Source\PSoC5/Em_EEPROM.c **** /*******************************************************************************
  19:.\Generated_Source\PSoC5/Em_EEPROM.c **** * Function Name: Em_EEPROM_Start
  20:.\Generated_Source\PSoC5/Em_EEPROM.c **** ********************************************************************************
  21:.\Generated_Source\PSoC5/Em_EEPROM.c **** *
  22:.\Generated_Source\PSoC5/Em_EEPROM.c **** * Summary:
  23:.\Generated_Source\PSoC5/Em_EEPROM.c **** *  Empty function. Included for consistency with other
  24:.\Generated_Source\PSoC5/Em_EEPROM.c **** *  components.
  25:.\Generated_Source\PSoC5/Em_EEPROM.c **** *
  26:.\Generated_Source\PSoC5/Em_EEPROM.c **** * Parameters:
  27:.\Generated_Source\PSoC5/Em_EEPROM.c **** *  None
  28:.\Generated_Source\PSoC5/Em_EEPROM.c **** *
  29:.\Generated_Source\PSoC5/Em_EEPROM.c **** * Return:
  30:.\Generated_Source\PSoC5/Em_EEPROM.c **** *  None
  31:.\Generated_Source\PSoC5/Em_EEPROM.c **** *
ARM GAS  C:\Users\plod1602\AppData\Local\Temp\ccNoYuMj.s 			page 2


  32:.\Generated_Source\PSoC5/Em_EEPROM.c **** *******************************************************************************/
  33:.\Generated_Source\PSoC5/Em_EEPROM.c **** void Em_EEPROM_Start(void) 
  34:.\Generated_Source\PSoC5/Em_EEPROM.c **** {
  27              		.loc 1 34 0
  28              		.cfi_startproc
  29              		@ args = 0, pretend = 0, frame = 0
  30              		@ frame_needed = 1, uses_anonymous_args = 0
  31              		@ link register save eliminated.
  32 0000 80B4     		push	{r7}
  33              		.cfi_def_cfa_offset 4
  34              		.cfi_offset 7, -4
  35 0002 00AF     		add	r7, sp, #0
  36              		.cfi_def_cfa_register 7
  35:.\Generated_Source\PSoC5/Em_EEPROM.c **** 
  36:.\Generated_Source\PSoC5/Em_EEPROM.c **** }
  37              		.loc 1 36 0
  38 0004 BD46     		mov	sp, r7
  39              		@ sp needed
  40 0006 5DF8047B 		ldr	r7, [sp], #4
  41 000a 7047     		bx	lr
  42              		.cfi_endproc
  43              	.LFE0:
  44              		.size	Em_EEPROM_Start, .-Em_EEPROM_Start
  45              		.section	.text.Em_EEPROM_Stop,"ax",%progbits
  46              		.align	2
  47              		.global	Em_EEPROM_Stop
  48              		.thumb
  49              		.thumb_func
  50              		.type	Em_EEPROM_Stop, %function
  51              	Em_EEPROM_Stop:
  52              	.LFB1:
  37:.\Generated_Source\PSoC5/Em_EEPROM.c **** 
  38:.\Generated_Source\PSoC5/Em_EEPROM.c **** 
  39:.\Generated_Source\PSoC5/Em_EEPROM.c **** /*******************************************************************************
  40:.\Generated_Source\PSoC5/Em_EEPROM.c **** * Function Name: Em_EEPROM_Stop
  41:.\Generated_Source\PSoC5/Em_EEPROM.c **** ********************************************************************************
  42:.\Generated_Source\PSoC5/Em_EEPROM.c **** *
  43:.\Generated_Source\PSoC5/Em_EEPROM.c **** * Summary:
  44:.\Generated_Source\PSoC5/Em_EEPROM.c **** *  Empty function. Included for consistency with other
  45:.\Generated_Source\PSoC5/Em_EEPROM.c **** *  components.
  46:.\Generated_Source\PSoC5/Em_EEPROM.c **** *
  47:.\Generated_Source\PSoC5/Em_EEPROM.c **** * Parameters:
  48:.\Generated_Source\PSoC5/Em_EEPROM.c **** *  None
  49:.\Generated_Source\PSoC5/Em_EEPROM.c **** *
  50:.\Generated_Source\PSoC5/Em_EEPROM.c **** * Return:
  51:.\Generated_Source\PSoC5/Em_EEPROM.c **** *  None
  52:.\Generated_Source\PSoC5/Em_EEPROM.c **** *
  53:.\Generated_Source\PSoC5/Em_EEPROM.c **** *******************************************************************************/
  54:.\Generated_Source\PSoC5/Em_EEPROM.c **** void Em_EEPROM_Stop(void) 
  55:.\Generated_Source\PSoC5/Em_EEPROM.c **** {
  53              		.loc 1 55 0
  54              		.cfi_startproc
  55              		@ args = 0, pretend = 0, frame = 0
  56              		@ frame_needed = 1, uses_anonymous_args = 0
  57              		@ link register save eliminated.
  58 0000 80B4     		push	{r7}
  59              		.cfi_def_cfa_offset 4
ARM GAS  C:\Users\plod1602\AppData\Local\Temp\ccNoYuMj.s 			page 3


  60              		.cfi_offset 7, -4
  61 0002 00AF     		add	r7, sp, #0
  62              		.cfi_def_cfa_register 7
  56:.\Generated_Source\PSoC5/Em_EEPROM.c **** 
  57:.\Generated_Source\PSoC5/Em_EEPROM.c **** }
  63              		.loc 1 57 0
  64 0004 BD46     		mov	sp, r7
  65              		@ sp needed
  66 0006 5DF8047B 		ldr	r7, [sp], #4
  67 000a 7047     		bx	lr
  68              		.cfi_endproc
  69              	.LFE1:
  70              		.size	Em_EEPROM_Stop, .-Em_EEPROM_Stop
  71              		.section	.text.Em_EEPROM_Write,"ax",%progbits
  72              		.align	2
  73              		.global	Em_EEPROM_Write
  74              		.thumb
  75              		.thumb_func
  76              		.type	Em_EEPROM_Write, %function
  77              	Em_EEPROM_Write:
  78              	.LFB2:
  58:.\Generated_Source\PSoC5/Em_EEPROM.c **** 
  59:.\Generated_Source\PSoC5/Em_EEPROM.c **** 
  60:.\Generated_Source\PSoC5/Em_EEPROM.c **** /*******************************************************************************
  61:.\Generated_Source\PSoC5/Em_EEPROM.c **** * Function Name: Em_EEPROM_Write
  62:.\Generated_Source\PSoC5/Em_EEPROM.c **** ********************************************************************************
  63:.\Generated_Source\PSoC5/Em_EEPROM.c **** *
  64:.\Generated_Source\PSoC5/Em_EEPROM.c **** * Summary:
  65:.\Generated_Source\PSoC5/Em_EEPROM.c **** *  Writes the specified number of bytes from the source buffer in SRAM to the
  66:.\Generated_Source\PSoC5/Em_EEPROM.c **** *  emulated EEPROM array in flash, without modifying other data in flash.
  67:.\Generated_Source\PSoC5/Em_EEPROM.c **** *
  68:.\Generated_Source\PSoC5/Em_EEPROM.c **** * Parameters:
  69:.\Generated_Source\PSoC5/Em_EEPROM.c **** *  srcBuf:    Pointer to the SRAM buffer holding the data to write.
  70:.\Generated_Source\PSoC5/Em_EEPROM.c **** *  eepromPtr: Pointer to the array or variable in flash representing
  71:.\Generated_Source\PSoC5/Em_EEPROM.c **** *             the emulated EEPROM.
  72:.\Generated_Source\PSoC5/Em_EEPROM.c **** *  byteCount: Number of bytes to write from srcBuf to eepromPtr.
  73:.\Generated_Source\PSoC5/Em_EEPROM.c **** *
  74:.\Generated_Source\PSoC5/Em_EEPROM.c **** * Return:
  75:.\Generated_Source\PSoC5/Em_EEPROM.c **** *    CYRET_SUCCESS     Successful write.
  76:.\Generated_Source\PSoC5/Em_EEPROM.c **** *    CYRET_BAD_PARAM   eepromPtr is out of range of flash memory.
  77:.\Generated_Source\PSoC5/Em_EEPROM.c **** *    CYRET_UNKNOWN     Other error in writing flash.
  78:.\Generated_Source\PSoC5/Em_EEPROM.c **** *
  79:.\Generated_Source\PSoC5/Em_EEPROM.c **** *******************************************************************************/
  80:.\Generated_Source\PSoC5/Em_EEPROM.c **** #if (CY_PSOC3)
  81:.\Generated_Source\PSoC5/Em_EEPROM.c ****     cystatus Em_EEPROM_Write(const uint8 srcBuf[], const uint8 eepromPtr[], uint16 byteCount)
  82:.\Generated_Source\PSoC5/Em_EEPROM.c ****                                                                             
  83:.\Generated_Source\PSoC5/Em_EEPROM.c **** #else
  84:.\Generated_Source\PSoC5/Em_EEPROM.c ****     cystatus Em_EEPROM_Write(const uint8 srcBuf[], const uint8 eepromPtr[], uint32 byteCount)
  85:.\Generated_Source\PSoC5/Em_EEPROM.c **** #endif /* (!CY_PSOC3) */
  86:.\Generated_Source\PSoC5/Em_EEPROM.c **** {
  79              		.loc 1 86 0
  80              		.cfi_startproc
  81              		@ args = 0, pretend = 0, frame = 592
  82              		@ frame_needed = 1, uses_anonymous_args = 0
  83 0000 80B5     		push	{r7, lr}
  84              		.cfi_def_cfa_offset 8
  85              		.cfi_offset 7, -8
ARM GAS  C:\Users\plod1602\AppData\Local\Temp\ccNoYuMj.s 			page 4


  86              		.cfi_offset 14, -4
  87 0002 ADF5147D 		sub	sp, sp, #592
  88              		.cfi_def_cfa_offset 600
  89 0006 00AF     		add	r7, sp, #0
  90              		.cfi_def_cfa_register 7
  91 0008 07F10C03 		add	r3, r7, #12
  92 000c 1860     		str	r0, [r3]
  93 000e 07F10803 		add	r3, r7, #8
  94 0012 1960     		str	r1, [r3]
  95 0014 3B1D     		adds	r3, r7, #4
  96 0016 1A60     		str	r2, [r3]
  87:.\Generated_Source\PSoC5/Em_EEPROM.c ****     uint8 writeBuffer[CY_FLASH_SIZEOF_ROW];
  88:.\Generated_Source\PSoC5/Em_EEPROM.c ****     uint32 arrayId;
  89:.\Generated_Source\PSoC5/Em_EEPROM.c ****     uint32 rowId;
  90:.\Generated_Source\PSoC5/Em_EEPROM.c ****     uint32 dstIndex;
  91:.\Generated_Source\PSoC5/Em_EEPROM.c ****     uint32 srcIndex;
  92:.\Generated_Source\PSoC5/Em_EEPROM.c ****     cystatus rc;
  93:.\Generated_Source\PSoC5/Em_EEPROM.c ****     uint32 eeOffset;
  94:.\Generated_Source\PSoC5/Em_EEPROM.c ****     uint32 byteOffset;
  95:.\Generated_Source\PSoC5/Em_EEPROM.c ****     
  96:.\Generated_Source\PSoC5/Em_EEPROM.c ****     #if (!CY_PSOC4)
  97:.\Generated_Source\PSoC5/Em_EEPROM.c ****         #if (CYDEV_ECC_ENABLE == 0)
  98:.\Generated_Source\PSoC5/Em_EEPROM.c ****             uint8 rowBuffer[CY_FLASH_SIZEOF_ROW + CY_FLASH_SIZEOF_ECC_ROW];
  99:.\Generated_Source\PSoC5/Em_EEPROM.c ****         #endif /* CYDEV_ECC_ENABLE == 0) */
 100:.\Generated_Source\PSoC5/Em_EEPROM.c ****     #endif /* (!CY_PSOC4) */
 101:.\Generated_Source\PSoC5/Em_EEPROM.c **** 
 102:.\Generated_Source\PSoC5/Em_EEPROM.c ****     eeOffset = (uint32)eepromPtr;
  97              		.loc 1 102 0
  98 0018 07F10803 		add	r3, r7, #8
  99 001c 1B68     		ldr	r3, [r3]
 100 001e C7F83432 		str	r3, [r7, #564]
 103:.\Generated_Source\PSoC5/Em_EEPROM.c ****     #if (CY_PSOC3)
 104:.\Generated_Source\PSoC5/Em_EEPROM.c ****         eeOffset &= Em_EEPROM_CODE_ADDR_MASK;
 105:.\Generated_Source\PSoC5/Em_EEPROM.c ****     #endif /* (CY_PSOC3) */
 106:.\Generated_Source\PSoC5/Em_EEPROM.c **** 
 107:.\Generated_Source\PSoC5/Em_EEPROM.c ****     /* Make sure, that eepromPtr[] points to ROM */
 108:.\Generated_Source\PSoC5/Em_EEPROM.c ****     #if (CY_PSOC3)
 109:.\Generated_Source\PSoC5/Em_EEPROM.c ****         if (((uint32)eepromPtr >= Em_EEPROM_CODE_ADDR_OFFSET) &&
 110:.\Generated_Source\PSoC5/Em_EEPROM.c ****             (((uint32)eepromPtr + byteCount) <= Em_EEPROM_CODE_ADDR_END))
 111:.\Generated_Source\PSoC5/Em_EEPROM.c ****     #else
 112:.\Generated_Source\PSoC5/Em_EEPROM.c ****         if (((uint32)eepromPtr + byteCount) < Em_EEPROM_FLASH_END_ADDR)
 101              		.loc 1 112 0
 102 0022 07F10803 		add	r3, r7, #8
 103 0026 1A68     		ldr	r2, [r3]
 104 0028 3B1D     		adds	r3, r7, #4
 105 002a 1B68     		ldr	r3, [r3]
 106 002c 1344     		add	r3, r3, r2
 107 002e B3F5802F 		cmp	r3, #262144
 108 0032 80F08A80 		bcs	.L4
 113:.\Generated_Source\PSoC5/Em_EEPROM.c ****     #endif /* (CY_PSOC3) */
 114:.\Generated_Source\PSoC5/Em_EEPROM.c ****     {
 115:.\Generated_Source\PSoC5/Em_EEPROM.c ****         #if (!CY_PSOC4)
 116:.\Generated_Source\PSoC5/Em_EEPROM.c ****             (void)CySetTemp();
 109              		.loc 1 116 0
 110 0036 FFF7FEFF 		bl	CySetTemp
 117:.\Generated_Source\PSoC5/Em_EEPROM.c **** 
 118:.\Generated_Source\PSoC5/Em_EEPROM.c ****             #if(CYDEV_ECC_ENABLE == 0)
ARM GAS  C:\Users\plod1602\AppData\Local\Temp\ccNoYuMj.s 			page 5


 119:.\Generated_Source\PSoC5/Em_EEPROM.c ****                 (void)CySetFlashEEBuffer(rowBuffer);
 111              		.loc 1 119 0
 112 003a 07F11403 		add	r3, r7, #20
 113 003e 1846     		mov	r0, r3
 114 0040 FFF7FEFF 		bl	CySetFlashEEBuffer
 120:.\Generated_Source\PSoC5/Em_EEPROM.c ****             #endif
 121:.\Generated_Source\PSoC5/Em_EEPROM.c ****         #endif /* (!CY_PSOC4) */
 122:.\Generated_Source\PSoC5/Em_EEPROM.c **** 
 123:.\Generated_Source\PSoC5/Em_EEPROM.c ****         arrayId = eeOffset / CY_FLASH_SIZEOF_ARRAY;
 115              		.loc 1 123 0
 116 0044 D7F83432 		ldr	r3, [r7, #564]
 117 0048 1B0C     		lsrs	r3, r3, #16
 118 004a C7F84C32 		str	r3, [r7, #588]
 124:.\Generated_Source\PSoC5/Em_EEPROM.c ****         rowId = (eeOffset / CY_FLASH_SIZEOF_ROW) % Em_EEPROM_ROWS_IN_ARRAY;
 119              		.loc 1 124 0
 120 004e D7F83432 		ldr	r3, [r7, #564]
 121 0052 1B0A     		lsrs	r3, r3, #8
 122 0054 DBB2     		uxtb	r3, r3
 123 0056 C7F84832 		str	r3, [r7, #584]
 125:.\Generated_Source\PSoC5/Em_EEPROM.c ****         byteOffset = (CY_FLASH_SIZEOF_ARRAY * arrayId) + (CY_FLASH_SIZEOF_ROW * rowId);
 124              		.loc 1 125 0
 125 005a D7F84C32 		ldr	r3, [r7, #588]
 126 005e 1A02     		lsls	r2, r3, #8
 127 0060 D7F84832 		ldr	r3, [r7, #584]
 128 0064 1344     		add	r3, r3, r2
 129 0066 1B02     		lsls	r3, r3, #8
 130 0068 C7F83832 		str	r3, [r7, #568]
 126:.\Generated_Source\PSoC5/Em_EEPROM.c ****         srcIndex = 0u;
 131              		.loc 1 126 0
 132 006c 0023     		movs	r3, #0
 133 006e C7F84032 		str	r3, [r7, #576]
 127:.\Generated_Source\PSoC5/Em_EEPROM.c **** 
 128:.\Generated_Source\PSoC5/Em_EEPROM.c ****         rc = CYRET_SUCCESS;
 134              		.loc 1 128 0
 135 0072 0023     		movs	r3, #0
 136 0074 C7F83C32 		str	r3, [r7, #572]
 129:.\Generated_Source\PSoC5/Em_EEPROM.c **** 
 130:.\Generated_Source\PSoC5/Em_EEPROM.c ****         while ((srcIndex < byteCount) && (CYRET_SUCCESS == rc))
 137              		.loc 1 130 0
 138 0078 5AE0     		b	.L5
 139              	.L11:
 131:.\Generated_Source\PSoC5/Em_EEPROM.c ****         {
 132:.\Generated_Source\PSoC5/Em_EEPROM.c ****             /* Copy data to the write buffer either from the source buffer or from the flash */
 133:.\Generated_Source\PSoC5/Em_EEPROM.c ****             for (dstIndex = 0u; dstIndex < CY_FLASH_SIZEOF_ROW; dstIndex++)
 140              		.loc 1 133 0
 141 007a 0023     		movs	r3, #0
 142 007c C7F84432 		str	r3, [r7, #580]
 143 0080 32E0     		b	.L6
 144              	.L9:
 134:.\Generated_Source\PSoC5/Em_EEPROM.c ****             {
 135:.\Generated_Source\PSoC5/Em_EEPROM.c ****                 if ((byteOffset >= eeOffset) && (srcIndex < byteCount))
 145              		.loc 1 135 0
 146 0082 D7F83822 		ldr	r2, [r7, #568]
 147 0086 D7F83432 		ldr	r3, [r7, #564]
 148 008a 9A42     		cmp	r2, r3
 149 008c 18D3     		bcc	.L7
 150              		.loc 1 135 0 is_stmt 0 discriminator 1
ARM GAS  C:\Users\plod1602\AppData\Local\Temp\ccNoYuMj.s 			page 6


 151 008e 3B1D     		adds	r3, r7, #4
 152 0090 D7F84022 		ldr	r2, [r7, #576]
 153 0094 1B68     		ldr	r3, [r3]
 154 0096 9A42     		cmp	r2, r3
 155 0098 12D2     		bcs	.L7
 136:.\Generated_Source\PSoC5/Em_EEPROM.c ****                 {
 137:.\Generated_Source\PSoC5/Em_EEPROM.c ****                     writeBuffer[dstIndex] = srcBuf[srcIndex];
 156              		.loc 1 137 0 is_stmt 1
 157 009a 07F10C03 		add	r3, r7, #12
 158 009e 1A68     		ldr	r2, [r3]
 159 00a0 D7F84032 		ldr	r3, [r7, #576]
 160 00a4 1344     		add	r3, r3, r2
 161 00a6 1A78     		ldrb	r2, [r3]	@ zero_extendqisi2
 162 00a8 07F59A71 		add	r1, r7, #308
 163 00ac D7F84432 		ldr	r3, [r7, #580]
 164 00b0 0B44     		add	r3, r3, r1
 165 00b2 1A70     		strb	r2, [r3]
 138:.\Generated_Source\PSoC5/Em_EEPROM.c ****                     srcIndex++;
 166              		.loc 1 138 0
 167 00b4 D7F84032 		ldr	r3, [r7, #576]
 168 00b8 0133     		adds	r3, r3, #1
 169 00ba C7F84032 		str	r3, [r7, #576]
 170 00be 09E0     		b	.L8
 171              	.L7:
 139:.\Generated_Source\PSoC5/Em_EEPROM.c ****                 }
 140:.\Generated_Source\PSoC5/Em_EEPROM.c ****                 else
 141:.\Generated_Source\PSoC5/Em_EEPROM.c ****                 {
 142:.\Generated_Source\PSoC5/Em_EEPROM.c ****                     writeBuffer[dstIndex] = CY_GET_XTND_REG8(CYDEV_FLASH_BASE + byteOffset);
 172              		.loc 1 142 0
 173 00c0 D7F83832 		ldr	r3, [r7, #568]
 174 00c4 1B78     		ldrb	r3, [r3]
 175 00c6 DAB2     		uxtb	r2, r3
 176 00c8 07F59A71 		add	r1, r7, #308
 177 00cc D7F84432 		ldr	r3, [r7, #580]
 178 00d0 0B44     		add	r3, r3, r1
 179 00d2 1A70     		strb	r2, [r3]
 180              	.L8:
 143:.\Generated_Source\PSoC5/Em_EEPROM.c ****                 }
 144:.\Generated_Source\PSoC5/Em_EEPROM.c ****                 byteOffset++;
 181              		.loc 1 144 0
 182 00d4 D7F83832 		ldr	r3, [r7, #568]
 183 00d8 0133     		adds	r3, r3, #1
 184 00da C7F83832 		str	r3, [r7, #568]
 133:.\Generated_Source\PSoC5/Em_EEPROM.c ****             for (dstIndex = 0u; dstIndex < CY_FLASH_SIZEOF_ROW; dstIndex++)
 185              		.loc 1 133 0
 186 00de D7F84432 		ldr	r3, [r7, #580]
 187 00e2 0133     		adds	r3, r3, #1
 188 00e4 C7F84432 		str	r3, [r7, #580]
 189              	.L6:
 133:.\Generated_Source\PSoC5/Em_EEPROM.c ****             for (dstIndex = 0u; dstIndex < CY_FLASH_SIZEOF_ROW; dstIndex++)
 190              		.loc 1 133 0 is_stmt 0 discriminator 1
 191 00e8 D7F84432 		ldr	r3, [r7, #580]
 192 00ec FF2B     		cmp	r3, #255
 193 00ee C8D9     		bls	.L9
 145:.\Generated_Source\PSoC5/Em_EEPROM.c ****             }
 146:.\Generated_Source\PSoC5/Em_EEPROM.c **** 
 147:.\Generated_Source\PSoC5/Em_EEPROM.c ****             /* Write flash row */
ARM GAS  C:\Users\plod1602\AppData\Local\Temp\ccNoYuMj.s 			page 7


 148:.\Generated_Source\PSoC5/Em_EEPROM.c ****             #if (CY_PSOC4)
 149:.\Generated_Source\PSoC5/Em_EEPROM.c ****                 rc = CySysFlashWriteRow(rowId, writeBuffer);
 150:.\Generated_Source\PSoC5/Em_EEPROM.c ****             #else
 151:.\Generated_Source\PSoC5/Em_EEPROM.c ****                 rc = CyWriteRowData((uint8)arrayId, (uint16)rowId, writeBuffer);
 194              		.loc 1 151 0 is_stmt 1
 195 00f0 D7F84C32 		ldr	r3, [r7, #588]
 196 00f4 D9B2     		uxtb	r1, r3
 197 00f6 D7F84832 		ldr	r3, [r7, #584]
 198 00fa 9AB2     		uxth	r2, r3
 199 00fc 07F59A73 		add	r3, r7, #308
 200 0100 0846     		mov	r0, r1
 201 0102 1146     		mov	r1, r2
 202 0104 1A46     		mov	r2, r3
 203 0106 FFF7FEFF 		bl	CyWriteRowData
 204 010a C7F83C02 		str	r0, [r7, #572]
 152:.\Generated_Source\PSoC5/Em_EEPROM.c ****             #endif /* (CY_PSOC4) */
 153:.\Generated_Source\PSoC5/Em_EEPROM.c **** 
 154:.\Generated_Source\PSoC5/Em_EEPROM.c ****             /* Go to the next row */
 155:.\Generated_Source\PSoC5/Em_EEPROM.c ****             rowId++;
 205              		.loc 1 155 0
 206 010e D7F84832 		ldr	r3, [r7, #584]
 207 0112 0133     		adds	r3, r3, #1
 208 0114 C7F84832 		str	r3, [r7, #584]
 156:.\Generated_Source\PSoC5/Em_EEPROM.c ****             #if (CY_FLASH_NUMBER_ARRAYS > 1)
 157:.\Generated_Source\PSoC5/Em_EEPROM.c ****                 if (rowId >= Em_EEPROM_ROWS_IN_ARRAY)
 209              		.loc 1 157 0
 210 0118 D7F84832 		ldr	r3, [r7, #584]
 211 011c FF2B     		cmp	r3, #255
 212 011e 07D9     		bls	.L5
 158:.\Generated_Source\PSoC5/Em_EEPROM.c ****                 {
 159:.\Generated_Source\PSoC5/Em_EEPROM.c ****                     arrayId++;
 213              		.loc 1 159 0
 214 0120 D7F84C32 		ldr	r3, [r7, #588]
 215 0124 0133     		adds	r3, r3, #1
 216 0126 C7F84C32 		str	r3, [r7, #588]
 160:.\Generated_Source\PSoC5/Em_EEPROM.c ****                     rowId = 0u;
 217              		.loc 1 160 0
 218 012a 0023     		movs	r3, #0
 219 012c C7F84832 		str	r3, [r7, #584]
 220              	.L5:
 130:.\Generated_Source\PSoC5/Em_EEPROM.c ****         while ((srcIndex < byteCount) && (CYRET_SUCCESS == rc))
 221              		.loc 1 130 0 discriminator 1
 222 0130 3B1D     		adds	r3, r7, #4
 223 0132 D7F84022 		ldr	r2, [r7, #576]
 224 0136 1B68     		ldr	r3, [r3]
 225 0138 9A42     		cmp	r2, r3
 226 013a 03D2     		bcs	.L10
 130:.\Generated_Source\PSoC5/Em_EEPROM.c ****         while ((srcIndex < byteCount) && (CYRET_SUCCESS == rc))
 227              		.loc 1 130 0 is_stmt 0 discriminator 2
 228 013c D7F83C32 		ldr	r3, [r7, #572]
 229 0140 002B     		cmp	r3, #0
 230 0142 9AD0     		beq	.L11
 231              	.L10:
 161:.\Generated_Source\PSoC5/Em_EEPROM.c ****                 }
 162:.\Generated_Source\PSoC5/Em_EEPROM.c ****             #endif /* (CY_FLASH_NUMBER_ARRAYS > 1) */
 163:.\Generated_Source\PSoC5/Em_EEPROM.c ****         }
 164:.\Generated_Source\PSoC5/Em_EEPROM.c **** 
ARM GAS  C:\Users\plod1602\AppData\Local\Temp\ccNoYuMj.s 			page 8


 165:.\Generated_Source\PSoC5/Em_EEPROM.c ****         /* Flush both Cache and PHUB prefetch buffer */
 166:.\Generated_Source\PSoC5/Em_EEPROM.c ****         #if (CY_PSOC5)
 167:.\Generated_Source\PSoC5/Em_EEPROM.c ****             CyFlushCache();
 232              		.loc 1 167 0 is_stmt 1
 233 0144 FFF7FEFF 		bl	CyFlushCache
 234 0148 02E0     		b	.L12
 235              	.L4:
 168:.\Generated_Source\PSoC5/Em_EEPROM.c ****         #elif (CY_PSOC3)
 169:.\Generated_Source\PSoC5/Em_EEPROM.c ****             CY_FLASH_CONTROL_REG |= 6u;
 170:.\Generated_Source\PSoC5/Em_EEPROM.c ****         #endif /* (CY_PSOC5) */
 171:.\Generated_Source\PSoC5/Em_EEPROM.c ****     }
 172:.\Generated_Source\PSoC5/Em_EEPROM.c ****     else
 173:.\Generated_Source\PSoC5/Em_EEPROM.c ****     {
 174:.\Generated_Source\PSoC5/Em_EEPROM.c ****         rc = CYRET_BAD_PARAM;
 236              		.loc 1 174 0
 237 014a 0123     		movs	r3, #1
 238 014c C7F83C32 		str	r3, [r7, #572]
 239              	.L12:
 175:.\Generated_Source\PSoC5/Em_EEPROM.c ****     }
 176:.\Generated_Source\PSoC5/Em_EEPROM.c **** 
 177:.\Generated_Source\PSoC5/Em_EEPROM.c ****     /* Mask return codes from flash, if they are not supported */
 178:.\Generated_Source\PSoC5/Em_EEPROM.c ****     if ((CYRET_SUCCESS != rc) && (CYRET_BAD_PARAM != rc))
 240              		.loc 1 178 0
 241 0150 D7F83C32 		ldr	r3, [r7, #572]
 242 0154 002B     		cmp	r3, #0
 243 0156 07D0     		beq	.L13
 244              		.loc 1 178 0 is_stmt 0 discriminator 1
 245 0158 D7F83C32 		ldr	r3, [r7, #572]
 246 015c 012B     		cmp	r3, #1
 247 015e 03D0     		beq	.L13
 179:.\Generated_Source\PSoC5/Em_EEPROM.c ****     {
 180:.\Generated_Source\PSoC5/Em_EEPROM.c ****         rc = CYRET_UNKNOWN;
 248              		.loc 1 180 0 is_stmt 1
 249 0160 4FF0FF33 		mov	r3, #-1
 250 0164 C7F83C32 		str	r3, [r7, #572]
 251              	.L13:
 181:.\Generated_Source\PSoC5/Em_EEPROM.c ****     }
 182:.\Generated_Source\PSoC5/Em_EEPROM.c ****     
 183:.\Generated_Source\PSoC5/Em_EEPROM.c ****     return (rc);
 252              		.loc 1 183 0
 253 0168 D7F83C32 		ldr	r3, [r7, #572]
 184:.\Generated_Source\PSoC5/Em_EEPROM.c **** }
 254              		.loc 1 184 0
 255 016c 1846     		mov	r0, r3
 256 016e 07F51477 		add	r7, r7, #592
 257 0172 BD46     		mov	sp, r7
 258              		@ sp needed
 259 0174 80BD     		pop	{r7, pc}
 260              		.cfi_endproc
 261              	.LFE2:
 262              		.size	Em_EEPROM_Write, .-Em_EEPROM_Write
 263 0176 00BF     		.text
 264              	.Letext0:
 265              		.file 2 ".\\Generated_Source\\PSoC5\\cytypes.h"