ARM GAS  C:\Users\plod1602\AppData\Local\Temp\ccJMfzF4.s 			page 1


   1              		.syntax unified
   2              		.cpu cortex-m3
   3              		.fpu softvfp
   4              		.eabi_attribute 20, 1
   5              		.eabi_attribute 21, 1
   6              		.eabi_attribute 23, 3
   7              		.eabi_attribute 24, 1
   8              		.eabi_attribute 25, 1
   9              		.eabi_attribute 26, 1
  10              		.eabi_attribute 30, 6
  11              		.eabi_attribute 34, 1
  12              		.eabi_attribute 18, 4
  13              		.thumb
  14              		.file	"main.c"
  15              		.text
  16              	.Ltext0:
  17              		.cfi_sections	.debug_frame
  18              		.global	messageToBeTreatedCount
  19              		.bss
  20              		.align	2
  21              		.type	messageToBeTreatedCount, %object
  22              		.size	messageToBeTreatedCount, 4
  23              	messageToBeTreatedCount:
  24 0000 00000000 		.space	4
  25              		.global	msgToBeTreatedIndex
  26              		.align	2
  27              		.type	msgToBeTreatedIndex, %object
  28              		.size	msgToBeTreatedIndex, 4
  29              	msgToBeTreatedIndex:
  30 0004 00000000 		.space	4
  31              		.global	msgToBeStoredIndex
  32              		.align	2
  33              		.type	msgToBeStoredIndex, %object
  34              		.size	msgToBeStoredIndex, 4
  35              	msgToBeStoredIndex:
  36 0008 00000000 		.space	4
  37              		.comm	receivedMsgs,800,4
  38              		.global	STOP_CALIBRATION_FLAG
  39              		.type	STOP_CALIBRATION_FLAG, %object
  40              		.size	STOP_CALIBRATION_FLAG, 1
  41              	STOP_CALIBRATION_FLAG:
  42 000c 00       		.space	1
  43              		.global	SM1_MAINTAIN_TEMPERATURE_FLAG
  44              		.type	SM1_MAINTAIN_TEMPERATURE_FLAG, %object
  45              		.size	SM1_MAINTAIN_TEMPERATURE_FLAG, 1
  46              	SM1_MAINTAIN_TEMPERATURE_FLAG:
  47 000d 00       		.space	1
  48              		.global	SM2_MAINTAIN_TEMPERATURE_FLAG
  49              		.type	SM2_MAINTAIN_TEMPERATURE_FLAG, %object
  50              		.size	SM2_MAINTAIN_TEMPERATURE_FLAG, 1
  51              	SM2_MAINTAIN_TEMPERATURE_FLAG:
  52 000e 00       		.space	1
  53              		.comm	SM1calibrationValues,200,4
  54              		.comm	SM1percentageValues,100,4
  55              		.comm	SM2calibrationValues,200,4
  56              		.comm	SM2percentageValues,100,4
  57              		.global	SM1
ARM GAS  C:\Users\plod1602\AppData\Local\Temp\ccJMfzF4.s 			page 2


  58              		.data
  59              		.align	2
  60              		.type	SM1, %object
  61              		.size	SM1, 36
  62              	SM1:
  63 0000 0100     		.short	1
  64 0002 0F00     		.short	15
  65 0004 00       		.byte	0
  66 0005 00       		.space	1
  67 0006 FA00     		.short	250
  68 0008 FA00     		.short	250
  69 000a 7201     		.short	370
  70 000c 04       		.byte	4
  71 000d 00       		.byte	0
  72 000e 00       		.byte	0
  73 000f 00       		.byte	0
  74 0010 00       		.byte	0
  75 0011 00       		.byte	0
  76 0012 00       		.byte	0
  77 0013 00       		.byte	0
  78 0014 00       		.byte	0
  79 0015 00       		.byte	0
  80 0016 0000     		.space	2
  81 0018 00000000 		.word	SM1calibrationValues
  82 001c 00000000 		.word	SM1percentageValues
  83 0020 00       		.byte	0
  84 0021 00       		.byte	0
  85 0022 0000     		.space	2
  86              		.global	SM2
  87              		.align	2
  88              		.type	SM2, %object
  89              		.size	SM2, 36
  90              	SM2:
  91 0024 0200     		.short	2
  92 0026 0F00     		.short	15
  93 0028 00       		.byte	0
  94 0029 00       		.space	1
  95 002a FA00     		.short	250
  96 002c FA00     		.short	250
  97 002e 7201     		.short	370
  98 0030 04       		.byte	4
  99 0031 00       		.byte	0
 100 0032 00       		.byte	0
 101 0033 00       		.byte	0
 102 0034 00       		.byte	0
 103 0035 00       		.byte	0
 104 0036 00       		.byte	0
 105 0037 00       		.byte	0
 106 0038 00       		.byte	0
 107 0039 00       		.byte	0
 108 003a 0000     		.space	2
 109 003c 00000000 		.word	SM2calibrationValues
 110 0040 00000000 		.word	SM2percentageValues
 111 0044 00       		.byte	0
 112 0045 00       		.byte	0
 113 0046 0000     		.space	2
 114              		.global	avgTemp
ARM GAS  C:\Users\plod1602\AppData\Local\Temp\ccJMfzF4.s 			page 3


 115              		.bss
 116 000f 00       		.align	2
 117              		.type	avgTemp, %object
 118              		.size	avgTemp, 4
 119              	avgTemp:
 120 0010 00000000 		.space	4
 121              		.global	tempCounter
 122              		.align	2
 123              		.type	tempCounter, %object
 124              		.size	tempCounter, 4
 125              	tempCounter:
 126 0014 00000000 		.space	4
 127              		.global	powerOffset
 128              		.align	2
 129              		.type	powerOffset, %object
 130              		.size	powerOffset, 4
 131              	powerOffset:
 132 0018 00000000 		.space	4
 133              		.global	pidTempArray
 134              		.align	2
 135              		.type	pidTempArray, %object
 136              		.size	pidTempArray, 40
 137              	pidTempArray:
 138 001c 00000000 		.space	40
 138      00000000 
 138      00000000 
 138      00000000 
 138      00000000 
 139              		.global	pidIndex
 140              		.align	2
 141              		.type	pidIndex, %object
 142              		.size	pidIndex, 4
 143              	pidIndex:
 144 0044 00000000 		.space	4
 145              		.global	firstRoundFlag
 146              		.data
 147              		.type	firstRoundFlag, %object
 148              		.size	firstRoundFlag, 1
 149              	firstRoundFlag:
 150 0048 01       		.byte	1
 151              		.global	SM1_firstRoundFlag
 152              		.type	SM1_firstRoundFlag, %object
 153              		.size	SM1_firstRoundFlag, 1
 154              	SM1_firstRoundFlag:
 155 0049 01       		.byte	1
 156              		.global	SM2_firstRoundFlag
 157              		.type	SM2_firstRoundFlag, %object
 158              		.size	SM2_firstRoundFlag, 1
 159              	SM2_firstRoundFlag:
 160 004a 01       		.byte	1
 161              		.global	SM1_targetTemperature
 162 004b 00       		.align	1
 163              		.type	SM1_targetTemperature, %object
 164              		.size	SM1_targetTemperature, 2
 165              	SM1_targetTemperature:
 166 004c FA00     		.short	250
 167              		.global	SM2_targetTemperature
ARM GAS  C:\Users\plod1602\AppData\Local\Temp\ccJMfzF4.s 			page 4


 168              		.align	1
 169              		.type	SM2_targetTemperature, %object
 170              		.size	SM2_targetTemperature, 2
 171              	SM2_targetTemperature:
 172 004e FA00     		.short	250
 173              		.global	Turbidity_mean
 174              		.bss
 175              		.align	2
 176              		.type	Turbidity_mean, %object
 177              		.size	Turbidity_mean, 4
 178              	Turbidity_mean:
 179 0048 00000000 		.space	4
 180              		.global	mean2
 181              		.align	2
 182              		.type	mean2, %object
 183              		.size	mean2, 40
 184              	mean2:
 185 004c 00000000 		.space	40
 185      00000000 
 185      00000000 
 185      00000000 
 185      00000000 
 186              		.global	Turbidity_buffer
 187              		.align	2
 188              		.type	Turbidity_buffer, %object
 189              		.size	Turbidity_buffer, 800
 190              	Turbidity_buffer:
 191 0074 00000000 		.space	800
 191      00000000 
 191      00000000 
 191      00000000 
 191      00000000 
 192              		.global	newTurbidoData
 193              		.align	2
 194              		.type	newTurbidoData, %object
 195              		.size	newTurbidoData, 4
 196              	newTurbidoData:
 197 0394 00000000 		.space	4
 198              		.comm	result,2,2
 199              		.global	buffer
 200              		.align	2
 201              		.type	buffer, %object
 202              		.size	buffer, 800
 203              	buffer:
 204 0398 00000000 		.space	800
 204      00000000 
 204      00000000 
 204      00000000 
 204      00000000 
 205              		.global	compteur
 206              		.data
 207              		.align	2
 208              		.type	compteur, %object
 209              		.size	compteur, 4
 210              	compteur:
 211 0050 FFFFFFFF 		.word	-1
 212              		.global	accumulateur
ARM GAS  C:\Users\plod1602\AppData\Local\Temp\ccJMfzF4.s 			page 5


 213              		.bss
 214              		.align	2
 215              		.type	accumulateur, %object
 216              		.size	accumulateur, 4
 217              	accumulateur:
 218 06b8 00000000 		.space	4
 219              		.global	turbido_index
 220              		.align	2
 221              		.type	turbido_index, %object
 222              		.size	turbido_index, 4
 223              	turbido_index:
 224 06bc 00000000 		.space	4
 225              		.section	.text.InterruptHandler,"ax",%progbits
 226              		.align	2
 227              		.global	InterruptHandler
 228              		.thumb
 229              		.thumb_func
 230              		.type	InterruptHandler, %function
 231              	InterruptHandler:
 232              	.LFB56:
 233              		.file 1 ".\\main.c"
   1:.\main.c      **** /* ========================================
   2:.\main.c      ****  *
   3:.\main.c      ****  * Copyright Biobotus, 2015
   4:.\main.c      ****  * All Rights Reserved
   5:.\main.c      ****  * UNPUBLISHED, LICENSED SOFTWARE.
   6:.\main.c      ****  *
   7:.\main.c      ****  * CONFIDENTIAL AND PROPRIETARY INFORMATION
   8:.\main.c      ****  * WHICH IS THE PROPERTY OF your company.
   9:.\main.c      ****  *
  10:.\main.c      ****  * ========================================
  11:.\main.c      **** */
  12:.\main.c      **** #include <project.h>
  13:.\main.c      **** #include <stdio.h>
  14:.\main.c      **** #include <math.h>
  15:.\main.c      **** #include "ComputerCommunication.h"
  16:.\main.c      **** #include "Defines.h"
  17:.\main.c      **** #include "PeltierCalibration.h"
  18:.\main.c      **** #include "CAN_Communication.h"
  19:.\main.c      **** #include "turbido.h"
  20:.\main.c      **** #include "TAC_Submodule.h"
  21:.\main.c      **** 
  22:.\main.c      **** // FIRST DEFINITION OF GLOBAL VARIABLES DEFINED IN Defines.h.
  23:.\main.c      **** int messageToBeTreatedCount = 0;
  24:.\main.c      **** int msgToBeTreatedIndex = 0;
  25:.\main.c      **** int msgToBeStoredIndex = 0;
  26:.\main.c      **** CAN_MSG receivedMsgs[MAX_MSG_BUFFER_SIZE];
  27:.\main.c      **** uint8 STOP_CALIBRATION_FLAG = 0;
  28:.\main.c      **** uint8 SM1_MAINTAIN_TEMPERATURE_FLAG = 0;
  29:.\main.c      **** uint8 SM2_MAINTAIN_TEMPERATURE_FLAG = 0;
  30:.\main.c      **** int16 SM1calibrationValues[CALIBRATION_TABLE_SIZE]; // used to test eeprom read/write operations
  31:.\main.c      **** uint8 SM1percentageValues[CALIBRATION_TABLE_SIZE];
  32:.\main.c      **** int16 SM2calibrationValues[CALIBRATION_TABLE_SIZE]; // used to test eeprom read/write operations
  33:.\main.c      **** uint8 SM2percentageValues[CALIBRATION_TABLE_SIZE];
  34:.\main.c      **** Tac_Submodule SM1 = {0x01,MAX_TEMPERATURE_DEVIANCE,peltierDisabled,INITIAL_TARGET_TEMPERATURE,NORMA
  35:.\main.c      **** Tac_Submodule SM2 = {0x02,MAX_TEMPERATURE_DEVIANCE,peltierDisabled,INITIAL_TARGET_TEMPERATURE,NORMA
  36:.\main.c      **** 
ARM GAS  C:\Users\plod1602\AppData\Local\Temp\ccJMfzF4.s 			page 6


  37:.\main.c      **** // FIRST DEFINITION SECTION END
  38:.\main.c      **** 
  39:.\main.c      **** //#define DEBUG           (0u)    // Set to 1 to enable debug logging on UART port (which is proble
  40:.\main.c      **** #define CLEAR_SCREEN        (0x0C)
  41:.\main.c      **** #define CONVERT_TO_ASCII    (0x30u)
  42:.\main.c      **** 
  43:.\main.c      **** // Global variables for main file
  44:.\main.c      **** float avgTemp=0;            // Initializing a variable to calculate an average temperature
  45:.\main.c      **** int tempCounter=0;          // Initializing a counter variable
  46:.\main.c      **** int powerOffset=0;          // Represents the offset of power to apply to Peltier's setpoint
  47:.\main.c      **** int pidTempArray[10]={0};   // Contains the sum of errors regarding setpoint
  48:.\main.c      **** int pidIndex=0;
  49:.\main.c      **** uint8 firstRoundFlag = 1;   // Used as a flag to avoid comparing first temperature reading to last 
  50:.\main.c      **** uint8 SM1_firstRoundFlag = 1;
  51:.\main.c      **** uint8 SM2_firstRoundFlag = 1;
  52:.\main.c      **** int16 SM1_targetTemperature = INITIAL_TARGET_TEMPERATURE;
  53:.\main.c      **** int16 SM2_targetTemperature = INITIAL_TARGET_TEMPERATURE;
  54:.\main.c      **** 
  55:.\main.c      **** // Variables for Turbidity
  56:.\main.c      **** float Turbidity_mean = 0;
  57:.\main.c      **** float mean2[10] = {0};
  58:.\main.c      **** float Turbidity_buffer[200] = {0};
  59:.\main.c      **** int newTurbidoData = 0; 
  60:.\main.c      **** uint16 result;
  61:.\main.c      **** float buffer[200] = {0};
  62:.\main.c      **** int compteur = -1;
  63:.\main.c      **** float accumulateur = 0;
  64:.\main.c      **** int turbido_index = 0;
  65:.\main.c      **** /*===========================================================================*/
  66:.\main.c      **** // prototypes
  67:.\main.c      **** /*===========================================================================*/
  68:.\main.c      **** 
  69:.\main.c      **** /**
  70:.\main.c      ****  * NOT USED anymore?
  71:.\main.c      ****  *   @param channel AMux channel, related to schematic connections
  72:.\main.c      ****  *   @param mVolts value to send to display
  73:.\main.c      ****  */
  74:.\main.c      **** void SendChannelVoltage(uint8 channel, int16 mVolts);
  75:.\main.c      **** 
  76:.\main.c      **** /**
  77:.\main.c      ****  * Used to get a reading from the Analog - Digital converter
  78:.\main.c      ****  *   @param channel:  AMux channel, see schematic for corresponding entry
  79:.\main.c      ****  */
  80:.\main.c      **** int16 getADCResult(uint8 channel);
  81:.\main.c      **** 
  82:.\main.c      **** /*
  83:.\main.c      ****  * Used to initiate everything that is related to the TAC module.
  84:.\main.c      ****  */
  85:.\main.c      **** void initTACModule();
  86:.\main.c      **** uint8 treatMessage(CAN_MSG* msgToTreatPtr);
  87:.\main.c      **** 
  88:.\main.c      **** 
  89:.\main.c      **** CY_ISR(InterruptHandler)
  90:.\main.c      **** {
 234              		.loc 1 90 0
 235              		.cfi_startproc
 236              		@ args = 0, pretend = 0, frame = 0
ARM GAS  C:\Users\plod1602\AppData\Local\Temp\ccJMfzF4.s 			page 7


 237              		@ frame_needed = 1, uses_anonymous_args = 0
 238              		@ link register save eliminated.
 239 0000 80B4     		push	{r7}
 240              		.cfi_def_cfa_offset 4
 241              		.cfi_offset 7, -4
 242 0002 00AF     		add	r7, sp, #0
 243              		.cfi_def_cfa_register 7
  91:.\main.c      **** 	/* Read Status register in order to clear the sticky Terminal Count (TC) bit 
  92:.\main.c      **** 	 * in the status register. Note that the function is not called, but rather 
  93:.\main.c      **** 	 * the status is read directly.
  94:.\main.c      **** 	 */  
  95:.\main.c      ****     
  96:.\main.c      ****     newTurbidoData = 1;
 244              		.loc 1 96 0
 245 0004 054B     		ldr	r3, .L2
 246 0006 0122     		movs	r2, #1
 247 0008 1A60     		str	r2, [r3]
  97:.\main.c      ****     result = CY_GET_REG16(ADC_TURBIDO_SAR_WRK_PTR);
 248              		.loc 1 97 0
 249 000a 054B     		ldr	r3, .L2+4
 250 000c 1B88     		ldrh	r3, [r3]	@ movhi
 251 000e 9AB2     		uxth	r2, r3
 252 0010 044B     		ldr	r3, .L2+8
 253 0012 1A80     		strh	r2, [r3]	@ movhi
  98:.\main.c      ****     
  99:.\main.c      **** }
 254              		.loc 1 99 0
 255 0014 BD46     		mov	sp, r7
 256              		@ sp needed
 257 0016 5DF8047B 		ldr	r7, [sp], #4
 258 001a 7047     		bx	lr
 259              	.L3:
 260              		.align	2
 261              	.L2:
 262 001c 00000000 		.word	newTurbidoData
 263 0020 A05B0040 		.word	1073765280
 264 0024 00000000 		.word	result
 265              		.cfi_endproc
 266              	.LFE56:
 267              		.size	InterruptHandler, .-InterruptHandler
 268              		.section	.text.main,"ax",%progbits
 269              		.align	2
 270              		.global	main
 271              		.thumb
 272              		.thumb_func
 273              		.type	main, %function
 274              	main:
 275              	.LFB57:
 100:.\main.c      **** 
 101:.\main.c      **** /*===========================================================================*/
 102:.\main.c      **** // Main loop
 103:.\main.c      **** /*===========================================================================*/
 104:.\main.c      **** int main()
 105:.\main.c      **** {
 276              		.loc 1 105 0
 277              		.cfi_startproc
 278              		@ args = 0, pretend = 0, frame = 32
ARM GAS  C:\Users\plod1602\AppData\Local\Temp\ccJMfzF4.s 			page 8


 279              		@ frame_needed = 1, uses_anonymous_args = 0
 280 0000 90B5     		push	{r4, r7, lr}
 281              		.cfi_def_cfa_offset 12
 282              		.cfi_offset 4, -12
 283              		.cfi_offset 7, -8
 284              		.cfi_offset 14, -4
 285 0002 8BB0     		sub	sp, sp, #44
 286              		.cfi_def_cfa_offset 56
 287 0004 02AF     		add	r7, sp, #8
 288              		.cfi_def_cfa 7, 48
 106:.\main.c      ****     
 107:.\main.c      ****     /* Main principal sequence :
 108:.\main.c      ****     1- Initialize components (CAN/Uart/thermistors/ADC)
 109:.\main.c      ****     2- Identify the module to the master
 110:.\main.c      ****     3- Wait for commands from the master
 111:.\main.c      ****     4- Main loop :
 112:.\main.c      ****         4.1 Verify if an instruction was received by looping through all the flags that can be set 
 113:.\main.c      ****             driven by the CAN bus.        
 114:.\main.c      ****     */
 115:.\main.c      ****     
 116:.\main.c      **** 	/* Temperature value in 100ths of degree C*/
 117:.\main.c      **** 	int32 iTemp, lastTemp = 0, deltatTemp = 0, tempSum=0; 
 289              		.loc 1 117 0
 290 0006 0023     		movs	r3, #0
 291 0008 FB61     		str	r3, [r7, #28]
 292 000a 0023     		movs	r3, #0
 293 000c BB61     		str	r3, [r7, #24]
 294 000e 0023     		movs	r3, #0
 295 0010 7B61     		str	r3, [r7, #20]
 118:.\main.c      **** 
 119:.\main.c      ****     // Initialize everything for the module, from communication to peripherals.
 120:.\main.c      ****     initTACModule();
 296              		.loc 1 120 0
 297 0012 FFF7FEFF 		bl	initTACModule
 121:.\main.c      ****        
 122:.\main.c      ****     // Retrieve last calibration data from EEPROM
 123:.\main.c      ****     int8 isCalibrationDone = getCalibrationTable(&SM1);
 298              		.loc 1 123 0
 299 0016 3C48     		ldr	r0, .L8
 300 0018 FFF7FEFF 		bl	getCalibrationTable
 301 001c 0346     		mov	r3, r0
 302 001e FB74     		strb	r3, [r7, #19]
 124:.\main.c      ****     
 125:.\main.c      ****     // TESTING SECTION -> TO BE REMOVED
 126:.\main.c      ****     changeAgitatorSpeed(50,1);
 303              		.loc 1 126 0
 304 0020 3220     		movs	r0, #50
 305 0022 0121     		movs	r1, #1
 306 0024 FFF7FEFF 		bl	changeAgitatorSpeed
 127:.\main.c      ****     changeAgitatorSpeed(75,2);
 307              		.loc 1 127 0
 308 0028 4B20     		movs	r0, #75
 309 002a 0221     		movs	r1, #2
 310 002c FFF7FEFF 		bl	changeAgitatorSpeed
 128:.\main.c      ****     changeFanSpeed(50,1);
 311              		.loc 1 128 0
 312 0030 3220     		movs	r0, #50
ARM GAS  C:\Users\plod1602\AppData\Local\Temp\ccJMfzF4.s 			page 9


 313 0032 0121     		movs	r1, #1
 314 0034 FFF7FEFF 		bl	changeFanSpeed
 129:.\main.c      ****     changeFanSpeed(75,2);
 315              		.loc 1 129 0
 316 0038 4B20     		movs	r0, #75
 317 003a 0221     		movs	r1, #2
 318 003c FFF7FEFF 		bl	changeFanSpeed
 130:.\main.c      ****     
 131:.\main.c      ****     changeFanState(1,1);
 319              		.loc 1 131 0
 320 0040 0120     		movs	r0, #1
 321 0042 0121     		movs	r1, #1
 322 0044 FFF7FEFF 		bl	changeFanState
 132:.\main.c      ****     changeFanState(1,2);
 323              		.loc 1 132 0
 324 0048 0120     		movs	r0, #1
 325 004a 0221     		movs	r1, #2
 326 004c FFF7FEFF 		bl	changeFanState
 133:.\main.c      ****     changeAgitatorState(1,1);
 327              		.loc 1 133 0
 328 0050 0120     		movs	r0, #1
 329 0052 0121     		movs	r1, #1
 330 0054 FFF7FEFF 		bl	changeAgitatorState
 134:.\main.c      ****     changeAgitatorState(1,2);    
 331              		.loc 1 134 0
 332 0058 0120     		movs	r0, #1
 333 005a 0221     		movs	r1, #2
 334 005c FFF7FEFF 		bl	changeAgitatorState
 135:.\main.c      **** 
 136:.\main.c      ****     changePeltierModuleCurrentDirection(PELTIER_COOL,1);
 335              		.loc 1 136 0
 336 0060 0120     		movs	r0, #1
 337 0062 0121     		movs	r1, #1
 338 0064 FFF7FEFF 		bl	changePeltierModuleCurrentDirection
 137:.\main.c      ****     changePeltierModuleCurrentDirection(PELTIER_HEAT,2); 
 339              		.loc 1 137 0
 340 0068 0220     		movs	r0, #2
 341 006a 0221     		movs	r1, #2
 342 006c FFF7FEFF 		bl	changePeltierModuleCurrentDirection
 138:.\main.c      ****     Peltier1_PWM_Ctrl_WriteCompare(75);
 343              		.loc 1 138 0
 344 0070 4B20     		movs	r0, #75
 345 0072 FFF7FEFF 		bl	Peltier1_PWM_Ctrl_WriteCompare
 139:.\main.c      ****     Peltier2_PWM_Ctrl_WriteCompare(50);
 346              		.loc 1 139 0
 347 0076 3220     		movs	r0, #50
 348 0078 FFF7FEFF 		bl	Peltier2_PWM_Ctrl_WriteCompare
 140:.\main.c      ****     changePeltierModuleState(1,1);
 349              		.loc 1 140 0
 350 007c 0120     		movs	r0, #1
 351 007e 0121     		movs	r1, #1
 352 0080 FFF7FEFF 		bl	changePeltierModuleState
 141:.\main.c      ****     changePeltierModuleState(1,2);  
 353              		.loc 1 141 0
 354 0084 0120     		movs	r0, #1
 355 0086 0221     		movs	r1, #2
 356 0088 FFF7FEFF 		bl	changePeltierModuleState
ARM GAS  C:\Users\plod1602\AppData\Local\Temp\ccJMfzF4.s 			page 10


 357              	.L7:
 142:.\main.c      ****     // TESTING SECTION END
 143:.\main.c      ****     
 144:.\main.c      ****     for(;;)
 145:.\main.c      ****     {
 146:.\main.c      ****         //Verify if a message needs to be treated in the message received buffer.       
 147:.\main.c      ****         if(messageToBeTreatedCount>0)
 358              		.loc 1 147 0
 359 008c 1F4B     		ldr	r3, .L8+4
 360 008e 1B68     		ldr	r3, [r3]
 361 0090 002B     		cmp	r3, #0
 362 0092 09DD     		ble	.L5
 363              	.LBB2:
 148:.\main.c      ****         {
 149:.\main.c      ****             // Treat the last message received and echo it back on the CAN bus as an acknowledgemen
 150:.\main.c      ****             CAN_MSG msgToTreat = getReceivedMessage(); 
 364              		.loc 1 150 0
 365 0094 3B46     		mov	r3, r7
 366 0096 1846     		mov	r0, r3
 367 0098 FFF7FEFF 		bl	getReceivedMessage
 151:.\main.c      ****             uint8 answer = treatMessage(&msgToTreat);
 368              		.loc 1 151 0
 369 009c 3B46     		mov	r3, r7
 370 009e 1846     		mov	r0, r3
 371 00a0 FFF7FEFF 		bl	treatMessage
 372 00a4 0346     		mov	r3, r0
 373 00a6 BB74     		strb	r3, [r7, #18]
 374              	.L5:
 375              	.LBE2:
 152:.\main.c      ****         }
 153:.\main.c      ****         
 154:.\main.c      ****         /* Place your application code here. */
 155:.\main.c      ****         if(newTurbidoData)
 376              		.loc 1 155 0
 377 00a8 194B     		ldr	r3, .L8+8
 378 00aa 1B68     		ldr	r3, [r3]
 379 00ac 002B     		cmp	r3, #0
 380 00ae 23D0     		beq	.L6
 156:.\main.c      ****         {            
 157:.\main.c      ****             //simulation de la reception d'un echantillons
 158:.\main.c      ****             buffer[turbido_index] = ADC_TURBIDO_CountsTo_Volts(result);
 381              		.loc 1 158 0
 382 00b0 184B     		ldr	r3, .L8+12
 383 00b2 1C68     		ldr	r4, [r3]
 384 00b4 184B     		ldr	r3, .L8+16
 385 00b6 1B88     		ldrh	r3, [r3]
 386 00b8 9BB2     		uxth	r3, r3
 387 00ba 1BB2     		sxth	r3, r3
 388 00bc 1846     		mov	r0, r3
 389 00be FFF7FEFF 		bl	ADC_TURBIDO_CountsTo_Volts
 390 00c2 0246     		mov	r2, r0
 391 00c4 154B     		ldr	r3, .L8+20
 392 00c6 43F82420 		str	r2, [r3, r4, lsl #2]	@ float
 159:.\main.c      ****             newTurbidoData = 0;
 393              		.loc 1 159 0
 394 00ca 114B     		ldr	r3, .L8+8
 395 00cc 0022     		movs	r2, #0
ARM GAS  C:\Users\plod1602\AppData\Local\Temp\ccJMfzF4.s 			page 11


 396 00ce 1A60     		str	r2, [r3]
 160:.\main.c      ****             meanTurbido(turbido_index, &compteur,&accumulateur, buffer, mean2);
 397              		.loc 1 160 0
 398 00d0 104B     		ldr	r3, .L8+12
 399 00d2 1B68     		ldr	r3, [r3]
 400 00d4 124A     		ldr	r2, .L8+24
 401 00d6 0092     		str	r2, [sp]
 402 00d8 1846     		mov	r0, r3
 403 00da 1249     		ldr	r1, .L8+28
 404 00dc 124A     		ldr	r2, .L8+32
 405 00de 0F4B     		ldr	r3, .L8+20
 406 00e0 FFF7FEFF 		bl	meanTurbido
 161:.\main.c      ****             turbido_index = getBufferIndex(turbido_index, 1, 200);
 407              		.loc 1 161 0
 408 00e4 0B4B     		ldr	r3, .L8+12
 409 00e6 1B68     		ldr	r3, [r3]
 410 00e8 1846     		mov	r0, r3
 411 00ea 0121     		movs	r1, #1
 412 00ec C822     		movs	r2, #200
 413 00ee FFF7FEFF 		bl	getBufferIndex
 414 00f2 0246     		mov	r2, r0
 415 00f4 074B     		ldr	r3, .L8+12
 416 00f6 1A60     		str	r2, [r3]
 417              	.L6:
 162:.\main.c      ****         }
 163:.\main.c      ****         
 164:.\main.c      ****         // Update the peltier outputs depending on the current mode of temperature maintain.
 165:.\main.c      ****         updatePeltierOutput(&SM1);//, getThermistorTemp(SubModule1_ID));
 418              		.loc 1 165 0
 419 00f8 0348     		ldr	r0, .L8
 420 00fa FFF7FEFF 		bl	updatePeltierOutput
 166:.\main.c      ****         updatePeltierOutput(&SM2);//, getThermistorTemp(SubModule2_ID));       
 421              		.loc 1 166 0
 422 00fe 0B48     		ldr	r0, .L8+36
 423 0100 FFF7FEFF 		bl	updatePeltierOutput
 167:.\main.c      ****     }
 424              		.loc 1 167 0
 425 0104 C2E7     		b	.L7
 426              	.L9:
 427 0106 00BF     		.align	2
 428              	.L8:
 429 0108 00000000 		.word	SM1
 430 010c 00000000 		.word	messageToBeTreatedCount
 431 0110 00000000 		.word	newTurbidoData
 432 0114 00000000 		.word	turbido_index
 433 0118 00000000 		.word	result
 434 011c 00000000 		.word	buffer
 435 0120 00000000 		.word	mean2
 436 0124 00000000 		.word	compteur
 437 0128 00000000 		.word	accumulateur
 438 012c 00000000 		.word	SM2
 439              		.cfi_endproc
 440              	.LFE57:
 441              		.size	main, .-main
 442              		.section	.text.initTACModule,"ax",%progbits
 443              		.align	2
 444              		.global	initTACModule
ARM GAS  C:\Users\plod1602\AppData\Local\Temp\ccJMfzF4.s 			page 12


 445              		.thumb
 446              		.thumb_func
 447              		.type	initTACModule, %function
 448              	initTACModule:
 449              	.LFB58:
 168:.\main.c      ****     
 169:.\main.c      ****     // Control loop for temperature maintain :
 170:.\main.c      ****     /*
 171:.\main.c      ****     for(;;)
 172:.\main.c      ****     {  
 173:.\main.c      ****         // Retrieve temperature from thermistor reading
 174:.\main.c      ****         iTemp = getThermistorTemp();        
 175:.\main.c      ****         
 176:.\main.c      ****         // TODO : Remove the following sequence when not in tests.
 177:.\main.c      ****         if(firstRoundFlag == 1)
 178:.\main.c      ****         {
 179:.\main.c      ****             lastTemp = iTemp;
 180:.\main.c      ****             firstRoundFlag = 0; // sets the global flag to indicate that next temp reading should b
 181:.\main.c      ****         }
 182:.\main.c      ****         else
 183:.\main.c      ****         {
 184:.\main.c      ****             if(iTemp > lastTemp)
 185:.\main.c      ****             {
 186:.\main.c      ****                 deltatTemp = iTemp - lastTemp;
 187:.\main.c      ****             }
 188:.\main.c      ****             else
 189:.\main.c      ****             {
 190:.\main.c      ****                 deltatTemp = lastTemp - iTemp;
 191:.\main.c      ****             }
 192:.\main.c      ****             
 193:.\main.c      ****             if(deltatTemp <= MAX_DELTA_TEMP)
 194:.\main.c      ****             {
 195:.\main.c      ****                 tempCounter++;        
 196:.\main.c      ****                 tempSum += iTemp;  // Sums the temp readings for printing to serial port every x se
 197:.\main.c      ****                 avgTemp = tempSum/tempCounter;
 198:.\main.c      ****                 lastTemp = iTemp;
 199:.\main.c      ****                 
 200:.\main.c      ****                 if(tempCounter%4 == 0)  // Prend le nombre d'échantillons voulus, soit 4 pour fair
 201:.\main.c      ****                 {
 202:.\main.c      ****                     controlTemperature(avgTemp);
 203:.\main.c      ****                     sendDebugTemperature(avgTemp);
 204:.\main.c      ****                     //sendDebugTemperature(INITIAL_TARGET_TEMPERATURE*1000, DEBUG);
 205:.\main.c      ****                     
 206:.\main.c      ****                     avgTemp = 0;
 207:.\main.c      ****                     tempSum=0;
 208:.\main.c      ****                     tempCounter = 0;
 209:.\main.c      ****                 }  
 210:.\main.c      ****             }            
 211:.\main.c      ****         }             
 212:.\main.c      ****         CyDelay(25);       
 213:.\main.c      ****     }*/
 214:.\main.c      **** }
 215:.\main.c      **** /*===========================================================================*/
 216:.\main.c      **** // definition
 217:.\main.c      **** /*===========================================================================*/
 218:.\main.c      **** void initTACModule()
 219:.\main.c      **** {
ARM GAS  C:\Users\plod1602\AppData\Local\Temp\ccJMfzF4.s 			page 13


 450              		.loc 1 219 0
 451              		.cfi_startproc
 452              		@ args = 0, pretend = 0, frame = 0
 453              		@ frame_needed = 1, uses_anonymous_args = 0
 454 0000 80B5     		push	{r7, lr}
 455              		.cfi_def_cfa_offset 8
 456              		.cfi_offset 7, -8
 457              		.cfi_offset 14, -4
 458 0002 00AF     		add	r7, sp, #0
 459              		.cfi_def_cfa_register 7
 220:.\main.c      ****    /*Start all the hardware components required*/
 221:.\main.c      **** 	ADC_Start();    // Convertisseur analogique-numérique
 460              		.loc 1 221 0
 461 0004 FFF7FEFF 		bl	ADC_Start
 222:.\main.c      **** 	AMux_Start();   // Utilisé pour déterminer l'entrée choisie pour l'ADC  
 462              		.loc 1 222 0
 463 0008 FFF7FEFF 		bl	AMux_Start
 223:.\main.c      ****     
 224:.\main.c      ****    
 225:.\main.c      ****     /* Start ADC, AMux, OpAmp components */
 226:.\main.c      ****     Peltier1_PWM_Ctrl_Start();
 464              		.loc 1 226 0
 465 000c FFF7FEFF 		bl	Peltier1_PWM_Ctrl_Start
 227:.\main.c      ****     Peltier2_PWM_Ctrl_Start();
 466              		.loc 1 227 0
 467 0010 FFF7FEFF 		bl	Peltier2_PWM_Ctrl_Start
 228:.\main.c      ****     
 229:.\main.c      ****     // Make sure both Peltier "Enable" signal are set to 0.
 230:.\main.c      ****     changePeltierModuleState(0,1);
 468              		.loc 1 230 0
 469 0014 0020     		movs	r0, #0
 470 0016 0121     		movs	r1, #1
 471 0018 FFF7FEFF 		bl	changePeltierModuleState
 231:.\main.c      ****     changePeltierModuleState(0,2);
 472              		.loc 1 231 0
 473 001c 0020     		movs	r0, #0
 474 001e 0221     		movs	r1, #2
 475 0020 FFF7FEFF 		bl	changePeltierModuleState
 232:.\main.c      ****     
 233:.\main.c      ****     // Initializing fan and motor pwm
 234:.\main.c      ****     pwmAgitator_1_Start();
 476              		.loc 1 234 0
 477 0024 FFF7FEFF 		bl	pwmAgitator_1_Start
 235:.\main.c      ****     pwmAgitator_2_Start();
 478              		.loc 1 235 0
 479 0028 FFF7FEFF 		bl	pwmAgitator_2_Start
 236:.\main.c      ****     pwmFan_1_Start();
 480              		.loc 1 236 0
 481 002c FFF7FEFF 		bl	pwmFan_1_Start
 237:.\main.c      ****     pwmFan_2_Start();
 482              		.loc 1 237 0
 483 0030 FFF7FEFF 		bl	pwmFan_2_Start
 238:.\main.c      ****     
 239:.\main.c      ****     // Initializing required components for CAN communication
 240:.\main.c      ****     CAN_1_Start();
 484              		.loc 1 240 0
 485 0034 FFF7FEFF 		bl	CAN_1_Start
ARM GAS  C:\Users\plod1602\AppData\Local\Temp\ccJMfzF4.s 			page 14


 241:.\main.c      ****     CAN_1_GlobalIntEnable();
 486              		.loc 1 241 0
 487 0038 FFF7FEFF 		bl	CAN_1_GlobalIntEnable
 242:.\main.c      ****     CAN_Standby_Write(0);
 488              		.loc 1 242 0
 489 003c 0020     		movs	r0, #0
 490 003e FFF7FEFF 		bl	CAN_Standby_Write
 243:.\main.c      ****     
 244:.\main.c      ****     // Initializing required components for Turbidity reading.
 245:.\main.c      ****     TurbidoISR_StartEx(InterruptHandler);
 491              		.loc 1 245 0
 492 0042 0448     		ldr	r0, .L11
 493 0044 FFF7FEFF 		bl	TurbidoISR_StartEx
 246:.\main.c      ****     ADC_TURBIDO_Start();
 494              		.loc 1 246 0
 495 0048 FFF7FEFF 		bl	ADC_TURBIDO_Start
 247:.\main.c      ****     ClockTurbido_Start();
 496              		.loc 1 247 0
 497 004c FFF7FEFF 		bl	ClockTurbido_Start
 248:.\main.c      ****     
 249:.\main.c      ****     CyGlobalIntEnable;      /* Uncomment this line to enable global interrupts. */    
 498              		.loc 1 249 0
 499              	@ 249 ".\main.c" 1
 500 0050 62B6     		CPSIE   i
 501              	@ 0 "" 2
 250:.\main.c      ****     // **** THIS LINE MUST BE UNDER GLOBAL INTERRUPT ENABLE!!! ****
 251:.\main.c      ****     //    initCommunication();
 252:.\main.c      ****     
 253:.\main.c      ****     // InitTimer();      // TODO: Activate if Demo'ing -- Used to change target temp after x second
 254:.\main.c      ****     
 255:.\main.c      **** }
 502              		.loc 1 255 0
 503              		.thumb
 504 0052 80BD     		pop	{r7, pc}
 505              	.L12:
 506              		.align	2
 507              	.L11:
 508 0054 00000000 		.word	InterruptHandler
 509              		.cfi_endproc
 510              	.LFE58:
 511              		.size	initTACModule, .-initTACModule
 512              		.section	.text.treatMessage,"ax",%progbits
 513              		.align	2
 514              		.global	treatMessage
 515              		.thumb
 516              		.thumb_func
 517              		.type	treatMessage, %function
 518              	treatMessage:
 519              	.LFB59:
 256:.\main.c      **** 
 257:.\main.c      **** //TODO: -Implement the switch for each instruction -> DONE
 258:.\main.c      **** //      -Implement function for each intructions
 259:.\main.c      **** //      -Implement changing of the message
 260:.\main.c      **** //      -Send back the correct message to the master with the required value.
 261:.\main.c      **** // This function is used to make the message that is send back to the PC and 
 262:.\main.c      **** // send it as well as echoing the received message 
 263:.\main.c      **** uint8 treatMessage(CAN_MSG* msgToTreatPtr)
ARM GAS  C:\Users\plod1602\AppData\Local\Temp\ccJMfzF4.s 			page 15


 264:.\main.c      **** { 
 520              		.loc 1 264 0
 521              		.cfi_startproc
 522              		@ args = 0, pretend = 0, frame = 64
 523              		@ frame_needed = 1, uses_anonymous_args = 0
 524 0000 80B5     		push	{r7, lr}
 525              		.cfi_def_cfa_offset 8
 526              		.cfi_offset 7, -8
 527              		.cfi_offset 14, -4
 528 0002 90B0     		sub	sp, sp, #64
 529              		.cfi_def_cfa_offset 72
 530 0004 00AF     		add	r7, sp, #0
 531              		.cfi_def_cfa_register 7
 532 0006 7860     		str	r0, [r7, #4]
 265:.\main.c      ****     // Load basic information from the message being treated.
 266:.\main.c      ****     uint8 device_id = msgToTreatPtr->msgBytes.byte[INDEX_DEVICE_ID_BYTE];
 533              		.loc 1 266 0
 534 0008 7B68     		ldr	r3, [r7, #4]
 535 000a 1B78     		ldrb	r3, [r3]
 536 000c 87F83A30 		strb	r3, [r7, #58]
 267:.\main.c      ****     uint8 subModuleNumber = msgToTreatPtr->msgBytes.byte[INDEX_SUBMODULE_NUMBER_BYTE];
 537              		.loc 1 267 0
 538 0010 7B68     		ldr	r3, [r7, #4]
 539 0012 5B78     		ldrb	r3, [r3, #1]
 540 0014 87F83930 		strb	r3, [r7, #57]
 268:.\main.c      ****     uint8 instruction = msgToTreatPtr->msgBytes.byte[INDEX_INSTRUCTION_BYTE];
 541              		.loc 1 268 0
 542 0018 7B68     		ldr	r3, [r7, #4]
 543 001a 9B78     		ldrb	r3, [r3, #2]
 544 001c 87F83830 		strb	r3, [r7, #56]
 269:.\main.c      ****     
 270:.\main.c      ****     // Verify if the message is for our device or not. - THIS DEVICE ID WILL HAVE TO BE ALLOCATED B
 271:.\main.c      ****     // WHEN IT WILL BE CONNECTED FOR THE FIRST TIME ON THE PLATFORM.
 272:.\main.c      ****     if(device_id!=DEVICE_ID)
 545              		.loc 1 272 0
 546 0020 97F83A30 		ldrb	r3, [r7, #58]	@ zero_extendqisi2
 547 0024 002B     		cmp	r3, #0
 548 0026 01D0     		beq	.L14
 273:.\main.c      ****     {
 274:.\main.c      ****         return 1;
 549              		.loc 1 274 0
 550 0028 0123     		movs	r3, #1
 551 002a 8CE1     		b	.L49
 552              	.L14:
 275:.\main.c      ****     }
 276:.\main.c      ****     
 277:.\main.c      ****     Tac_Submodule* targetedTacPtr;
 278:.\main.c      ****     if (subModuleNumber == SubModule1_ID)
 553              		.loc 1 278 0
 554 002c 97F83930 		ldrb	r3, [r7, #57]	@ zero_extendqisi2
 555 0030 012B     		cmp	r3, #1
 556 0032 02D1     		bne	.L16
 279:.\main.c      ****     {
 280:.\main.c      ****         targetedTacPtr = &SM1;
 557              		.loc 1 280 0
 558 0034 B64B     		ldr	r3, .L51
 559 0036 FB63     		str	r3, [r7, #60]
ARM GAS  C:\Users\plod1602\AppData\Local\Temp\ccJMfzF4.s 			page 16


 560 0038 05E0     		b	.L17
 561              	.L16:
 281:.\main.c      ****     }
 282:.\main.c      ****     else if (subModuleNumber == SubModule2_ID)
 562              		.loc 1 282 0
 563 003a 97F83930 		ldrb	r3, [r7, #57]	@ zero_extendqisi2
 564 003e 022B     		cmp	r3, #2
 565 0040 01D1     		bne	.L17
 283:.\main.c      ****     {
 284:.\main.c      ****         targetedTacPtr = &SM2;
 566              		.loc 1 284 0
 567 0042 B44B     		ldr	r3, .L51+4
 568 0044 FB63     		str	r3, [r7, #60]
 569              	.L17:
 285:.\main.c      ****     }
 286:.\main.c      ****     
 287:.\main.c      ****     // Echo back the command that was received
 288:.\main.c      ****     echoBackToMaster(msgToTreatPtr);
 570              		.loc 1 288 0
 571 0046 7868     		ldr	r0, [r7, #4]
 572 0048 FFF7FEFF 		bl	echoBackToMaster
 289:.\main.c      ****     
 290:.\main.c      ****     uint8 isReplyWithValueRequired = 0;
 573              		.loc 1 290 0
 574 004c 0023     		movs	r3, #0
 575 004e 87F83B30 		strb	r3, [r7, #59]
 291:.\main.c      ****     //CAN_MSG msgToSendBack = {{id,instruction,subModuleNumber,0,0,0,0,0},{8},{MASTER_ID}}; // Sets
 292:.\main.c      ****     // TODO : Put back the MASTER_ID instead of 0xF9
 293:.\main.c      ****     CAN_MSG msgToSendBack = {{device_id,subModuleNumber,instruction,0,0,0,0,0},{8},{0xF9}}; // Sets
 576              		.loc 1 293 0
 577 0052 97F83A30 		ldrb	r3, [r7, #58]
 578 0056 3B74     		strb	r3, [r7, #16]
 579 0058 97F83930 		ldrb	r3, [r7, #57]
 580 005c 7B74     		strb	r3, [r7, #17]
 581 005e 97F83830 		ldrb	r3, [r7, #56]
 582 0062 BB74     		strb	r3, [r7, #18]
 583 0064 0023     		movs	r3, #0
 584 0066 FB74     		strb	r3, [r7, #19]
 585 0068 0023     		movs	r3, #0
 586 006a 3B75     		strb	r3, [r7, #20]
 587 006c 0023     		movs	r3, #0
 588 006e 7B75     		strb	r3, [r7, #21]
 589 0070 0023     		movs	r3, #0
 590 0072 BB75     		strb	r3, [r7, #22]
 591 0074 0023     		movs	r3, #0
 592 0076 FB75     		strb	r3, [r7, #23]
 593 0078 0823     		movs	r3, #8
 594 007a 3B76     		strb	r3, [r7, #24]
 595 007c F923     		movs	r3, #249
 596 007e FB61     		str	r3, [r7, #28]
 294:.\main.c      ****     
 295:.\main.c      ****     //changeFanSpeed    
 296:.\main.c      ****     switch (instruction) 
 597              		.loc 1 296 0
 598 0080 97F83830 		ldrb	r3, [r7, #56]	@ zero_extendqisi2
 599 0084 102B     		cmp	r3, #16
 600 0086 00F25181 		bhi	.L50
ARM GAS  C:\Users\plod1602\AppData\Local\Temp\ccJMfzF4.s 			page 17


 601 008a 01A2     		adr	r2, .L20
 602 008c 52F823F0 		ldr	pc, [r2, r3, lsl #2]
 603              		.p2align 2
 604              	.L20:
 605 0090 D5000000 		.word	.L19+1
 606 0094 2B010000 		.word	.L21+1
 607 0098 45010000 		.word	.L22+1
 608 009c 5F010000 		.word	.L23+1
 609 00a0 2D030000 		.word	.L50+1
 610 00a4 C9010000 		.word	.L25+1
 611 00a8 2D030000 		.word	.L50+1
 612 00ac 53020000 		.word	.L27+1
 613 00b0 61020000 		.word	.L28+1
 614 00b4 6F020000 		.word	.L29+1
 615 00b8 7D020000 		.word	.L30+1
 616 00bc 8B020000 		.word	.L31+1
 617 00c0 99020000 		.word	.L32+1
 618 00c4 A7020000 		.word	.L33+1
 619 00c8 C5020000 		.word	.L34+1
 620 00cc EB020000 		.word	.L35+1
 621 00d0 09030000 		.word	.L36+1
 622              		.p2align 1
 623              	.L19:
 624              	.LBB3:
 297:.\main.c      ****     {
 298:.\main.c      ****         // TODO : Complete this section.        
 299:.\main.c      ****         case SET_TARGET_TEMPERATURE:
 300:.\main.c      ****         {            
 301:.\main.c      ****             // The bytes 4 and 5 contains the target temperature at which the sub module should sta
 302:.\main.c      ****             int16 tempTargetTemperature;            
 303:.\main.c      ****             volatile const uint8* array1 = (volatile uint8 *) &msgToTreatPtr->msgBytes.byte[INDEX_D
 625              		.loc 1 303 0
 626 00d4 7B68     		ldr	r3, [r7, #4]
 627 00d6 0433     		adds	r3, r3, #4
 628 00d8 7B63     		str	r3, [r7, #52]
 304:.\main.c      ****             tempTargetTemperature = (int16)((array1[1] << 8) | (array1[0]));            
 629              		.loc 1 304 0
 630 00da 7B6B     		ldr	r3, [r7, #52]
 631 00dc 0133     		adds	r3, r3, #1
 632 00de 1B78     		ldrb	r3, [r3]
 633 00e0 DBB2     		uxtb	r3, r3
 634 00e2 1B02     		lsls	r3, r3, #8
 635 00e4 9AB2     		uxth	r2, r3
 636 00e6 7B6B     		ldr	r3, [r7, #52]
 637 00e8 1B78     		ldrb	r3, [r3]
 638 00ea DBB2     		uxtb	r3, r3
 639 00ec 1343     		orrs	r3, r3, r2
 640 00ee 7B86     		strh	r3, [r7, #50]	@ movhi
 305:.\main.c      ****             // Create a function to set the target temperature for the given sub module.
 306:.\main.c      ****             if(subModuleNumber == SubModule1_ID)
 641              		.loc 1 306 0
 642 00f0 97F83930 		ldrb	r3, [r7, #57]	@ zero_extendqisi2
 643 00f4 012B     		cmp	r3, #1
 644 00f6 09D1     		bne	.L37
 307:.\main.c      ****             {
 308:.\main.c      ****                 SM1_targetTemperature = tempTargetTemperature;
 645              		.loc 1 308 0
ARM GAS  C:\Users\plod1602\AppData\Local\Temp\ccJMfzF4.s 			page 18


 646 00f8 874B     		ldr	r3, .L51+8
 647 00fa 7A8E     		ldrh	r2, [r7, #50]	@ movhi
 648 00fc 1A80     		strh	r2, [r3]	@ movhi
 309:.\main.c      ****                 SM1.targetTemperature = tempTargetTemperature; // Loading the info into the structu
 649              		.loc 1 309 0
 650 00fe 844B     		ldr	r3, .L51
 651 0100 7A8E     		ldrh	r2, [r7, #50]	@ movhi
 652 0102 DA80     		strh	r2, [r3, #6]	@ movhi
 310:.\main.c      ****                 SM1.pwmValueFromCalibration = OutDated;
 653              		.loc 1 310 0
 654 0104 824B     		ldr	r3, .L51
 655 0106 0022     		movs	r2, #0
 656 0108 5A74     		strb	r2, [r3, #17]
 657 010a 0DE0     		b	.L38
 658              	.L37:
 311:.\main.c      ****             }
 312:.\main.c      ****             else if(subModuleNumber == SubModule2_ID)
 659              		.loc 1 312 0
 660 010c 97F83930 		ldrb	r3, [r7, #57]	@ zero_extendqisi2
 661 0110 022B     		cmp	r3, #2
 662 0112 09D1     		bne	.L38
 313:.\main.c      ****             {
 314:.\main.c      ****                 SM2_targetTemperature = tempTargetTemperature;
 663              		.loc 1 314 0
 664 0114 814B     		ldr	r3, .L51+12
 665 0116 7A8E     		ldrh	r2, [r7, #50]	@ movhi
 666 0118 1A80     		strh	r2, [r3]	@ movhi
 315:.\main.c      ****                 SM2.targetTemperature = tempTargetTemperature; // Loading the info into the structu
 667              		.loc 1 315 0
 668 011a 7E4B     		ldr	r3, .L51+4
 669 011c 7A8E     		ldrh	r2, [r7, #50]	@ movhi
 670 011e DA80     		strh	r2, [r3, #6]	@ movhi
 316:.\main.c      ****                 SM2.pwmValueFromCalibration = OutDated;
 671              		.loc 1 316 0
 672 0120 7C4B     		ldr	r3, .L51+4
 673 0122 0022     		movs	r2, #0
 674 0124 5A74     		strb	r2, [r3, #17]
 317:.\main.c      ****             }
 318:.\main.c      ****             break;
 675              		.loc 1 318 0
 676 0126 02E1     		b	.L39
 677              	.L38:
 678 0128 01E1     		b	.L39
 679              	.L21:
 680              	.LBE3:
 681              	.LBB4:
 319:.\main.c      ****         }
 320:.\main.c      ****         case SET_AGITATOR_SPEED: // To be verified.
 321:.\main.c      ****         {           
 322:.\main.c      ****             // The fifth byte contains the percentage at which the agitator must be set.
 323:.\main.c      ****             uint8 agitatorPercentageValue = msgToTreatPtr->msgBytes.byte[INDEX_DATABYTE1];
 682              		.loc 1 323 0
 683 012a 7B68     		ldr	r3, [r7, #4]
 684 012c 1B79     		ldrb	r3, [r3, #4]
 685 012e 87F83130 		strb	r3, [r7, #49]
 324:.\main.c      ****             changeAgitatorSpeed(agitatorPercentageValue,subModuleNumber);            
 686              		.loc 1 324 0
ARM GAS  C:\Users\plod1602\AppData\Local\Temp\ccJMfzF4.s 			page 19


 687 0132 97F83120 		ldrb	r2, [r7, #49]	@ zero_extendqisi2
 688 0136 97F83930 		ldrb	r3, [r7, #57]	@ zero_extendqisi2
 689 013a 1046     		mov	r0, r2
 690 013c 1946     		mov	r1, r3
 691 013e FFF7FEFF 		bl	changeAgitatorSpeed
 325:.\main.c      ****             break;
 692              		.loc 1 325 0
 693 0142 F4E0     		b	.L39
 694              	.L22:
 695              	.LBE4:
 696              	.LBB5:
 326:.\main.c      ****         }
 327:.\main.c      ****         case SET_FAN_SPEED: // To be verified.
 328:.\main.c      ****         {
 329:.\main.c      ****             // The fifth byte contains the percentage at which the fan must be set.            
 330:.\main.c      ****             uint8 fanPercentageValue = msgToTreatPtr->msgBytes.byte[INDEX_DATABYTE1];
 697              		.loc 1 330 0
 698 0144 7B68     		ldr	r3, [r7, #4]
 699 0146 1B79     		ldrb	r3, [r3, #4]
 700 0148 87F83030 		strb	r3, [r7, #48]
 331:.\main.c      ****             changeFanSpeed(fanPercentageValue,subModuleNumber);
 701              		.loc 1 331 0
 702 014c 97F83020 		ldrb	r2, [r7, #48]	@ zero_extendqisi2
 703 0150 97F83930 		ldrb	r3, [r7, #57]	@ zero_extendqisi2
 704 0154 1046     		mov	r0, r2
 705 0156 1946     		mov	r1, r3
 706 0158 FFF7FEFF 		bl	changeFanSpeed
 332:.\main.c      ****             break;
 707              		.loc 1 332 0
 708 015c E7E0     		b	.L39
 709              	.L23:
 710              	.LBE5:
 333:.\main.c      ****         }
 334:.\main.c      ****         case START_CALIBRATION: // To be verified
 335:.\main.c      ****         {  
 336:.\main.c      ****             if (targetedTacPtr->calibratingStatus == NotCalibrating)
 711              		.loc 1 336 0
 712 015e FB6B     		ldr	r3, [r7, #60]
 713 0160 93F82130 		ldrb	r3, [r3, #33]	@ zero_extendqisi2
 714 0164 002B     		cmp	r3, #0
 715 0166 2ED1     		bne	.L40
 716              	.LBB6:
 337:.\main.c      ****             {
 338:.\main.c      ****                 STOP_CALIBRATION_FLAG = 0;
 717              		.loc 1 338 0
 718 0168 6D4B     		ldr	r3, .L51+16
 719 016a 0022     		movs	r2, #0
 720 016c 1A70     		strb	r2, [r3]
 339:.\main.c      ****                 targetedTacPtr->calibratingStatus = Calibrating;
 721              		.loc 1 339 0
 722 016e FB6B     		ldr	r3, [r7, #60]
 723 0170 0122     		movs	r2, #1
 724 0172 83F82120 		strb	r2, [r3, #33]
 340:.\main.c      ****                 // Retrieve maximum target temperature which should be found in bytes 5 and 6.
 341:.\main.c      ****                 int16 maxTargetTemp;            
 342:.\main.c      ****                 volatile const uint8* array1 = (volatile uint8 *) &msgToTreatPtr->msgBytes.byte[IND
 725              		.loc 1 342 0
ARM GAS  C:\Users\plod1602\AppData\Local\Temp\ccJMfzF4.s 			page 20


 726 0176 7B68     		ldr	r3, [r7, #4]
 727 0178 0433     		adds	r3, r3, #4
 728 017a FB62     		str	r3, [r7, #44]
 343:.\main.c      ****                 maxTargetTemp = (int16)((array1[1] << 8) | (array1[0]));
 729              		.loc 1 343 0
 730 017c FB6A     		ldr	r3, [r7, #44]
 731 017e 0133     		adds	r3, r3, #1
 732 0180 1B78     		ldrb	r3, [r3]
 733 0182 DBB2     		uxtb	r3, r3
 734 0184 1B02     		lsls	r3, r3, #8
 735 0186 9AB2     		uxth	r2, r3
 736 0188 FB6A     		ldr	r3, [r7, #44]
 737 018a 1B78     		ldrb	r3, [r3]
 738 018c DBB2     		uxtb	r3, r3
 739 018e 1343     		orrs	r3, r3, r2
 740 0190 7B85     		strh	r3, [r7, #42]	@ movhi
 344:.\main.c      ****                 uint8 answerValue = calibration((int)maxTargetTemp, subModuleNumber);
 741              		.loc 1 344 0
 742 0192 B7F92A20 		ldrsh	r2, [r7, #42]
 743 0196 97F83930 		ldrb	r3, [r7, #57]	@ zero_extendqisi2
 744 019a 1046     		mov	r0, r2
 745 019c 1946     		mov	r1, r3
 746 019e FFF7FEFF 		bl	calibration
 747 01a2 0346     		mov	r3, r0
 748 01a4 87F82930 		strb	r3, [r7, #41]
 345:.\main.c      ****                 // if the calibration was stopped, we send back the information to the master.
 346:.\main.c      ****                 if (answerValue == CALIBRATION_STOPPED || answerValue == CALIBRATION_SUCCEEDED)
 749              		.loc 1 346 0
 750 01a8 97F82930 		ldrb	r3, [r7, #41]	@ zero_extendqisi2
 751 01ac 132B     		cmp	r3, #19
 752 01ae 03D0     		beq	.L41
 753              		.loc 1 346 0 is_stmt 0 discriminator 1
 754 01b0 97F82930 		ldrb	r3, [r7, #41]	@ zero_extendqisi2
 755 01b4 142B     		cmp	r3, #20
 756 01b6 06D1     		bne	.L40
 757              	.L41:
 347:.\main.c      ****                 {
 348:.\main.c      ****                     msgToSendBack.msgBytes.byte[INDEX_DATABYTE1] = answerValue;
 758              		.loc 1 348 0 is_stmt 1
 759 01b8 97F82930 		ldrb	r3, [r7, #41]
 760 01bc 3B75     		strb	r3, [r7, #20]
 349:.\main.c      ****                     isReplyWithValueRequired = 1;
 761              		.loc 1 349 0
 762 01be 0123     		movs	r3, #1
 763 01c0 87F83B30 		strb	r3, [r7, #59]
 764              	.LBE6:
 350:.\main.c      ****                 }                
 351:.\main.c      ****             }
 352:.\main.c      ****             break;
 765              		.loc 1 352 0
 766 01c4 B3E0     		b	.L39
 767              	.L40:
 768 01c6 B2E0     		b	.L39
 769              	.L25:
 353:.\main.c      ****         }
 354:.\main.c      ****         case STOP_CALIBRATION: // SHOULD NEVER HAPPEN AS THIS IS TREATED DIRECTLY IN THE INTERRUPT.
 355:.\main.c      ****         {
ARM GAS  C:\Users\plod1602\AppData\Local\Temp\ccJMfzF4.s 			page 21


 356:.\main.c      ****             break;
 357:.\main.c      ****         }
 358:.\main.c      ****         case START_TEMPERATURE_MAINTAIN:
 359:.\main.c      ****         {
 360:.\main.c      ****             // We update the temperature mode of the required submodule and we update 
 361:.\main.c      ****             // the desired PwmValue to reach the target from the calibration table.
 362:.\main.c      ****             if (subModuleNumber == SubModule1_ID)
 770              		.loc 1 362 0
 771 01c8 97F83930 		ldrb	r3, [r7, #57]	@ zero_extendqisi2
 772 01cc 012B     		cmp	r3, #1
 773 01ce 1DD1     		bne	.L42
 363:.\main.c      ****             {
 364:.\main.c      ****                 if(SM1.currentTemperature < SM1.targetTemperature)
 774              		.loc 1 364 0
 775 01d0 4F4B     		ldr	r3, .L51
 776 01d2 1A89     		ldrh	r2, [r3, #8]
 777 01d4 4E4B     		ldr	r3, .L51
 778 01d6 DB88     		ldrh	r3, [r3, #6]
 779 01d8 12B2     		sxth	r2, r2
 780 01da 1BB2     		sxth	r3, r3
 781 01dc 9A42     		cmp	r2, r3
 782 01de 03DA     		bge	.L43
 365:.\main.c      ****                 {
 366:.\main.c      ****                     SM1.temperatureMode = Maintaining_heat;
 783              		.loc 1 366 0
 784 01e0 4B4B     		ldr	r3, .L51
 785 01e2 0022     		movs	r2, #0
 786 01e4 1A73     		strb	r2, [r3, #12]
 787 01e6 0AE0     		b	.L44
 788              	.L43:
 367:.\main.c      ****                 }
 368:.\main.c      ****                 else if (SM1.currentTemperature >= SM1.targetTemperature)
 789              		.loc 1 368 0
 790 01e8 494B     		ldr	r3, .L51
 791 01ea 1A89     		ldrh	r2, [r3, #8]
 792 01ec 484B     		ldr	r3, .L51
 793 01ee DB88     		ldrh	r3, [r3, #6]
 794 01f0 12B2     		sxth	r2, r2
 795 01f2 1BB2     		sxth	r3, r3
 796 01f4 9A42     		cmp	r2, r3
 797 01f6 02DB     		blt	.L44
 369:.\main.c      ****                 {
 370:.\main.c      ****                     SM1.temperatureMode = Maintaining_cool;
 798              		.loc 1 370 0
 799 01f8 454B     		ldr	r3, .L51
 800 01fa 0222     		movs	r2, #2
 801 01fc 1A73     		strb	r2, [r3, #12]
 802              	.L44:
 371:.\main.c      ****                 }
 372:.\main.c      ****                 updatePwmValueFromCalibrationTable(&SM1);
 803              		.loc 1 372 0 discriminator 1
 804 01fe 4448     		ldr	r0, .L51
 805 0200 FFF7FEFF 		bl	updatePwmValueFromCalibrationTable
 373:.\main.c      ****                 SM1_MAINTAIN_TEMPERATURE_FLAG = 1;                
 806              		.loc 1 373 0 discriminator 1
 807 0204 474B     		ldr	r3, .L51+20
 808 0206 0122     		movs	r2, #1
ARM GAS  C:\Users\plod1602\AppData\Local\Temp\ccJMfzF4.s 			page 22


 809 0208 1A70     		strb	r2, [r3]
 810 020a 21E0     		b	.L45
 811              	.L42:
 374:.\main.c      ****             }
 375:.\main.c      ****             else if (subModuleNumber == SubModule2_ID)
 812              		.loc 1 375 0
 813 020c 97F83930 		ldrb	r3, [r7, #57]	@ zero_extendqisi2
 814 0210 022B     		cmp	r3, #2
 815 0212 1DD1     		bne	.L45
 376:.\main.c      ****             {
 377:.\main.c      ****                 if(SM2.currentTemperature < SM1.targetTemperature)
 816              		.loc 1 377 0
 817 0214 3F4B     		ldr	r3, .L51+4
 818 0216 1A89     		ldrh	r2, [r3, #8]
 819 0218 3D4B     		ldr	r3, .L51
 820 021a DB88     		ldrh	r3, [r3, #6]
 821 021c 12B2     		sxth	r2, r2
 822 021e 1BB2     		sxth	r3, r3
 823 0220 9A42     		cmp	r2, r3
 824 0222 03DA     		bge	.L46
 378:.\main.c      ****                 {
 379:.\main.c      ****                     SM2.temperatureMode = Maintaining_heat;
 825              		.loc 1 379 0
 826 0224 3B4B     		ldr	r3, .L51+4
 827 0226 0022     		movs	r2, #0
 828 0228 1A73     		strb	r2, [r3, #12]
 829 022a 0AE0     		b	.L47
 830              	.L46:
 380:.\main.c      ****                 }
 381:.\main.c      ****                 else if (SM2.currentTemperature >= SM1.targetTemperature)
 831              		.loc 1 381 0
 832 022c 394B     		ldr	r3, .L51+4
 833 022e 1A89     		ldrh	r2, [r3, #8]
 834 0230 374B     		ldr	r3, .L51
 835 0232 DB88     		ldrh	r3, [r3, #6]
 836 0234 12B2     		sxth	r2, r2
 837 0236 1BB2     		sxth	r3, r3
 838 0238 9A42     		cmp	r2, r3
 839 023a 02DB     		blt	.L47
 382:.\main.c      ****                 {
 383:.\main.c      ****                     SM2.temperatureMode = Maintaining_cool;
 840              		.loc 1 383 0
 841 023c 354B     		ldr	r3, .L51+4
 842 023e 0222     		movs	r2, #2
 843 0240 1A73     		strb	r2, [r3, #12]
 844              	.L47:
 384:.\main.c      ****                 }
 385:.\main.c      ****                 updatePwmValueFromCalibrationTable(&SM2);
 845              		.loc 1 385 0
 846 0242 3448     		ldr	r0, .L51+4
 847 0244 FFF7FEFF 		bl	updatePwmValueFromCalibrationTable
 386:.\main.c      ****                 SM2_MAINTAIN_TEMPERATURE_FLAG = 1;
 848              		.loc 1 386 0
 849 0248 374B     		ldr	r3, .L51+24
 850 024a 0122     		movs	r2, #1
 851 024c 1A70     		strb	r2, [r3]
 387:.\main.c      ****             }
ARM GAS  C:\Users\plod1602\AppData\Local\Temp\ccJMfzF4.s 			page 23


 388:.\main.c      ****             break;
 852              		.loc 1 388 0
 853 024e 6EE0     		b	.L39
 854              	.L45:
 855 0250 6DE0     		b	.L39
 856              	.L27:
 389:.\main.c      ****         }
 390:.\main.c      ****         case STOP_TEMPERATURE_MAINTAIN: // SHOULD NEVER HAPPEN AS THIS IS TREATED DIRECTLY IN THE I
 391:.\main.c      ****         {         
 392:.\main.c      ****             break;
 393:.\main.c      ****         } 
 394:.\main.c      ****         case ENABLE_FAN: // To be verified
 395:.\main.c      ****         {
 396:.\main.c      ****             changeFanState(fanEnabled, subModuleNumber);
 857              		.loc 1 396 0
 858 0252 97F83930 		ldrb	r3, [r7, #57]	@ zero_extendqisi2
 859 0256 0120     		movs	r0, #1
 860 0258 1946     		mov	r1, r3
 861 025a FFF7FEFF 		bl	changeFanState
 397:.\main.c      ****             break;
 862              		.loc 1 397 0
 863 025e 66E0     		b	.L39
 864              	.L28:
 398:.\main.c      ****         }
 399:.\main.c      ****         case DISABLE_FAN: // To be verified
 400:.\main.c      ****         {
 401:.\main.c      ****             changeFanState(fanDisabled, subModuleNumber);
 865              		.loc 1 401 0
 866 0260 97F83930 		ldrb	r3, [r7, #57]	@ zero_extendqisi2
 867 0264 0020     		movs	r0, #0
 868 0266 1946     		mov	r1, r3
 869 0268 FFF7FEFF 		bl	changeFanState
 402:.\main.c      ****             break;
 870              		.loc 1 402 0
 871 026c 5FE0     		b	.L39
 872              	.L29:
 403:.\main.c      ****         }   
 404:.\main.c      ****         case ENABLE_AGITATOR: // To be verified
 405:.\main.c      ****         {
 406:.\main.c      ****             changeAgitatorState(agitatorEnabled, subModuleNumber);
 873              		.loc 1 406 0
 874 026e 97F83930 		ldrb	r3, [r7, #57]	@ zero_extendqisi2
 875 0272 0120     		movs	r0, #1
 876 0274 1946     		mov	r1, r3
 877 0276 FFF7FEFF 		bl	changeAgitatorState
 407:.\main.c      ****             break;
 878              		.loc 1 407 0
 879 027a 58E0     		b	.L39
 880              	.L30:
 408:.\main.c      ****         }
 409:.\main.c      ****         case DISABLE_AGITATOR: // To be verified
 410:.\main.c      ****         {
 411:.\main.c      ****             changeAgitatorState(agitatorDisabled, subModuleNumber);
 881              		.loc 1 411 0
 882 027c 97F83930 		ldrb	r3, [r7, #57]	@ zero_extendqisi2
 883 0280 0020     		movs	r0, #0
 884 0282 1946     		mov	r1, r3
ARM GAS  C:\Users\plod1602\AppData\Local\Temp\ccJMfzF4.s 			page 24


 885 0284 FFF7FEFF 		bl	changeAgitatorState
 412:.\main.c      ****             break;
 886              		.loc 1 412 0
 887 0288 51E0     		b	.L39
 888              	.L31:
 413:.\main.c      ****         }
 414:.\main.c      ****         case ENABLE_PELTIER: // To be verified
 415:.\main.c      ****         {
 416:.\main.c      ****             changePeltierModuleState(peltierEnabled,subModuleNumber);
 889              		.loc 1 416 0
 890 028a 97F83930 		ldrb	r3, [r7, #57]	@ zero_extendqisi2
 891 028e 0120     		movs	r0, #1
 892 0290 1946     		mov	r1, r3
 893 0292 FFF7FEFF 		bl	changePeltierModuleState
 417:.\main.c      ****             break;
 894              		.loc 1 417 0
 895 0296 4AE0     		b	.L39
 896              	.L32:
 418:.\main.c      ****         }
 419:.\main.c      ****         case DISABLE_PELTIER: // To be verified
 420:.\main.c      ****         {
 421:.\main.c      ****             changePeltierModuleState(peltierDisabled,subModuleNumber);
 897              		.loc 1 421 0
 898 0298 97F83930 		ldrb	r3, [r7, #57]	@ zero_extendqisi2
 899 029c 0020     		movs	r0, #0
 900 029e 1946     		mov	r1, r3
 901 02a0 FFF7FEFF 		bl	changePeltierModuleState
 422:.\main.c      ****             break;
 902              		.loc 1 422 0
 903 02a4 43E0     		b	.L39
 904              	.L33:
 905              	.LBB7:
 423:.\main.c      ****         }
 424:.\main.c      ****         case SEND_FAN_SPEED: // To be verified.
 425:.\main.c      ****         {
 426:.\main.c      ****             uint8 valueToSend = getFanSpeed(subModuleNumber);
 906              		.loc 1 426 0
 907 02a6 97F83930 		ldrb	r3, [r7, #57]	@ zero_extendqisi2
 908 02aa 1846     		mov	r0, r3
 909 02ac FFF7FEFF 		bl	getFanSpeed
 910 02b0 0346     		mov	r3, r0
 911 02b2 87F82830 		strb	r3, [r7, #40]
 427:.\main.c      ****             msgToSendBack.msgBytes.byte[INDEX_DATABYTE1] = valueToSend;
 912              		.loc 1 427 0
 913 02b6 97F82830 		ldrb	r3, [r7, #40]
 914 02ba 3B75     		strb	r3, [r7, #20]
 428:.\main.c      ****             isReplyWithValueRequired = 1;
 915              		.loc 1 428 0
 916 02bc 0123     		movs	r3, #1
 917 02be 87F83B30 		strb	r3, [r7, #59]
 429:.\main.c      ****             break;
 918              		.loc 1 429 0
 919 02c2 34E0     		b	.L39
 920              	.L34:
 921              	.LBE7:
 922              	.LBB8:
 430:.\main.c      ****         }
ARM GAS  C:\Users\plod1602\AppData\Local\Temp\ccJMfzF4.s 			page 25


 431:.\main.c      ****         case SEND_TEMPERATURE: // Modify to return the temperature of the desired thermistor.
 432:.\main.c      ****         {            
 433:.\main.c      ****             uint8 *tempToSend;
 434:.\main.c      ****             int16 tempResult = getThermistorTemp(1);
 923              		.loc 1 434 0
 924 02c4 0120     		movs	r0, #1
 925 02c6 FFF7FEFF 		bl	getThermistorTemp
 926 02ca 0346     		mov	r3, r0
 927 02cc FB81     		strh	r3, [r7, #14]	@ movhi
 435:.\main.c      ****             tempToSend = (uint8*)&tempResult;
 928              		.loc 1 435 0
 929 02ce 07F10E03 		add	r3, r7, #14
 930 02d2 7B62     		str	r3, [r7, #36]
 436:.\main.c      ****             msgToSendBack.msgBytes.byte[INDEX_DATABYTE1] = (uint8)tempToSend[0];
 931              		.loc 1 436 0
 932 02d4 7B6A     		ldr	r3, [r7, #36]
 933 02d6 1B78     		ldrb	r3, [r3]	@ zero_extendqisi2
 934 02d8 3B75     		strb	r3, [r7, #20]
 437:.\main.c      ****             msgToSendBack.msgBytes.byte[INDEX_DATABYTE2] = (uint8)tempToSend[1];
 935              		.loc 1 437 0
 936 02da 7B6A     		ldr	r3, [r7, #36]
 937 02dc 5B78     		ldrb	r3, [r3, #1]	@ zero_extendqisi2
 938 02de 7B75     		strb	r3, [r7, #21]
 438:.\main.c      ****             isReplyWithValueRequired = 1;
 939              		.loc 1 438 0
 940 02e0 0123     		movs	r3, #1
 941 02e2 87F83B30 		strb	r3, [r7, #59]
 439:.\main.c      ****             break;
 942              		.loc 1 439 0
 943 02e6 00BF     		nop
 944 02e8 21E0     		b	.L39
 945              	.L35:
 946              	.LBE8:
 947              	.LBB9:
 440:.\main.c      ****         }
 441:.\main.c      ****         case SEND_AGITATOR_SPEED: // To be verified.
 442:.\main.c      ****         {
 443:.\main.c      ****             uint8 valueToSend = getAgitatorSpeed(subModuleNumber);
 948              		.loc 1 443 0
 949 02ea 97F83930 		ldrb	r3, [r7, #57]	@ zero_extendqisi2
 950 02ee 1846     		mov	r0, r3
 951 02f0 FFF7FEFF 		bl	getAgitatorSpeed
 952 02f4 0346     		mov	r3, r0
 953 02f6 87F82330 		strb	r3, [r7, #35]
 444:.\main.c      ****             msgToSendBack.msgBytes.byte[INDEX_DATABYTE1] = valueToSend;
 954              		.loc 1 444 0
 955 02fa 97F82330 		ldrb	r3, [r7, #35]
 956 02fe 3B75     		strb	r3, [r7, #20]
 445:.\main.c      ****             isReplyWithValueRequired = 1;
 957              		.loc 1 445 0
 958 0300 0123     		movs	r3, #1
 959 0302 87F83B30 		strb	r3, [r7, #59]
 446:.\main.c      ****             break; 
 960              		.loc 1 446 0
 961 0306 12E0     		b	.L39
 962              	.L36:
 963              	.LBE9:
ARM GAS  C:\Users\plod1602\AppData\Local\Temp\ccJMfzF4.s 			page 26


 447:.\main.c      ****         }
 448:.\main.c      ****         case SEND_TURBIDITY:
 449:.\main.c      ****         {
 450:.\main.c      ****             // Create the function to read the turbidity of the desired module and send it back to 
 451:.\main.c      ****             isReplyWithValueRequired = 1;
 964              		.loc 1 451 0
 965 0308 0123     		movs	r3, #1
 966 030a 87F83B30 		strb	r3, [r7, #59]
 452:.\main.c      ****             break;
 967              		.loc 1 452 0
 968 030e 0EE0     		b	.L39
 969              	.L52:
 970              		.align	2
 971              	.L51:
 972 0310 00000000 		.word	SM1
 973 0314 00000000 		.word	SM2
 974 0318 00000000 		.word	SM1_targetTemperature
 975 031c 00000000 		.word	SM2_targetTemperature
 976 0320 00000000 		.word	STOP_CALIBRATION_FLAG
 977 0324 00000000 		.word	SM1_MAINTAIN_TEMPERATURE_FLAG
 978 0328 00000000 		.word	SM2_MAINTAIN_TEMPERATURE_FLAG
 979              	.L50:
 453:.\main.c      ****         }
 454:.\main.c      ****         default:          
 455:.\main.c      ****           break;
 980              		.loc 1 455 0
 981 032c 00BF     		nop
 982              	.L39:
 456:.\main.c      ****     }
 457:.\main.c      ****     // Reply to the master with bytes 0-2 exactly as the received instruction 
 458:.\main.c      ****     // and the rest of the bytes (3-7) containing the answer (values of temperature, etc) 
 459:.\main.c      ****     if (isReplyWithValueRequired==1)
 983              		.loc 1 459 0
 984 032e 97F83B30 		ldrb	r3, [r7, #59]	@ zero_extendqisi2
 985 0332 012B     		cmp	r3, #1
 986 0334 06D1     		bne	.L48
 460:.\main.c      ****     {
 461:.\main.c      ****         //sendMessage(&msgToSendBack, MASTER_ID);
 462:.\main.c      ****         sendMessage(&msgToSendBack, msgToSendBack.CAN_ID);
 987              		.loc 1 462 0
 988 0336 FB69     		ldr	r3, [r7, #28]
 989 0338 07F11002 		add	r2, r7, #16
 990 033c 1046     		mov	r0, r2
 991 033e 1946     		mov	r1, r3
 992 0340 FFF7FEFF 		bl	sendMessage
 993              	.L48:
 463:.\main.c      ****     }    
 464:.\main.c      ****     return 1;
 994              		.loc 1 464 0
 995 0344 0123     		movs	r3, #1
 996              	.L49:
 465:.\main.c      **** }
 997              		.loc 1 465 0
 998 0346 1846     		mov	r0, r3
 999 0348 4037     		adds	r7, r7, #64
 1000 034a BD46     		mov	sp, r7
 1001              		@ sp needed
ARM GAS  C:\Users\plod1602\AppData\Local\Temp\ccJMfzF4.s 			page 27


 1002 034c 80BD     		pop	{r7, pc}
 1003              		.cfi_endproc
 1004              	.LFE59:
 1005              		.size	treatMessage, .-treatMessage
 1006              		.global	__aeabi_f2iz
 1007 034e 00BF     		.section	.text.timerInterruptHandler,"ax",%progbits
 1008              		.align	2
 1009              		.global	timerInterruptHandler
 1010              		.thumb
 1011              		.thumb_func
 1012              		.type	timerInterruptHandler, %function
 1013              	timerInterruptHandler:
 1014              	.LFB60:
 466:.\main.c      **** 
 467:.\main.c      **** // TODO: Remove when not used for demo anymore
 468:.\main.c      **** CY_ISR(timerInterruptHandler)
 469:.\main.c      **** {
 1015              		.loc 1 469 0
 1016              		.cfi_startproc
 1017              		@ args = 0, pretend = 0, frame = 0
 1018              		@ frame_needed = 1, uses_anonymous_args = 0
 1019 0000 80B5     		push	{r7, lr}
 1020              		.cfi_def_cfa_offset 8
 1021              		.cfi_offset 7, -8
 1022              		.cfi_offset 14, -4
 1023 0002 00AF     		add	r7, sp, #0
 1024              		.cfi_def_cfa_register 7
 470:.\main.c      ****     sendDebugTemperature(avgTemp);
 1025              		.loc 1 470 0
 1026 0004 0C4B     		ldr	r3, .L54
 1027 0006 1B68     		ldr	r3, [r3]	@ float
 1028 0008 1846     		mov	r0, r3
 1029 000a FFF7FEFF 		bl	__aeabi_f2iz
 1030 000e 0346     		mov	r3, r0
 1031 0010 1846     		mov	r0, r3
 1032 0012 FFF7FEFF 		bl	sendDebugTemperature
 471:.\main.c      ****     
 472:.\main.c      ****     setTargetTemperature(4);
 1033              		.loc 1 472 0
 1034 0016 4FF00000 		mov	r0, #0
 1035 001a 0849     		ldr	r1, .L54+4
 1036 001c FFF7FEFF 		bl	setTargetTemperature
 473:.\main.c      ****     
 474:.\main.c      ****     changeFanSpeed(50,1);
 1037              		.loc 1 474 0
 1038 0020 3220     		movs	r0, #50
 1039 0022 0121     		movs	r1, #1
 1040 0024 FFF7FEFF 		bl	changeFanSpeed
 475:.\main.c      ****     changeAgitatorSpeed(95,1);
 1041              		.loc 1 475 0
 1042 0028 5F20     		movs	r0, #95
 1043 002a 0121     		movs	r1, #1
 1044 002c FFF7FEFF 		bl	changeAgitatorSpeed
 476:.\main.c      ****     
 477:.\main.c      ****     Timer_1_STATUS; // Clears the interrupt
 1045              		.loc 1 477 0
 1046 0030 034B     		ldr	r3, .L54+8
ARM GAS  C:\Users\plod1602\AppData\Local\Temp\ccJMfzF4.s 			page 28


 1047 0032 1B78     		ldrb	r3, [r3]
 478:.\main.c      **** }
 1048              		.loc 1 478 0
 1049 0034 80BD     		pop	{r7, pc}
 1050              	.L55:
 1051 0036 00BF     		.align	2
 1052              	.L54:
 1053 0038 00000000 		.word	avgTemp
 1054 003c 00001040 		.word	1074790400
 1055 0040 034F0040 		.word	1073762051
 1056              		.cfi_endproc
 1057              	.LFE60:
 1058              		.size	timerInterruptHandler, .-timerInterruptHandler
 1059              		.section	.text.InitTimer,"ax",%progbits
 1060              		.align	2
 1061              		.global	InitTimer
 1062              		.thumb
 1063              		.thumb_func
 1064              		.type	InitTimer, %function
 1065              	InitTimer:
 1066              	.LFB61:
 479:.\main.c      **** 
 480:.\main.c      **** //* Initialize timer and interrupt service routine*/
 481:.\main.c      **** void InitTimer()
 482:.\main.c      **** {
 1067              		.loc 1 482 0
 1068              		.cfi_startproc
 1069              		@ args = 0, pretend = 0, frame = 0
 1070              		@ frame_needed = 1, uses_anonymous_args = 0
 1071 0000 80B5     		push	{r7, lr}
 1072              		.cfi_def_cfa_offset 8
 1073              		.cfi_offset 7, -8
 1074              		.cfi_offset 14, -4
 1075 0002 00AF     		add	r7, sp, #0
 1076              		.cfi_def_cfa_register 7
 483:.\main.c      ****     //CYGlobalIntEnable;
 484:.\main.c      ****     timer1_ISR_StartEx(timerInterruptHandler);
 1077              		.loc 1 484 0
 1078 0004 0248     		ldr	r0, .L57
 1079 0006 FFF7FEFF 		bl	timer1_ISR_StartEx
 485:.\main.c      ****     
 486:.\main.c      ****     Timer_1_Start(); 
 1080              		.loc 1 486 0
 1081 000a FFF7FEFF 		bl	Timer_1_Start
 487:.\main.c      **** }
 1082              		.loc 1 487 0
 1083 000e 80BD     		pop	{r7, pc}
 1084              	.L58:
 1085              		.align	2
 1086              	.L57:
 1087 0010 00000000 		.word	timerInterruptHandler
 1088              		.cfi_endproc
 1089              	.LFE61:
 1090              		.size	InitTimer, .-InitTimer
 1091              		.text
 1092              	.Letext0:
 1093              		.file 2 "c:\\program files (x86)\\cypress\\psoc creator\\3.2\\psoc creator\\import\\gnu\\arm\\4.8.
ARM GAS  C:\Users\plod1602\AppData\Local\Temp\ccJMfzF4.s 			page 29


 1094              		.file 3 "c:\\program files (x86)\\cypress\\psoc creator\\3.2\\psoc creator\\import\\gnu\\arm\\4.8.
 1095              		.file 4 "Generated_Source\\PSoC5/cytypes.h"
 1096              		.file 5 "Generated_Source\\PSoC5/CAN_1.h"
 1097              		.file 6 ".\\CAN_Communication.h"
 1098              		.file 7 ".\\TAC_Submodule.h"
 1099              		.file 8 "Generated_Source\\PSoC5/core_cm3.h"