ARM GAS  C:\Users\plod1602\AppData\Local\Temp\cckpLv0Q.s 			page 1


   1              		.syntax unified
   2              		.cpu cortex-m3
   3              		.fpu softvfp
   4              		.eabi_attribute 20, 1
   5              		.eabi_attribute 21, 1
   6              		.eabi_attribute 23, 3
   7              		.eabi_attribute 24, 1
   8              		.eabi_attribute 25, 1
   9              		.eabi_attribute 26, 1
  10              		.eabi_attribute 30, 6
  11              		.eabi_attribute 34, 1
  12              		.eabi_attribute 18, 4
  13              		.thumb
  14              		.file	"PeltierCalibration.c"
  15              		.text
  16              	.Ltext0:
  17              		.cfi_sections	.debug_frame
  18              		.comm	targetTemp,8,8
  19              		.comm	eepromStatus,4,4
  20              		.section	.rodata
  21              		.align	2
  22              		.type	eepromArray, %object
  23              		.size	eepromArray, 500
  24              	eepromArray:
  25 0000 00000000 		.space	500
  25      00000000 
  25      00000000 
  25      00000000 
  25      00000000 
  26              		.align	2
  27              		.type	SM1eepromArray, %object
  28              		.size	SM1eepromArray, 300
  29              	SM1eepromArray:
  30 01f4 00000000 		.space	300
  30      00000000 
  30      00000000 
  30      00000000 
  30      00000000 
  31              		.align	2
  32              		.type	SM2eepromArray, %object
  33              		.size	SM2eepromArray, 300
  34              	SM2eepromArray:
  35 0320 00000000 		.space	300
  35      00000000 
  35      00000000 
  35      00000000 
  35      00000000 
  36              		.section	.text.validateEEPROM,"ax",%progbits
  37              		.align	2
  38              		.global	validateEEPROM
  39              		.thumb
  40              		.thumb_func
  41              		.type	validateEEPROM, %function
  42              	validateEEPROM:
  43              	.LFB56:
  44              		.file 1 ".\\PeltierCalibration.c"
   1:.\PeltierCalibration.c **** /* ========================================
ARM GAS  C:\Users\plod1602\AppData\Local\Temp\cckpLv0Q.s 			page 2


   2:.\PeltierCalibration.c ****  *
   3:.\PeltierCalibration.c ****  * Copyright YOUR COMPANY, THE YEAR
   4:.\PeltierCalibration.c ****  * All Rights Reserved
   5:.\PeltierCalibration.c ****  * UNPUBLISHED, LICENSED SOFTWARE.
   6:.\PeltierCalibration.c ****  *
   7:.\PeltierCalibration.c ****  * CONFIDENTIAL AND PROPRIETARY INFORMATION
   8:.\PeltierCalibration.c ****  * WHICH IS THE PROPERTY OF your company.
   9:.\PeltierCalibration.c ****  *
  10:.\PeltierCalibration.c ****  * ========================================
  11:.\PeltierCalibration.c **** */
  12:.\PeltierCalibration.c **** #include <PeltierCalibration.h>
  13:.\PeltierCalibration.c **** double targetTemp;          // variable containing TAC target temperature
  14:.\PeltierCalibration.c **** cystatus eepromStatus;
  15:.\PeltierCalibration.c **** static const uint8 eepromArray[(5*CALIBRATION_TABLE_SIZE)] = {0};
  16:.\PeltierCalibration.c **** // The calibration tables are organized like so : LSB first -> [3*i] = LSB, [3*i+1] = MSB, [3*i+2]=
  17:.\PeltierCalibration.c **** static const uint8 SM1eepromArray[(3*CALIBRATION_TABLE_SIZE)] = {0};
  18:.\PeltierCalibration.c **** static const uint8 SM2eepromArray[(3*CALIBRATION_TABLE_SIZE)] = {0};
  19:.\PeltierCalibration.c **** 
  20:.\PeltierCalibration.c **** void validateEEPROM()
  21:.\PeltierCalibration.c **** {
  45              		.loc 1 21 0
  46              		.cfi_startproc
  47              		@ args = 0, pretend = 0, frame = 8
  48              		@ frame_needed = 1, uses_anonymous_args = 0
  49 0000 80B5     		push	{r7, lr}
  50              		.cfi_def_cfa_offset 8
  51              		.cfi_offset 7, -8
  52              		.cfi_offset 14, -4
  53 0002 82B0     		sub	sp, sp, #8
  54              		.cfi_def_cfa_offset 16
  55 0004 00AF     		add	r7, sp, #0
  56              		.cfi_def_cfa_register 7
  22:.\PeltierCalibration.c ****     int i;
  23:.\PeltierCalibration.c ****     for (i=0; i<50; i++)
  57              		.loc 1 23 0
  58 0006 0023     		movs	r3, #0
  59 0008 7B60     		str	r3, [r7, #4]
  60 000a 16E0     		b	.L2
  61              	.L4:
  24:.\PeltierCalibration.c ****     {
  25:.\PeltierCalibration.c ****         if (SM1calibrationValues[i] != 0)
  62              		.loc 1 25 0
  63 000c 104B     		ldr	r3, .L5
  64 000e 7A68     		ldr	r2, [r7, #4]
  65 0010 33F81230 		ldrh	r3, [r3, r2, lsl #1]
  66 0014 002B     		cmp	r3, #0
  67 0016 0DD0     		beq	.L3
  26:.\PeltierCalibration.c ****         {            
  27:.\PeltierCalibration.c ****             Blue_LED_Write(1u);
  68              		.loc 1 27 0
  69 0018 0120     		movs	r0, #1
  70 001a FFF7FEFF 		bl	Blue_LED_Write
  28:.\PeltierCalibration.c ****             CyDelay(300);
  71              		.loc 1 28 0
  72 001e 4FF49670 		mov	r0, #300
  73 0022 FFF7FEFF 		bl	CyDelay
  29:.\PeltierCalibration.c ****             Blue_LED_Write(0u);
ARM GAS  C:\Users\plod1602\AppData\Local\Temp\cckpLv0Q.s 			page 3


  74              		.loc 1 29 0
  75 0026 0020     		movs	r0, #0
  76 0028 FFF7FEFF 		bl	Blue_LED_Write
  30:.\PeltierCalibration.c ****             CyDelay(300); 
  77              		.loc 1 30 0
  78 002c 4FF49670 		mov	r0, #300
  79 0030 FFF7FEFF 		bl	CyDelay
  80              	.L3:
  23:.\PeltierCalibration.c ****     for (i=0; i<50; i++)
  81              		.loc 1 23 0
  82 0034 7B68     		ldr	r3, [r7, #4]
  83 0036 0133     		adds	r3, r3, #1
  84 0038 7B60     		str	r3, [r7, #4]
  85              	.L2:
  23:.\PeltierCalibration.c ****     for (i=0; i<50; i++)
  86              		.loc 1 23 0 is_stmt 0 discriminator 1
  87 003a 7B68     		ldr	r3, [r7, #4]
  88 003c 312B     		cmp	r3, #49
  89 003e E5DD     		ble	.L4
  31:.\PeltierCalibration.c ****         }
  32:.\PeltierCalibration.c ****     }
  33:.\PeltierCalibration.c ****     CyDelay(10000);
  90              		.loc 1 33 0 is_stmt 1
  91 0040 42F21070 		movw	r0, #10000
  92 0044 FFF7FEFF 		bl	CyDelay
  34:.\PeltierCalibration.c **** }
  93              		.loc 1 34 0
  94 0048 0837     		adds	r7, r7, #8
  95 004a BD46     		mov	sp, r7
  96              		@ sp needed
  97 004c 80BD     		pop	{r7, pc}
  98              	.L6:
  99 004e 00BF     		.align	2
 100              	.L5:
 101 0050 00000000 		.word	SM1calibrationValues
 102              		.cfi_endproc
 103              	.LFE56:
 104              		.size	validateEEPROM, .-validateEEPROM
 105              		.section	.text.getCalibrationTable,"ax",%progbits
 106              		.align	2
 107              		.global	getCalibrationTable
 108              		.thumb
 109              		.thumb_func
 110              		.type	getCalibrationTable, %function
 111              	getCalibrationTable:
 112              	.LFB57:
  35:.\PeltierCalibration.c **** 
  36:.\PeltierCalibration.c **** //* Used to read calibration table from EEPROM */
  37:.\PeltierCalibration.c **** //Return 1 if data is present in the calibration table in the EEPROM, 0 otherwise.
  38:.\PeltierCalibration.c **** uint8 getCalibrationTable(Tac_Submodule* TACPtr)
  39:.\PeltierCalibration.c **** {
 113              		.loc 1 39 0
 114              		.cfi_startproc
 115              		@ args = 0, pretend = 0, frame = 24
 116              		@ frame_needed = 1, uses_anonymous_args = 0
 117              		@ link register save eliminated.
 118 0000 80B4     		push	{r7}
ARM GAS  C:\Users\plod1602\AppData\Local\Temp\cckpLv0Q.s 			page 4


 119              		.cfi_def_cfa_offset 4
 120              		.cfi_offset 7, -4
 121 0002 87B0     		sub	sp, sp, #28
 122              		.cfi_def_cfa_offset 32
 123 0004 00AF     		add	r7, sp, #0
 124              		.cfi_def_cfa_register 7
 125 0006 7860     		str	r0, [r7, #4]
  40:.\PeltierCalibration.c ****     int i=0;
 126              		.loc 1 40 0
 127 0008 0023     		movs	r3, #0
 128 000a 7B61     		str	r3, [r7, #20]
  41:.\PeltierCalibration.c ****     
  42:.\PeltierCalibration.c ****     if (TACPtr->subModuleId == SubModule1_ID)
 129              		.loc 1 42 0
 130 000c 7B68     		ldr	r3, [r7, #4]
 131 000e 1B88     		ldrh	r3, [r3]
 132 0010 012B     		cmp	r3, #1
 133 0012 32D1     		bne	.L8
 134              	.LBB2:
  43:.\PeltierCalibration.c ****     {
  44:.\PeltierCalibration.c ****         volatile const uint8* array1 = (volatile uint8 *) &SM1eepromArray[0]; // array1 devrait poi
 135              		.loc 1 44 0
 136 0014 434B     		ldr	r3, .L16
 137 0016 3B61     		str	r3, [r7, #16]
  45:.\PeltierCalibration.c ****         for(i = 0; i<CALIBRATION_TABLE_SIZE; i++)
 138              		.loc 1 45 0
 139 0018 0023     		movs	r3, #0
 140 001a 7B61     		str	r3, [r7, #20]
 141 001c 29E0     		b	.L9
 142              	.L10:
  46:.\PeltierCalibration.c ****         {
  47:.\PeltierCalibration.c ****             SM1calibrationValues[i] = (int16)((array1[(3*i)+1] << 8) | array1[(3*i)]); 
 143              		.loc 1 47 0 discriminator 2
 144 001e 7A69     		ldr	r2, [r7, #20]
 145 0020 1346     		mov	r3, r2
 146 0022 5B00     		lsls	r3, r3, #1
 147 0024 1344     		add	r3, r3, r2
 148 0026 0133     		adds	r3, r3, #1
 149 0028 3A69     		ldr	r2, [r7, #16]
 150 002a 1344     		add	r3, r3, r2
 151 002c 1B78     		ldrb	r3, [r3]
 152 002e DBB2     		uxtb	r3, r3
 153 0030 1B02     		lsls	r3, r3, #8
 154 0032 99B2     		uxth	r1, r3
 155 0034 7A69     		ldr	r2, [r7, #20]
 156 0036 1346     		mov	r3, r2
 157 0038 5B00     		lsls	r3, r3, #1
 158 003a 1344     		add	r3, r3, r2
 159 003c 3A69     		ldr	r2, [r7, #16]
 160 003e 1344     		add	r3, r3, r2
 161 0040 1B78     		ldrb	r3, [r3]
 162 0042 DBB2     		uxtb	r3, r3
 163 0044 0A46     		mov	r2, r1	@ movhi
 164 0046 1343     		orrs	r3, r3, r2
 165 0048 99B2     		uxth	r1, r3
 166 004a 374B     		ldr	r3, .L16+4
 167 004c 7A69     		ldr	r2, [r7, #20]
ARM GAS  C:\Users\plod1602\AppData\Local\Temp\cckpLv0Q.s 			page 5


 168 004e 23F81210 		strh	r1, [r3, r2, lsl #1]	@ movhi
  48:.\PeltierCalibration.c ****             SM1percentageValues[i] = (int8)array1[3*i+2]; 
 169              		.loc 1 48 0 discriminator 2
 170 0052 7A69     		ldr	r2, [r7, #20]
 171 0054 1346     		mov	r3, r2
 172 0056 5B00     		lsls	r3, r3, #1
 173 0058 1344     		add	r3, r3, r2
 174 005a 0233     		adds	r3, r3, #2
 175 005c 3A69     		ldr	r2, [r7, #16]
 176 005e 1344     		add	r3, r3, r2
 177 0060 1B78     		ldrb	r3, [r3]
 178 0062 DAB2     		uxtb	r2, r3
 179 0064 3149     		ldr	r1, .L16+8
 180 0066 7B69     		ldr	r3, [r7, #20]
 181 0068 0B44     		add	r3, r3, r1
 182 006a 1A70     		strb	r2, [r3]
  45:.\PeltierCalibration.c ****         for(i = 0; i<CALIBRATION_TABLE_SIZE; i++)
 183              		.loc 1 45 0 discriminator 2
 184 006c 7B69     		ldr	r3, [r7, #20]
 185 006e 0133     		adds	r3, r3, #1
 186 0070 7B61     		str	r3, [r7, #20]
 187              	.L9:
  45:.\PeltierCalibration.c ****         for(i = 0; i<CALIBRATION_TABLE_SIZE; i++)
 188              		.loc 1 45 0 is_stmt 0 discriminator 1
 189 0072 7B69     		ldr	r3, [r7, #20]
 190 0074 632B     		cmp	r3, #99
 191 0076 D2DD     		ble	.L10
 192              	.LBE2:
 193 0078 35E0     		b	.L11
 194              	.L8:
  49:.\PeltierCalibration.c ****         }
  50:.\PeltierCalibration.c ****     }
  51:.\PeltierCalibration.c ****     else if (TACPtr->subModuleId == SubModule2_ID)
 195              		.loc 1 51 0 is_stmt 1
 196 007a 7B68     		ldr	r3, [r7, #4]
 197 007c 1B88     		ldrh	r3, [r3]
 198 007e 022B     		cmp	r3, #2
 199 0080 31D1     		bne	.L11
 200              	.LBB3:
  52:.\PeltierCalibration.c ****     {
  53:.\PeltierCalibration.c ****         volatile const uint8* array1 = (volatile uint8 *) &SM2eepromArray[0]; // array1 devrait poi
 201              		.loc 1 53 0
 202 0082 2B4B     		ldr	r3, .L16+12
 203 0084 FB60     		str	r3, [r7, #12]
  54:.\PeltierCalibration.c ****         for(i = 0; i<CALIBRATION_TABLE_SIZE; i++)
 204              		.loc 1 54 0
 205 0086 0023     		movs	r3, #0
 206 0088 7B61     		str	r3, [r7, #20]
 207 008a 29E0     		b	.L12
 208              	.L13:
  55:.\PeltierCalibration.c ****         {
  56:.\PeltierCalibration.c ****             SM2calibrationValues[i] = (int16)((array1[(3*i)+1] << 8) | array1[(3*i)]);
 209              		.loc 1 56 0 discriminator 2
 210 008c 7A69     		ldr	r2, [r7, #20]
 211 008e 1346     		mov	r3, r2
 212 0090 5B00     		lsls	r3, r3, #1
 213 0092 1344     		add	r3, r3, r2
ARM GAS  C:\Users\plod1602\AppData\Local\Temp\cckpLv0Q.s 			page 6


 214 0094 0133     		adds	r3, r3, #1
 215 0096 FA68     		ldr	r2, [r7, #12]
 216 0098 1344     		add	r3, r3, r2
 217 009a 1B78     		ldrb	r3, [r3]
 218 009c DBB2     		uxtb	r3, r3
 219 009e 1B02     		lsls	r3, r3, #8
 220 00a0 99B2     		uxth	r1, r3
 221 00a2 7A69     		ldr	r2, [r7, #20]
 222 00a4 1346     		mov	r3, r2
 223 00a6 5B00     		lsls	r3, r3, #1
 224 00a8 1344     		add	r3, r3, r2
 225 00aa FA68     		ldr	r2, [r7, #12]
 226 00ac 1344     		add	r3, r3, r2
 227 00ae 1B78     		ldrb	r3, [r3]
 228 00b0 DBB2     		uxtb	r3, r3
 229 00b2 0A46     		mov	r2, r1	@ movhi
 230 00b4 1343     		orrs	r3, r3, r2
 231 00b6 99B2     		uxth	r1, r3
 232 00b8 1E4B     		ldr	r3, .L16+16
 233 00ba 7A69     		ldr	r2, [r7, #20]
 234 00bc 23F81210 		strh	r1, [r3, r2, lsl #1]	@ movhi
  57:.\PeltierCalibration.c ****             SM2percentageValues[i] = (int8)array1[3*i+2]; 
 235              		.loc 1 57 0 discriminator 2
 236 00c0 7A69     		ldr	r2, [r7, #20]
 237 00c2 1346     		mov	r3, r2
 238 00c4 5B00     		lsls	r3, r3, #1
 239 00c6 1344     		add	r3, r3, r2
 240 00c8 0233     		adds	r3, r3, #2
 241 00ca FA68     		ldr	r2, [r7, #12]
 242 00cc 1344     		add	r3, r3, r2
 243 00ce 1B78     		ldrb	r3, [r3]
 244 00d0 DAB2     		uxtb	r2, r3
 245 00d2 1949     		ldr	r1, .L16+20
 246 00d4 7B69     		ldr	r3, [r7, #20]
 247 00d6 0B44     		add	r3, r3, r1
 248 00d8 1A70     		strb	r2, [r3]
  54:.\PeltierCalibration.c ****         for(i = 0; i<CALIBRATION_TABLE_SIZE; i++)
 249              		.loc 1 54 0 discriminator 2
 250 00da 7B69     		ldr	r3, [r7, #20]
 251 00dc 0133     		adds	r3, r3, #1
 252 00de 7B61     		str	r3, [r7, #20]
 253              	.L12:
  54:.\PeltierCalibration.c ****         for(i = 0; i<CALIBRATION_TABLE_SIZE; i++)
 254              		.loc 1 54 0 is_stmt 0 discriminator 1
 255 00e0 7B69     		ldr	r3, [r7, #20]
 256 00e2 632B     		cmp	r3, #99
 257 00e4 D2DD     		ble	.L13
 258              	.L11:
 259              	.LBE3:
  58:.\PeltierCalibration.c ****         }   
  59:.\PeltierCalibration.c ****     }  
  60:.\PeltierCalibration.c ****     // If the two first values from the EEPROM are null, the calibration was never done.
  61:.\PeltierCalibration.c ****     if ((TACPtr->calibrationValuesPtr[0] == 0) && (TACPtr->calibrationValuesPtr[1] == 0) && (TACPtr
 260              		.loc 1 61 0 is_stmt 1
 261 00e6 7B68     		ldr	r3, [r7, #4]
 262 00e8 9B69     		ldr	r3, [r3, #24]
 263 00ea 1B88     		ldrh	r3, [r3]
ARM GAS  C:\Users\plod1602\AppData\Local\Temp\cckpLv0Q.s 			page 7


 264 00ec 002B     		cmp	r3, #0
 265 00ee 0DD1     		bne	.L14
 266              		.loc 1 61 0 is_stmt 0 discriminator 1
 267 00f0 7B68     		ldr	r3, [r7, #4]
 268 00f2 9B69     		ldr	r3, [r3, #24]
 269 00f4 0233     		adds	r3, r3, #2
 270 00f6 1B88     		ldrh	r3, [r3]
 271 00f8 002B     		cmp	r3, #0
 272 00fa 07D1     		bne	.L14
 273 00fc 7B68     		ldr	r3, [r7, #4]
 274 00fe 9B69     		ldr	r3, [r3, #24]
 275 0100 0433     		adds	r3, r3, #4
 276 0102 1B88     		ldrh	r3, [r3]
 277 0104 002B     		cmp	r3, #0
 278 0106 01D1     		bne	.L14
  62:.\PeltierCalibration.c ****     {
  63:.\PeltierCalibration.c ****         return 0;
 279              		.loc 1 63 0 is_stmt 1
 280 0108 0023     		movs	r3, #0
 281 010a 04E0     		b	.L15
 282              	.L14:
  64:.\PeltierCalibration.c ****     }
  65:.\PeltierCalibration.c ****     else
  66:.\PeltierCalibration.c ****     {
  67:.\PeltierCalibration.c ****         TACPtr->areCalibrationValuesRetrieved = True;
 283              		.loc 1 67 0
 284 010c 7B68     		ldr	r3, [r7, #4]
 285 010e 0122     		movs	r2, #1
 286 0110 83F82020 		strb	r2, [r3, #32]
  68:.\PeltierCalibration.c ****         return 1;
 287              		.loc 1 68 0
 288 0114 0123     		movs	r3, #1
 289              	.L15:
  69:.\PeltierCalibration.c ****     }
  70:.\PeltierCalibration.c ****     /*
  71:.\PeltierCalibration.c ****     volatile const uint8* array1 = (volatile uint8 *) &eepromArray[0]; // array1 devrait pointer ve
  72:.\PeltierCalibration.c ****    
  73:.\PeltierCalibration.c ****     int i=0;
  74:.\PeltierCalibration.c ****     for(i = 0; i<CALIBRATION_TABLE_SIZE; i++)
  75:.\PeltierCalibration.c ****     {       
  76:.\PeltierCalibration.c ****         SM1calibrationValues[i] = (int)(array1[(5*i)+3] << 24) | (array1[(5*i)+2] << 16) | (array1[
  77:.\PeltierCalibration.c ****         SM1percentageValues[i] = (int8)array1[5*i+4];
  78:.\PeltierCalibration.c ****     }
  79:.\PeltierCalibration.c ****     
  80:.\PeltierCalibration.c ****     // If the two first values from the EEPROM are null, the calibration was never done.
  81:.\PeltierCalibration.c ****     if ((SM1calibrationValues[0] == 0) & (SM1calibrationValues[1] == 0))
  82:.\PeltierCalibration.c ****         return 0;
  83:.\PeltierCalibration.c ****     else
  84:.\PeltierCalibration.c ****         return 1;  
  85:.\PeltierCalibration.c ****     */
  86:.\PeltierCalibration.c **** }
 290              		.loc 1 86 0
 291 0116 1846     		mov	r0, r3
 292 0118 1C37     		adds	r7, r7, #28
 293 011a BD46     		mov	sp, r7
 294              		@ sp needed
 295 011c 5DF8047B 		ldr	r7, [sp], #4
ARM GAS  C:\Users\plod1602\AppData\Local\Temp\cckpLv0Q.s 			page 8


 296 0120 7047     		bx	lr
 297              	.L17:
 298 0122 00BF     		.align	2
 299              	.L16:
 300 0124 F4010000 		.word	SM1eepromArray
 301 0128 00000000 		.word	SM1calibrationValues
 302 012c 00000000 		.word	SM1percentageValues
 303 0130 20030000 		.word	SM2eepromArray
 304 0134 00000000 		.word	SM2calibrationValues
 305 0138 00000000 		.word	SM2percentageValues
 306              		.cfi_endproc
 307              	.LFE57:
 308              		.size	getCalibrationTable, .-getCalibrationTable
 309              		.section	.text.setCalibrationTable,"ax",%progbits
 310              		.align	2
 311              		.global	setCalibrationTable
 312              		.thumb
 313              		.thumb_func
 314              		.type	setCalibrationTable, %function
 315              	setCalibrationTable:
 316              	.LFB58:
  87:.\PeltierCalibration.c **** //* Used to set calibration table from EEPROM */
  88:.\PeltierCalibration.c **** void setCalibrationTable(Tac_Submodule* TACPtr)
  89:.\PeltierCalibration.c **** {    
 317              		.loc 1 89 0
 318              		.cfi_startproc
 319              		@ args = 0, pretend = 0, frame = 320
 320              		@ frame_needed = 1, uses_anonymous_args = 0
 321 0000 80B5     		push	{r7, lr}
 322              		.cfi_def_cfa_offset 8
 323              		.cfi_offset 7, -8
 324              		.cfi_offset 14, -4
 325 0002 D0B0     		sub	sp, sp, #320
 326              		.cfi_def_cfa_offset 328
 327 0004 00AF     		add	r7, sp, #0
 328              		.cfi_def_cfa_register 7
 329 0006 3B1D     		adds	r3, r7, #4
 330 0008 1860     		str	r0, [r3]
  90:.\PeltierCalibration.c ****     int i = 0;
 331              		.loc 1 90 0
 332 000a 0023     		movs	r3, #0
 333 000c C7F83C31 		str	r3, [r7, #316]
  91:.\PeltierCalibration.c ****     uint8_t *array1;
  92:.\PeltierCalibration.c ****     
  93:.\PeltierCalibration.c ****     uint8 tempTemperatureAndPercentageArray[3*CALIBRATION_TABLE_SIZE] = {0}; // 4 bytes of temperat
 334              		.loc 1 93 0
 335 0010 07F10C03 		add	r3, r7, #12
 336 0014 1A46     		mov	r2, r3
 337 0016 4FF49673 		mov	r3, #300
 338 001a 1046     		mov	r0, r2
 339 001c 0021     		movs	r1, #0
 340 001e 1A46     		mov	r2, r3
 341 0020 FFF7FEFF 		bl	memset
  94:.\PeltierCalibration.c ****     
  95:.\PeltierCalibration.c ****     if (TACPtr->subModuleId == SubModule1_ID)
 342              		.loc 1 95 0
 343 0024 3B1D     		adds	r3, r7, #4
ARM GAS  C:\Users\plod1602\AppData\Local\Temp\cckpLv0Q.s 			page 9


 344 0026 1B68     		ldr	r3, [r3]
 345 0028 1B88     		ldrh	r3, [r3]
 346 002a 012B     		cmp	r3, #1
 347 002c 44D1     		bne	.L19
  96:.\PeltierCalibration.c ****     {
  97:.\PeltierCalibration.c ****         for(i=0; i<CALIBRATION_TABLE_SIZE; i++)
 348              		.loc 1 97 0
 349 002e 0023     		movs	r3, #0
 350 0030 C7F83C31 		str	r3, [r7, #316]
 351 0034 30E0     		b	.L20
 352              	.L21:
  98:.\PeltierCalibration.c ****         {
  99:.\PeltierCalibration.c ****             array1 = (uint8_t*)(&SM1calibrationValues[i]);
 353              		.loc 1 99 0 discriminator 2
 354 0036 D7F83C31 		ldr	r3, [r7, #316]
 355 003a 5A00     		lsls	r2, r3, #1
 356 003c 454B     		ldr	r3, .L25
 357 003e 1344     		add	r3, r3, r2
 358 0040 C7F83831 		str	r3, [r7, #312]
 100:.\PeltierCalibration.c ****             tempTemperatureAndPercentageArray[3*i] = array1[0];     // LSB
 359              		.loc 1 100 0 discriminator 2
 360 0044 D7F83C21 		ldr	r2, [r7, #316]
 361 0048 1346     		mov	r3, r2
 362 004a 5B00     		lsls	r3, r3, #1
 363 004c 1344     		add	r3, r3, r2
 364 004e D7F83821 		ldr	r2, [r7, #312]
 365 0052 1178     		ldrb	r1, [r2]	@ zero_extendqisi2
 366 0054 07F10C02 		add	r2, r7, #12
 367 0058 D154     		strb	r1, [r2, r3]
 101:.\PeltierCalibration.c ****             tempTemperatureAndPercentageArray[(3*i)+1] = array1[1]; // MSB
 368              		.loc 1 101 0 discriminator 2
 369 005a D7F83C21 		ldr	r2, [r7, #316]
 370 005e 1346     		mov	r3, r2
 371 0060 5B00     		lsls	r3, r3, #1
 372 0062 1344     		add	r3, r3, r2
 373 0064 0133     		adds	r3, r3, #1
 374 0066 D7F83821 		ldr	r2, [r7, #312]
 375 006a 5178     		ldrb	r1, [r2, #1]	@ zero_extendqisi2
 376 006c 07F10C02 		add	r2, r7, #12
 377 0070 D154     		strb	r1, [r2, r3]
 102:.\PeltierCalibration.c ****             tempTemperatureAndPercentageArray[(3*i)+2] = (uint8)SM1percentageValues[i]; // Storing 
 378              		.loc 1 102 0 discriminator 2
 379 0072 D7F83C21 		ldr	r2, [r7, #316]
 380 0076 1346     		mov	r3, r2
 381 0078 5B00     		lsls	r3, r3, #1
 382 007a 1344     		add	r3, r3, r2
 383 007c 0233     		adds	r3, r3, #2
 384 007e 3649     		ldr	r1, .L25+4
 385 0080 D7F83C21 		ldr	r2, [r7, #316]
 386 0084 0A44     		add	r2, r2, r1
 387 0086 1178     		ldrb	r1, [r2]	@ zero_extendqisi2
 388 0088 07F10C02 		add	r2, r7, #12
 389 008c D154     		strb	r1, [r2, r3]
  97:.\PeltierCalibration.c ****         for(i=0; i<CALIBRATION_TABLE_SIZE; i++)
 390              		.loc 1 97 0 discriminator 2
 391 008e D7F83C31 		ldr	r3, [r7, #316]
 392 0092 0133     		adds	r3, r3, #1
ARM GAS  C:\Users\plod1602\AppData\Local\Temp\cckpLv0Q.s 			page 10


 393 0094 C7F83C31 		str	r3, [r7, #316]
 394              	.L20:
  97:.\PeltierCalibration.c ****         for(i=0; i<CALIBRATION_TABLE_SIZE; i++)
 395              		.loc 1 97 0 is_stmt 0 discriminator 1
 396 0098 D7F83C31 		ldr	r3, [r7, #316]
 397 009c 632B     		cmp	r3, #99
 398 009e CADD     		ble	.L21
 103:.\PeltierCalibration.c ****         }
 104:.\PeltierCalibration.c ****         eepromStatus = Em_EEPROM_Write(&tempTemperatureAndPercentageArray[0], &SM1eepromArray[0], 3
 399              		.loc 1 104 0 is_stmt 1
 400 00a0 07F10C03 		add	r3, r7, #12
 401 00a4 1846     		mov	r0, r3
 402 00a6 2D49     		ldr	r1, .L25+8
 403 00a8 4FF49672 		mov	r2, #300
 404 00ac FFF7FEFF 		bl	Em_EEPROM_Write
 405 00b0 0246     		mov	r2, r0
 406 00b2 2B4B     		ldr	r3, .L25+12
 407 00b4 1A60     		str	r2, [r3]
 408 00b6 48E0     		b	.L18
 409              	.L19:
 105:.\PeltierCalibration.c ****     }
 106:.\PeltierCalibration.c ****     else if (TACPtr->subModuleId == SubModule2_ID)
 410              		.loc 1 106 0
 411 00b8 3B1D     		adds	r3, r7, #4
 412 00ba 1B68     		ldr	r3, [r3]
 413 00bc 1B88     		ldrh	r3, [r3]
 414 00be 022B     		cmp	r3, #2
 415 00c0 43D1     		bne	.L18
 107:.\PeltierCalibration.c ****     {
 108:.\PeltierCalibration.c ****         for(i=0; i<CALIBRATION_TABLE_SIZE; i++)
 416              		.loc 1 108 0
 417 00c2 0023     		movs	r3, #0
 418 00c4 C7F83C31 		str	r3, [r7, #316]
 419 00c8 30E0     		b	.L23
 420              	.L24:
 109:.\PeltierCalibration.c ****         {
 110:.\PeltierCalibration.c ****             array1 = (uint8_t*)(&SM2calibrationValues[i]);
 421              		.loc 1 110 0 discriminator 2
 422 00ca D7F83C31 		ldr	r3, [r7, #316]
 423 00ce 5A00     		lsls	r2, r3, #1
 424 00d0 244B     		ldr	r3, .L25+16
 425 00d2 1344     		add	r3, r3, r2
 426 00d4 C7F83831 		str	r3, [r7, #312]
 111:.\PeltierCalibration.c ****             tempTemperatureAndPercentageArray[3*i] = array1[0];     // LSB
 427              		.loc 1 111 0 discriminator 2
 428 00d8 D7F83C21 		ldr	r2, [r7, #316]
 429 00dc 1346     		mov	r3, r2
 430 00de 5B00     		lsls	r3, r3, #1
 431 00e0 1344     		add	r3, r3, r2
 432 00e2 D7F83821 		ldr	r2, [r7, #312]
 433 00e6 1178     		ldrb	r1, [r2]	@ zero_extendqisi2
 434 00e8 07F10C02 		add	r2, r7, #12
 435 00ec D154     		strb	r1, [r2, r3]
 112:.\PeltierCalibration.c ****             tempTemperatureAndPercentageArray[(3*i)+1] = array1[1]; // MSB
 436              		.loc 1 112 0 discriminator 2
 437 00ee D7F83C21 		ldr	r2, [r7, #316]
 438 00f2 1346     		mov	r3, r2
ARM GAS  C:\Users\plod1602\AppData\Local\Temp\cckpLv0Q.s 			page 11


 439 00f4 5B00     		lsls	r3, r3, #1
 440 00f6 1344     		add	r3, r3, r2
 441 00f8 0133     		adds	r3, r3, #1
 442 00fa D7F83821 		ldr	r2, [r7, #312]
 443 00fe 5178     		ldrb	r1, [r2, #1]	@ zero_extendqisi2
 444 0100 07F10C02 		add	r2, r7, #12
 445 0104 D154     		strb	r1, [r2, r3]
 113:.\PeltierCalibration.c ****             tempTemperatureAndPercentageArray[(3*i)+2] = (uint8)SM1percentageValues[i]; // Storing 
 446              		.loc 1 113 0 discriminator 2
 447 0106 D7F83C21 		ldr	r2, [r7, #316]
 448 010a 1346     		mov	r3, r2
 449 010c 5B00     		lsls	r3, r3, #1
 450 010e 1344     		add	r3, r3, r2
 451 0110 0233     		adds	r3, r3, #2
 452 0112 1149     		ldr	r1, .L25+4
 453 0114 D7F83C21 		ldr	r2, [r7, #316]
 454 0118 0A44     		add	r2, r2, r1
 455 011a 1178     		ldrb	r1, [r2]	@ zero_extendqisi2
 456 011c 07F10C02 		add	r2, r7, #12
 457 0120 D154     		strb	r1, [r2, r3]
 108:.\PeltierCalibration.c ****         for(i=0; i<CALIBRATION_TABLE_SIZE; i++)
 458              		.loc 1 108 0 discriminator 2
 459 0122 D7F83C31 		ldr	r3, [r7, #316]
 460 0126 0133     		adds	r3, r3, #1
 461 0128 C7F83C31 		str	r3, [r7, #316]
 462              	.L23:
 108:.\PeltierCalibration.c ****         for(i=0; i<CALIBRATION_TABLE_SIZE; i++)
 463              		.loc 1 108 0 is_stmt 0 discriminator 1
 464 012c D7F83C31 		ldr	r3, [r7, #316]
 465 0130 632B     		cmp	r3, #99
 466 0132 CADD     		ble	.L24
 114:.\PeltierCalibration.c ****         } 
 115:.\PeltierCalibration.c ****         eepromStatus = Em_EEPROM_Write(&tempTemperatureAndPercentageArray[0], &SM2eepromArray[0], 3
 467              		.loc 1 115 0 is_stmt 1
 468 0134 07F10C03 		add	r3, r7, #12
 469 0138 1846     		mov	r0, r3
 470 013a 0B49     		ldr	r1, .L25+20
 471 013c 4FF49672 		mov	r2, #300
 472 0140 FFF7FEFF 		bl	Em_EEPROM_Write
 473 0144 0246     		mov	r2, r0
 474 0146 064B     		ldr	r3, .L25+12
 475 0148 1A60     		str	r2, [r3]
 476              	.L18:
 116:.\PeltierCalibration.c ****     }
 117:.\PeltierCalibration.c ****    
 118:.\PeltierCalibration.c ****     /*
 119:.\PeltierCalibration.c ****     int i = 0;
 120:.\PeltierCalibration.c ****     uint8_t *array1;
 121:.\PeltierCalibration.c ****     
 122:.\PeltierCalibration.c ****     uint8 tempTemperatureAndPercentageArray[5*CALIBRATION_TABLE_SIZE] = {0}; // 4 bytes of temperat
 123:.\PeltierCalibration.c ****     
 124:.\PeltierCalibration.c ****     for(i=0; i<CALIBRATION_TABLE_SIZE; i++)
 125:.\PeltierCalibration.c ****     {
 126:.\PeltierCalibration.c ****         array1 = (uint8_t*)(&SM1calibrationValues[i]);
 127:.\PeltierCalibration.c ****         tempTemperatureAndPercentageArray[5*i] = array1[0];     // LSB
 128:.\PeltierCalibration.c ****         tempTemperatureAndPercentageArray[(5*i)+1] = array1[1]; 
 129:.\PeltierCalibration.c ****         tempTemperatureAndPercentageArray[(5*i)+2] = array1[2];
ARM GAS  C:\Users\plod1602\AppData\Local\Temp\cckpLv0Q.s 			page 12


 130:.\PeltierCalibration.c ****         tempTemperatureAndPercentageArray[(5*i)+3] = array1[3]; // MSB
 131:.\PeltierCalibration.c ****         tempTemperatureAndPercentageArray[(5*i)+4] = (uint8)SM1percentageValues[i]; // Storing a by
 132:.\PeltierCalibration.c ****     }	
 133:.\PeltierCalibration.c **** 	eepromStatus = Em_EEPROM_Write(&tempTemperatureAndPercentageArray[0], &eepromArray[0], 5*CALIBRATI
 134:.\PeltierCalibration.c ****     */
 135:.\PeltierCalibration.c **** }
 477              		.loc 1 135 0
 478 014a 07F5A077 		add	r7, r7, #320
 479 014e BD46     		mov	sp, r7
 480              		@ sp needed
 481 0150 80BD     		pop	{r7, pc}
 482              	.L26:
 483 0152 00BF     		.align	2
 484              	.L25:
 485 0154 00000000 		.word	SM1calibrationValues
 486 0158 00000000 		.word	SM1percentageValues
 487 015c F4010000 		.word	SM1eepromArray
 488 0160 00000000 		.word	eepromStatus
 489 0164 00000000 		.word	SM2calibrationValues
 490 0168 20030000 		.word	SM2eepromArray
 491              		.cfi_endproc
 492              	.LFE58:
 493              		.size	setCalibrationTable, .-setCalibrationTable
 494              		.section	.text.calibration,"ax",%progbits
 495              		.align	2
 496              		.global	calibration
 497              		.thumb
 498              		.thumb_func
 499              		.type	calibration, %function
 500              	calibration:
 501              	.LFB59:
 136:.\PeltierCalibration.c **** 
 137:.\PeltierCalibration.c **** // Calibration is done on one submodule at a time.
 138:.\PeltierCalibration.c **** uint8 calibration(int maxTempTarget, uint8 moduleNumber)
 139:.\PeltierCalibration.c **** {
 502              		.loc 1 139 0
 503              		.cfi_startproc
 504              		@ args = 0, pretend = 0, frame = 88
 505              		@ frame_needed = 1, uses_anonymous_args = 0
 506 0000 90B5     		push	{r4, r7, lr}
 507              		.cfi_def_cfa_offset 12
 508              		.cfi_offset 4, -12
 509              		.cfi_offset 7, -8
 510              		.cfi_offset 14, -4
 511 0002 97B0     		sub	sp, sp, #92
 512              		.cfi_def_cfa_offset 104
 513 0004 00AF     		add	r7, sp, #0
 514              		.cfi_def_cfa_register 7
 515 0006 7860     		str	r0, [r7, #4]
 516 0008 0B46     		mov	r3, r1
 517 000a FB70     		strb	r3, [r7, #3]
 140:.\PeltierCalibration.c ****     if (moduleNumber==SubModule1_ID || moduleNumber==SubModule2_ID)
 518              		.loc 1 140 0
 519 000c FB78     		ldrb	r3, [r7, #3]	@ zero_extendqisi2
 520 000e 012B     		cmp	r3, #1
 521 0010 03D0     		beq	.L28
 522              		.loc 1 140 0 is_stmt 0 discriminator 1
ARM GAS  C:\Users\plod1602\AppData\Local\Temp\cckpLv0Q.s 			page 13


 523 0012 FB78     		ldrb	r3, [r7, #3]	@ zero_extendqisi2
 524 0014 022B     		cmp	r3, #2
 525 0016 40F0D581 		bne	.L29
 526              	.L28:
 527              	.LBB4:
 141:.\PeltierCalibration.c ****     {
 142:.\PeltierCalibration.c ****         // Set the desired fan to 100% speed
 143:.\PeltierCalibration.c ****         changeFanSpeed(100,moduleNumber);
 528              		.loc 1 143 0 is_stmt 1
 529 001a FB78     		ldrb	r3, [r7, #3]	@ zero_extendqisi2
 530 001c 6420     		movs	r0, #100
 531 001e 1946     		mov	r1, r3
 532 0020 FFF7FEFF 		bl	changeFanSpeed
 144:.\PeltierCalibration.c ****         int32 calibrationPointer = 0;
 533              		.loc 1 144 0
 534 0024 0023     		movs	r3, #0
 535 0026 7B65     		str	r3, [r7, #84]
 145:.\PeltierCalibration.c ****         
 146:.\PeltierCalibration.c ****     	/* Temperature value in 100ths of degree C */
 147:.\PeltierCalibration.c ****     	//int32 tempSum=0; 
 148:.\PeltierCalibration.c ****         int16 iTemp = 0;
 536              		.loc 1 148 0
 537 0028 0023     		movs	r3, #0
 538 002a A7F85230 		strh	r3, [r7, #82]	@ movhi
 149:.\PeltierCalibration.c ****         int16 pastTemp[20] = {0};
 539              		.loc 1 149 0
 540 002e 07F10C03 		add	r3, r7, #12
 541 0032 0022     		movs	r2, #0
 542 0034 1A60     		str	r2, [r3]
 543 0036 0433     		adds	r3, r3, #4
 544 0038 0022     		movs	r2, #0
 545 003a 1A60     		str	r2, [r3]
 546 003c 0433     		adds	r3, r3, #4
 547 003e 0022     		movs	r2, #0
 548 0040 1A60     		str	r2, [r3]
 549 0042 0433     		adds	r3, r3, #4
 550 0044 0022     		movs	r2, #0
 551 0046 1A60     		str	r2, [r3]
 552 0048 0433     		adds	r3, r3, #4
 553 004a 0022     		movs	r2, #0
 554 004c 1A60     		str	r2, [r3]
 555 004e 0433     		adds	r3, r3, #4
 556 0050 0022     		movs	r2, #0
 557 0052 1A60     		str	r2, [r3]
 558 0054 0433     		adds	r3, r3, #4
 559 0056 0022     		movs	r2, #0
 560 0058 1A60     		str	r2, [r3]
 561 005a 0433     		adds	r3, r3, #4
 562 005c 0022     		movs	r2, #0
 563 005e 1A60     		str	r2, [r3]
 564 0060 0433     		adds	r3, r3, #4
 565 0062 0022     		movs	r2, #0
 566 0064 1A60     		str	r2, [r3]
 567 0066 0433     		adds	r3, r3, #4
 568 0068 0022     		movs	r2, #0
 569 006a 1A60     		str	r2, [r3]
 570 006c 0433     		adds	r3, r3, #4
ARM GAS  C:\Users\plod1602\AppData\Local\Temp\cckpLv0Q.s 			page 14


 150:.\PeltierCalibration.c ****         
 151:.\PeltierCalibration.c ****         // Paramètrage     
 152:.\PeltierCalibration.c ****         int maxPWMPulse; // Longueur de notre PWM
 153:.\PeltierCalibration.c ****         
 154:.\PeltierCalibration.c ****         if (moduleNumber == SubModule1_ID)
 571              		.loc 1 154 0
 572 006e FB78     		ldrb	r3, [r7, #3]	@ zero_extendqisi2
 573 0070 012B     		cmp	r3, #1
 574 0072 04D1     		bne	.L30
 155:.\PeltierCalibration.c ****         {
 156:.\PeltierCalibration.c ****             maxPWMPulse = Peltier1_PWM_Ctrl_ReadPeriod();               
 575              		.loc 1 156 0
 576 0074 FFF7FEFF 		bl	Peltier1_PWM_Ctrl_ReadPeriod
 577 0078 0346     		mov	r3, r0
 578 007a FB64     		str	r3, [r7, #76]
 579 007c 06E0     		b	.L31
 580              	.L30:
 157:.\PeltierCalibration.c ****         }
 158:.\PeltierCalibration.c ****         else if(moduleNumber == SubModule2_ID)
 581              		.loc 1 158 0
 582 007e FB78     		ldrb	r3, [r7, #3]	@ zero_extendqisi2
 583 0080 022B     		cmp	r3, #2
 584 0082 03D1     		bne	.L31
 159:.\PeltierCalibration.c ****         {
 160:.\PeltierCalibration.c ****             maxPWMPulse = Peltier2_PWM_Ctrl_ReadPeriod();
 585              		.loc 1 160 0
 586 0084 FFF7FEFF 		bl	Peltier2_PWM_Ctrl_ReadPeriod
 587 0088 0346     		mov	r3, r0
 588 008a FB64     		str	r3, [r7, #76]
 589              	.L31:
 161:.\PeltierCalibration.c ****         } 
 162:.\PeltierCalibration.c ****         
 163:.\PeltierCalibration.c ****         int8 pwmDCStartValue = (int8)PELTIER_PWM_START_VALUE;   // Value in % representing the star
 590              		.loc 1 163 0
 591 008c EC23     		movs	r3, #236
 592 008e 87F83930 		strb	r3, [r7, #57]
 164:.\PeltierCalibration.c ****         int8 pwmDCEndValue = (int8)PELTIER_PWM_END_VALUE;      // Value in % of PWM end duty cycle 
 593              		.loc 1 164 0
 594 0092 5023     		movs	r3, #80
 595 0094 87F83830 		strb	r3, [r7, #56]
 165:.\PeltierCalibration.c ****     	int pwmPercentageIncrement = (int)PELTIER_PWM_INCREMENT_VALUE; // Precision in % required betw
 596              		.loc 1 165 0
 597 0098 0523     		movs	r3, #5
 598 009a 7B63     		str	r3, [r7, #52]
 166:.\PeltierCalibration.c ****       
 167:.\PeltierCalibration.c ****         int pwmPercentageBeeingSent = pwmDCStartValue;							  
 599              		.loc 1 167 0
 600 009c 97F93930 		ldrsb	r3, [r7, #57]
 601 00a0 BB64     		str	r3, [r7, #72]
 168:.\PeltierCalibration.c ****     	// Calcul du pwmStart et du pwmFin	
 169:.\PeltierCalibration.c ****         //double pwmIncrement = (double)(maxPWMPulse*precision)/100; // Calcul de la longueur PWM p
 170:.\PeltierCalibration.c ****         int pwmWriteCompareValue = pwmDCStartValue*maxPWMPulse/100; // Calcul de la longueur PWM co
 602              		.loc 1 170 0
 603 00a2 97F93930 		ldrsb	r3, [r7, #57]
 604 00a6 FA6C     		ldr	r2, [r7, #76]
 605 00a8 02FB03F3 		mul	r3, r2, r3
 606 00ac 684A     		ldr	r2, .L56
ARM GAS  C:\Users\plod1602\AppData\Local\Temp\cckpLv0Q.s 			page 15


 607 00ae 82FB0302 		smull	r0, r2, r2, r3
 608 00b2 5211     		asrs	r2, r2, #5
 609 00b4 DB17     		asrs	r3, r3, #31
 610 00b6 D31A     		subs	r3, r2, r3
 611 00b8 7B64     		str	r3, [r7, #68]
 171:.\PeltierCalibration.c ****         
 172:.\PeltierCalibration.c ****         int32 deltaValue = 0;
 612              		.loc 1 172 0
 613 00ba 0023     		movs	r3, #0
 614 00bc 3B64     		str	r3, [r7, #64]
 173:.\PeltierCalibration.c ****         int16 tempIndex = 0;
 615              		.loc 1 173 0
 616 00be 0023     		movs	r3, #0
 617 00c0 FB87     		strh	r3, [r7, #62]	@ movhi
 174:.\PeltierCalibration.c ****         int16 tempMean = 0;
 618              		.loc 1 174 0
 619 00c2 0023     		movs	r3, #0
 620 00c4 BB87     		strh	r3, [r7, #60]	@ movhi
 175:.\PeltierCalibration.c ****      
 176:.\PeltierCalibration.c ****         int8 tolerance_hit = 0; // Ajout Kevin
 621              		.loc 1 176 0
 622 00c6 0023     		movs	r3, #0
 623 00c8 87F83B30 		strb	r3, [r7, #59]
 177:.\PeltierCalibration.c ****         
 178:.\PeltierCalibration.c ****         //init the pastTemp array with a mean temperature over 20 seconds.
 179:.\PeltierCalibration.c ****         for(tempIndex = 0; tempIndex < 20; tempIndex++)
 624              		.loc 1 179 0
 625 00cc 0023     		movs	r3, #0
 626 00ce FB87     		strh	r3, [r7, #62]	@ movhi
 627 00d0 3BE0     		b	.L32
 628              	.L35:
 180:.\PeltierCalibration.c ****         {
 181:.\PeltierCalibration.c ****             if (STOP_CALIBRATION_FLAG != 0)
 629              		.loc 1 181 0
 630 00d2 604B     		ldr	r3, .L56+4
 631 00d4 1B78     		ldrb	r3, [r3]	@ zero_extendqisi2
 632 00d6 002B     		cmp	r3, #0
 633 00d8 04D0     		beq	.L33
 182:.\PeltierCalibration.c ****             {
 183:.\PeltierCalibration.c ****                 STOP_CALIBRATION_FLAG = 0;
 634              		.loc 1 183 0
 635 00da 5E4B     		ldr	r3, .L56+4
 636 00dc 0022     		movs	r2, #0
 637 00de 1A70     		strb	r2, [r3]
 184:.\PeltierCalibration.c ****                 return CALIBRATION_STOPPED;
 638              		.loc 1 184 0
 639 00e0 1323     		movs	r3, #19
 640 00e2 70E1     		b	.L55
 641              	.L33:
 185:.\PeltierCalibration.c ****             } 
 186:.\PeltierCalibration.c ****             
 187:.\PeltierCalibration.c ****             pastTemp[tempIndex] =  getThermistorTemp(1)/10;
 642              		.loc 1 187 0
 643 00e4 B7F93E40 		ldrsh	r4, [r7, #62]
 644 00e8 0120     		movs	r0, #1
 645 00ea FFF7FEFF 		bl	getThermistorTemp
 646 00ee 0346     		mov	r3, r0
ARM GAS  C:\Users\plod1602\AppData\Local\Temp\cckpLv0Q.s 			page 16


 647 00f0 594A     		ldr	r2, .L56+8
 648 00f2 82FB0312 		smull	r1, r2, r2, r3
 649 00f6 9210     		asrs	r2, r2, #2
 650 00f8 DB17     		asrs	r3, r3, #31
 651 00fa D31A     		subs	r3, r2, r3
 652 00fc 9AB2     		uxth	r2, r3
 653 00fe 6300     		lsls	r3, r4, #1
 654 0100 07F15800 		add	r0, r7, #88
 655 0104 0344     		add	r3, r3, r0
 656 0106 23F84C2C 		strh	r2, [r3, #-76]	@ movhi
 188:.\PeltierCalibration.c ****             sendDebugTemperature(pastTemp[tempIndex]);
 657              		.loc 1 188 0
 658 010a B7F93E30 		ldrsh	r3, [r7, #62]
 659 010e 5B00     		lsls	r3, r3, #1
 660 0110 07F15801 		add	r1, r7, #88
 661 0114 0B44     		add	r3, r3, r1
 662 0116 33F84C3C 		ldrh	r3, [r3, #-76]
 663 011a 1BB2     		sxth	r3, r3
 664 011c 1846     		mov	r0, r3
 665 011e FFF7FEFF 		bl	sendDebugTemperature
 189:.\PeltierCalibration.c ****             tempMean += pastTemp[tempIndex];
 666              		.loc 1 189 0
 667 0122 B7F93E30 		ldrsh	r3, [r7, #62]
 668 0126 5B00     		lsls	r3, r3, #1
 669 0128 07F15802 		add	r2, r7, #88
 670 012c 1344     		add	r3, r3, r2
 671 012e 33F84C3C 		ldrh	r3, [r3, #-76]
 672 0132 9AB2     		uxth	r2, r3
 673 0134 BB8F     		ldrh	r3, [r7, #60]
 674 0136 1344     		add	r3, r3, r2
 675 0138 9BB2     		uxth	r3, r3
 676 013a BB87     		strh	r3, [r7, #60]	@ movhi
 190:.\PeltierCalibration.c ****             
 191:.\PeltierCalibration.c ****             CyDelay(1000);
 677              		.loc 1 191 0
 678 013c 4FF47A70 		mov	r0, #1000
 679 0140 FFF7FEFF 		bl	CyDelay
 179:.\PeltierCalibration.c ****         for(tempIndex = 0; tempIndex < 20; tempIndex++)
 680              		.loc 1 179 0
 681 0144 FB8F     		ldrh	r3, [r7, #62]
 682 0146 0133     		adds	r3, r3, #1
 683 0148 FB87     		strh	r3, [r7, #62]	@ movhi
 684              	.L32:
 179:.\PeltierCalibration.c ****         for(tempIndex = 0; tempIndex < 20; tempIndex++)
 685              		.loc 1 179 0 is_stmt 0 discriminator 1
 686 014a B7F93E30 		ldrsh	r3, [r7, #62]
 687 014e 132B     		cmp	r3, #19
 688 0150 BFDD     		ble	.L35
 192:.\PeltierCalibration.c ****         }
 193:.\PeltierCalibration.c ****         tempIndex = 0;
 689              		.loc 1 193 0 is_stmt 1
 690 0152 0023     		movs	r3, #0
 691 0154 FB87     		strh	r3, [r7, #62]	@ movhi
 194:.\PeltierCalibration.c ****         tempMean = (tempMean/20)*10; // La division est faite pour ne pas depasser la limite du int
 692              		.loc 1 194 0
 693 0156 B7F93C30 		ldrsh	r3, [r7, #60]
 694 015a 3F4A     		ldr	r2, .L56+8
ARM GAS  C:\Users\plod1602\AppData\Local\Temp\cckpLv0Q.s 			page 17


 695 015c 82FB0302 		smull	r0, r2, r2, r3
 696 0160 D210     		asrs	r2, r2, #3
 697 0162 DB17     		asrs	r3, r3, #31
 698 0164 D31A     		subs	r3, r2, r3
 699 0166 9BB2     		uxth	r3, r3
 700 0168 9BB2     		uxth	r3, r3
 701 016a 1A46     		mov	r2, r3	@ movhi
 702 016c 9200     		lsls	r2, r2, #2
 703 016e 1344     		add	r3, r3, r2
 704 0170 5B00     		lsls	r3, r3, #1
 705 0172 9BB2     		uxth	r3, r3
 706 0174 BB87     		strh	r3, [r7, #60]	@ movhi
 195:.\PeltierCalibration.c **** 
 196:.\PeltierCalibration.c ****         changePeltierModuleState(peltierEnabled,moduleNumber); // Signal inH_1 and inH_2 high to en
 707              		.loc 1 196 0
 708 0176 FB78     		ldrb	r3, [r7, #3]	@ zero_extendqisi2
 709 0178 0120     		movs	r0, #1
 710 017a 1946     		mov	r1, r3
 711 017c FFF7FEFF 		bl	changePeltierModuleState
 197:.\PeltierCalibration.c ****        
 198:.\PeltierCalibration.c ****          // Partie température
 199:.\PeltierCalibration.c ****         iTemp = getThermistorTemp(moduleNumber);
 712              		.loc 1 199 0
 713 0180 FB78     		ldrb	r3, [r7, #3]	@ zero_extendqisi2
 714 0182 1846     		mov	r0, r3
 715 0184 FFF7FEFF 		bl	getThermistorTemp
 716 0188 0346     		mov	r3, r0
 717 018a A7F85230 		strh	r3, [r7, #82]	@ movhi
 200:.\PeltierCalibration.c ****         deltaValue = tempMean - iTemp;
 718              		.loc 1 200 0
 719 018e B7F93C20 		ldrsh	r2, [r7, #60]
 720 0192 B7F95230 		ldrsh	r3, [r7, #82]
 721 0196 D31A     		subs	r3, r2, r3
 722 0198 3B64     		str	r3, [r7, #64]
 201:.\PeltierCalibration.c **** 
 202:.\PeltierCalibration.c ****         //abs value
 203:.\PeltierCalibration.c ****         if(deltaValue < 0)
 723              		.loc 1 203 0
 724 019a 3B6C     		ldr	r3, [r7, #64]
 725 019c 002B     		cmp	r3, #0
 726 019e 02DA     		bge	.L36
 204:.\PeltierCalibration.c ****         {
 205:.\PeltierCalibration.c ****             deltaValue *= -1;
 727              		.loc 1 205 0
 728 01a0 3B6C     		ldr	r3, [r7, #64]
 729 01a2 5B42     		negs	r3, r3
 730 01a4 3B64     		str	r3, [r7, #64]
 731              	.L36:
 206:.\PeltierCalibration.c ****         }   
 207:.\PeltierCalibration.c ****         
 208:.\PeltierCalibration.c ****         // Setting the Peltier in cooling mode at first and creating a boolean to know when to chan
 209:.\PeltierCalibration.c ****         uint8 PeltierDirectionInversionDone = 0;
 732              		.loc 1 209 0
 733 01a6 0023     		movs	r3, #0
 734 01a8 87F83A30 		strb	r3, [r7, #58]
 210:.\PeltierCalibration.c ****         
 211:.\PeltierCalibration.c ****         if (moduleNumber == SubModule1_ID)
ARM GAS  C:\Users\plod1602\AppData\Local\Temp\cckpLv0Q.s 			page 18


 735              		.loc 1 211 0
 736 01ac FB78     		ldrb	r3, [r7, #3]	@ zero_extendqisi2
 737 01ae 012B     		cmp	r3, #1
 738 01b0 03D1     		bne	.L37
 212:.\PeltierCalibration.c ****         {
 213:.\PeltierCalibration.c ****             Peltier1_Ctrl_Write(PELTIER_COOL);                
 739              		.loc 1 213 0
 740 01b2 0120     		movs	r0, #1
 741 01b4 FFF7FEFF 		bl	Peltier1_Ctrl_Write
 742 01b8 06E0     		b	.L38
 743              	.L37:
 214:.\PeltierCalibration.c ****         }
 215:.\PeltierCalibration.c ****         else if(moduleNumber == SubModule2_ID)
 744              		.loc 1 215 0
 745 01ba FB78     		ldrb	r3, [r7, #3]	@ zero_extendqisi2
 746 01bc 022B     		cmp	r3, #2
 747 01be 03D1     		bne	.L38
 216:.\PeltierCalibration.c ****         {
 217:.\PeltierCalibration.c ****             Peltier2_Ctrl_Write(PELTIER_COOL);
 748              		.loc 1 217 0
 749 01c0 0120     		movs	r0, #1
 750 01c2 FFF7FEFF 		bl	Peltier2_Ctrl_Write
 218:.\PeltierCalibration.c ****         } 
 219:.\PeltierCalibration.c ****         
 220:.\PeltierCalibration.c ****         //TODO: Add comment here to describe loop's utility
 221:.\PeltierCalibration.c ****         while(pwmPercentageBeeingSent <= pwmDCEndValue && tempMean/100 <= maxTempTarget)
 751              		.loc 1 221 0
 752 01c6 E0E0     		b	.L39
 753              	.L38:
 754 01c8 DFE0     		b	.L39
 755              	.L54:
 222:.\PeltierCalibration.c ****         {
 223:.\PeltierCalibration.c ****             if (STOP_CALIBRATION_FLAG != 0)
 756              		.loc 1 223 0
 757 01ca 224B     		ldr	r3, .L56+4
 758 01cc 1B78     		ldrb	r3, [r3]	@ zero_extendqisi2
 759 01ce 002B     		cmp	r3, #0
 760 01d0 04D0     		beq	.L40
 224:.\PeltierCalibration.c ****             {
 225:.\PeltierCalibration.c ****                 STOP_CALIBRATION_FLAG = 0;
 761              		.loc 1 225 0
 762 01d2 204B     		ldr	r3, .L56+4
 763 01d4 0022     		movs	r2, #0
 764 01d6 1A70     		strb	r2, [r3]
 226:.\PeltierCalibration.c ****                 return CALIBRATION_STOPPED;
 765              		.loc 1 226 0
 766 01d8 1323     		movs	r3, #19
 767 01da F4E0     		b	.L55
 768              	.L40:
 227:.\PeltierCalibration.c ****             } 
 228:.\PeltierCalibration.c ****             
 229:.\PeltierCalibration.c ****             // If the pwmWriteCompareValue is negative & the Peltier direction has never been rever
 230:.\PeltierCalibration.c ****             if(pwmPercentageBeeingSent >=0 && PeltierDirectionInversionDone == 0)
 769              		.loc 1 230 0
 770 01dc BB6C     		ldr	r3, [r7, #72]
 771 01de 002B     		cmp	r3, #0
 772 01e0 13DB     		blt	.L41
ARM GAS  C:\Users\plod1602\AppData\Local\Temp\cckpLv0Q.s 			page 19


 773              		.loc 1 230 0 is_stmt 0 discriminator 1
 774 01e2 97F83A30 		ldrb	r3, [r7, #58]	@ zero_extendqisi2
 775 01e6 002B     		cmp	r3, #0
 776 01e8 0FD1     		bne	.L41
 231:.\PeltierCalibration.c ****             {
 232:.\PeltierCalibration.c ****                 // Inverser le sens du Peltier pour qu'il chauffe.
 233:.\PeltierCalibration.c ****                 if (moduleNumber == SubModule1_ID)
 777              		.loc 1 233 0 is_stmt 1
 778 01ea FB78     		ldrb	r3, [r7, #3]	@ zero_extendqisi2
 779 01ec 012B     		cmp	r3, #1
 780 01ee 03D1     		bne	.L42
 234:.\PeltierCalibration.c ****                 {
 235:.\PeltierCalibration.c ****                     Peltier1_Ctrl_Write(PELTIER_HEAT);                
 781              		.loc 1 235 0
 782 01f0 0220     		movs	r0, #2
 783 01f2 FFF7FEFF 		bl	Peltier1_Ctrl_Write
 784 01f6 05E0     		b	.L43
 785              	.L42:
 236:.\PeltierCalibration.c ****                 }
 237:.\PeltierCalibration.c ****                 else if(moduleNumber == SubModule2_ID)
 786              		.loc 1 237 0
 787 01f8 FB78     		ldrb	r3, [r7, #3]	@ zero_extendqisi2
 788 01fa 022B     		cmp	r3, #2
 789 01fc 02D1     		bne	.L43
 238:.\PeltierCalibration.c ****                 {
 239:.\PeltierCalibration.c ****                     Peltier2_Ctrl_Write(PELTIER_HEAT);
 790              		.loc 1 239 0
 791 01fe 0220     		movs	r0, #2
 792 0200 FFF7FEFF 		bl	Peltier2_Ctrl_Write
 793              	.L43:
 240:.\PeltierCalibration.c ****                 }                
 241:.\PeltierCalibration.c ****                 PeltierDirectionInversionDone = 1;            
 794              		.loc 1 241 0
 795 0204 0123     		movs	r3, #1
 796 0206 87F83A30 		strb	r3, [r7, #58]
 797              	.L41:
 242:.\PeltierCalibration.c ****             }            
 243:.\PeltierCalibration.c ****             
 244:.\PeltierCalibration.c ****             if (moduleNumber == SubModule1_ID)
 798              		.loc 1 244 0
 799 020a FB78     		ldrb	r3, [r7, #3]	@ zero_extendqisi2
 800 020c 012B     		cmp	r3, #1
 801 020e 08D1     		bne	.L44
 245:.\PeltierCalibration.c ****             {
 246:.\PeltierCalibration.c ****                 Peltier1_PWM_Ctrl_WriteCompare((pwmWriteCompareValue<0?-pwmWriteCompareValue:pwmWri
 802              		.loc 1 246 0
 803 0210 7B6C     		ldr	r3, [r7, #68]
 804 0212 002B     		cmp	r3, #0
 805 0214 B8BF     		it	lt
 806 0216 5B42     		rsblt	r3, r3, #0
 807 0218 DBB2     		uxtb	r3, r3
 808 021a 1846     		mov	r0, r3
 809 021c FFF7FEFF 		bl	Peltier1_PWM_Ctrl_WriteCompare
 810 0220 0BE0     		b	.L45
 811              	.L44:
 247:.\PeltierCalibration.c ****             }
 248:.\PeltierCalibration.c ****             else if(moduleNumber == SubModule2_ID)
ARM GAS  C:\Users\plod1602\AppData\Local\Temp\cckpLv0Q.s 			page 20


 812              		.loc 1 248 0
 813 0222 FB78     		ldrb	r3, [r7, #3]	@ zero_extendqisi2
 814 0224 022B     		cmp	r3, #2
 815 0226 08D1     		bne	.L45
 249:.\PeltierCalibration.c ****             {
 250:.\PeltierCalibration.c ****                 Peltier2_PWM_Ctrl_WriteCompare((pwmWriteCompareValue<0?-pwmWriteCompareValue:pwmWri
 816              		.loc 1 250 0
 817 0228 7B6C     		ldr	r3, [r7, #68]
 818 022a 002B     		cmp	r3, #0
 819 022c B8BF     		it	lt
 820 022e 5B42     		rsblt	r3, r3, #0
 821 0230 DBB2     		uxtb	r3, r3
 822 0232 1846     		mov	r0, r3
 823 0234 FFF7FEFF 		bl	Peltier2_PWM_Ctrl_WriteCompare
 251:.\PeltierCalibration.c ****             }
 252:.\PeltierCalibration.c ****             
 253:.\PeltierCalibration.c ****             while(tolerance_hit < NB_HIT && tempMean/100 <= maxTempTarget) // modification Kevin au
 824              		.loc 1 253 0
 825 0238 6EE0     		b	.L46
 826              	.L45:
 827 023a 6DE0     		b	.L46
 828              	.L52:
 254:.\PeltierCalibration.c ****             {                
 255:.\PeltierCalibration.c ****                 if (STOP_CALIBRATION_FLAG != 0)
 829              		.loc 1 255 0
 830 023c 054B     		ldr	r3, .L56+4
 831 023e 1B78     		ldrb	r3, [r3]	@ zero_extendqisi2
 832 0240 002B     		cmp	r3, #0
 833 0242 0BD0     		beq	.L47
 256:.\PeltierCalibration.c ****                 {
 257:.\PeltierCalibration.c ****                     STOP_CALIBRATION_FLAG = 0;
 834              		.loc 1 257 0
 835 0244 034B     		ldr	r3, .L56+4
 836 0246 0022     		movs	r2, #0
 837 0248 1A70     		strb	r2, [r3]
 258:.\PeltierCalibration.c ****                     return CALIBRATION_STOPPED;
 838              		.loc 1 258 0
 839 024a 1323     		movs	r3, #19
 840 024c BBE0     		b	.L55
 841              	.L57:
 842 024e 00BF     		.align	2
 843              	.L56:
 844 0250 1F85EB51 		.word	1374389535
 845 0254 00000000 		.word	STOP_CALIBRATION_FLAG
 846 0258 67666666 		.word	1717986919
 847              	.L47:
 259:.\PeltierCalibration.c ****                 }   
 260:.\PeltierCalibration.c ****                 
 261:.\PeltierCalibration.c ****                  // Partie température
 262:.\PeltierCalibration.c ****                 iTemp = getThermistorTemp(1);
 848              		.loc 1 262 0
 849 025c 0120     		movs	r0, #1
 850 025e FFF7FEFF 		bl	getThermistorTemp
 851 0262 0346     		mov	r3, r0
 852 0264 A7F85230 		strh	r3, [r7, #82]	@ movhi
 263:.\PeltierCalibration.c ****                 deltaValue = tempMean - iTemp;
 853              		.loc 1 263 0
ARM GAS  C:\Users\plod1602\AppData\Local\Temp\cckpLv0Q.s 			page 21


 854 0268 B7F93C20 		ldrsh	r2, [r7, #60]
 855 026c B7F95230 		ldrsh	r3, [r7, #82]
 856 0270 D31A     		subs	r3, r2, r3
 857 0272 3B64     		str	r3, [r7, #64]
 264:.\PeltierCalibration.c ****                 //abs value
 265:.\PeltierCalibration.c ****                 if(deltaValue < 0)
 858              		.loc 1 265 0
 859 0274 3B6C     		ldr	r3, [r7, #64]
 860 0276 002B     		cmp	r3, #0
 861 0278 02DA     		bge	.L48
 266:.\PeltierCalibration.c ****                 {
 267:.\PeltierCalibration.c ****                     deltaValue *= -1;
 862              		.loc 1 267 0
 863 027a 3B6C     		ldr	r3, [r7, #64]
 864 027c 5B42     		negs	r3, r3
 865 027e 3B64     		str	r3, [r7, #64]
 866              	.L48:
 268:.\PeltierCalibration.c ****                 }
 269:.\PeltierCalibration.c ****                 
 270:.\PeltierCalibration.c ****                 // Ajout Kevin
 271:.\PeltierCalibration.c ****                 if (deltaValue < TEMP_TOLERANCE)
 867              		.loc 1 271 0
 868 0280 3B6C     		ldr	r3, [r7, #64]
 869 0282 092B     		cmp	r3, #9
 870 0284 08DC     		bgt	.L50
 272:.\PeltierCalibration.c ****                 {
 273:.\PeltierCalibration.c ****                     tolerance_hit ++;
 871              		.loc 1 273 0
 872 0286 97F83B30 		ldrb	r3, [r7, #59]	@ zero_extendqisi2
 873 028a 0133     		adds	r3, r3, #1
 874 028c 87F83B30 		strb	r3, [r7, #59]
 274:.\PeltierCalibration.c ****                     sendDebugTemperature(1234);	// TODO remove when done testing (sending 12.34)
 875              		.loc 1 274 0
 876 0290 40F2D240 		movw	r0, #1234
 877 0294 FFF7FEFF 		bl	sendDebugTemperature
 878              	.L50:
 275:.\PeltierCalibration.c ****                 }
 276:.\PeltierCalibration.c ****                 else
 277:.\PeltierCalibration.c ****                 {
 278:.\PeltierCalibration.c ****                     tolerance_hit = tolerance_hit;
 279:.\PeltierCalibration.c ****                 }
 280:.\PeltierCalibration.c ****                 // Fin Ajout Kevin
 281:.\PeltierCalibration.c ****                 sendDebugTemperature(000);
 879              		.loc 1 281 0
 880 0298 0020     		movs	r0, #0
 881 029a FFF7FEFF 		bl	sendDebugTemperature
 282:.\PeltierCalibration.c ****                 sendDebugTemperature(iTemp);
 882              		.loc 1 282 0
 883 029e B7F95230 		ldrsh	r3, [r7, #82]
 884 02a2 1846     		mov	r0, r3
 885 02a4 FFF7FEFF 		bl	sendDebugTemperature
 283:.\PeltierCalibration.c ****                 sendDebugTemperature(tempMean);
 886              		.loc 1 283 0
 887 02a8 B7F93C30 		ldrsh	r3, [r7, #60]
 888 02ac 1846     		mov	r0, r3
 889 02ae FFF7FEFF 		bl	sendDebugTemperature
 284:.\PeltierCalibration.c ****                 sendDebugTemperature(deltaValue);
ARM GAS  C:\Users\plod1602\AppData\Local\Temp\cckpLv0Q.s 			page 22


 890              		.loc 1 284 0
 891 02b2 386C     		ldr	r0, [r7, #64]
 892 02b4 FFF7FEFF 		bl	sendDebugTemperature
 285:.\PeltierCalibration.c ****                 sendDebugTemperature(TEMP_TOLERANCE);
 893              		.loc 1 285 0
 894 02b8 0A20     		movs	r0, #10
 895 02ba FFF7FEFF 		bl	sendDebugTemperature
 286:.\PeltierCalibration.c ****                 CyDelay(1000);  
 896              		.loc 1 286 0
 897 02be 4FF47A70 		mov	r0, #1000
 898 02c2 FFF7FEFF 		bl	CyDelay
 287:.\PeltierCalibration.c ****                 tempIndex = (tempIndex + 1)%20;
 899              		.loc 1 287 0
 900 02c6 B7F93E30 		ldrsh	r3, [r7, #62]
 901 02ca 591C     		adds	r1, r3, #1
 902 02cc 404B     		ldr	r3, .L58
 903 02ce 83FB0123 		smull	r2, r3, r3, r1
 904 02d2 DA10     		asrs	r2, r3, #3
 905 02d4 CB17     		asrs	r3, r1, #31
 906 02d6 D21A     		subs	r2, r2, r3
 907 02d8 1346     		mov	r3, r2
 908 02da 9B00     		lsls	r3, r3, #2
 909 02dc 1344     		add	r3, r3, r2
 910 02de 9B00     		lsls	r3, r3, #2
 911 02e0 CA1A     		subs	r2, r1, r3
 912 02e2 1346     		mov	r3, r2	@ movhi
 913 02e4 FB87     		strh	r3, [r7, #62]	@ movhi
 288:.\PeltierCalibration.c ****                 pastTemp[tempIndex] = iTemp/10; // Division par 10 pour ne pas dépasser les limite
 914              		.loc 1 288 0
 915 02e6 B7F93E10 		ldrsh	r1, [r7, #62]
 916 02ea B7F95230 		ldrsh	r3, [r7, #82]
 917 02ee 384A     		ldr	r2, .L58
 918 02f0 82FB0302 		smull	r0, r2, r2, r3
 919 02f4 9210     		asrs	r2, r2, #2
 920 02f6 DB17     		asrs	r3, r3, #31
 921 02f8 D31A     		subs	r3, r2, r3
 922 02fa 9AB2     		uxth	r2, r3
 923 02fc 4B00     		lsls	r3, r1, #1
 924 02fe 07F15801 		add	r1, r7, #88
 925 0302 0B44     		add	r3, r3, r1
 926 0304 23F84C2C 		strh	r2, [r3, #-76]	@ movhi
 289:.\PeltierCalibration.c ****                 tempMean = getArrayMean(pastTemp, 20);            
 927              		.loc 1 289 0
 928 0308 07F10C03 		add	r3, r7, #12
 929 030c 1846     		mov	r0, r3
 930 030e 1421     		movs	r1, #20
 931 0310 FFF7FEFF 		bl	getArrayMean
 932 0314 0346     		mov	r3, r0
 933 0316 BB87     		strh	r3, [r7, #60]	@ movhi
 934              	.L46:
 253:.\PeltierCalibration.c ****             while(tolerance_hit < NB_HIT && tempMean/100 <= maxTempTarget) // modification Kevin au
 935              		.loc 1 253 0 discriminator 1
 936 0318 97F93B30 		ldrsb	r3, [r7, #59]
 937 031c 092B     		cmp	r3, #9
 938 031e 0CDC     		bgt	.L51
 253:.\PeltierCalibration.c ****             while(tolerance_hit < NB_HIT && tempMean/100 <= maxTempTarget) // modification Kevin au
 939              		.loc 1 253 0 is_stmt 0 discriminator 2
ARM GAS  C:\Users\plod1602\AppData\Local\Temp\cckpLv0Q.s 			page 23


 940 0320 B7F93C30 		ldrsh	r3, [r7, #60]
 941 0324 2B4A     		ldr	r2, .L58+4
 942 0326 82FB0302 		smull	r0, r2, r2, r3
 943 032a 5211     		asrs	r2, r2, #5
 944 032c DB17     		asrs	r3, r3, #31
 945 032e D31A     		subs	r3, r2, r3
 946 0330 9BB2     		uxth	r3, r3
 947 0332 1AB2     		sxth	r2, r3
 948 0334 7B68     		ldr	r3, [r7, #4]
 949 0336 9A42     		cmp	r2, r3
 950 0338 80DD     		ble	.L52
 951              	.L51:
 290:.\PeltierCalibration.c ****             }
 291:.\PeltierCalibration.c **** 
 292:.\PeltierCalibration.c ****             // Reset values for next temperature entry.
 293:.\PeltierCalibration.c ****             deltaValue = 2 * TEMP_TOLERANCE;
 952              		.loc 1 293 0 is_stmt 1
 953 033a 1423     		movs	r3, #20
 954 033c 3B64     		str	r3, [r7, #64]
 294:.\PeltierCalibration.c ****             tolerance_hit = 0;        
 955              		.loc 1 294 0
 956 033e 0023     		movs	r3, #0
 957 0340 87F83B30 		strb	r3, [r7, #59]
 295:.\PeltierCalibration.c ****             // Save calibration values in table.
 296:.\PeltierCalibration.c ****             SM1calibrationValues[calibrationPointer] = iTemp;
 958              		.loc 1 296 0
 959 0344 244B     		ldr	r3, .L58+8
 960 0346 7A6D     		ldr	r2, [r7, #84]
 961 0348 B7F85210 		ldrh	r1, [r7, #82]	@ movhi
 962 034c 23F81210 		strh	r1, [r3, r2, lsl #1]	@ movhi
 297:.\PeltierCalibration.c ****             SM1percentageValues[calibrationPointer] = pwmPercentageBeeingSent;
 963              		.loc 1 297 0
 964 0350 BB6C     		ldr	r3, [r7, #72]
 965 0352 DAB2     		uxtb	r2, r3
 966 0354 2149     		ldr	r1, .L58+12
 967 0356 7B6D     		ldr	r3, [r7, #84]
 968 0358 0B44     		add	r3, r3, r1
 969 035a 1A70     		strb	r2, [r3]
 298:.\PeltierCalibration.c ****             calibrationPointer++;
 970              		.loc 1 298 0
 971 035c 7B6D     		ldr	r3, [r7, #84]
 972 035e 0133     		adds	r3, r3, #1
 973 0360 7B65     		str	r3, [r7, #84]
 299:.\PeltierCalibration.c ****             sendDebugTemperature(iTemp);  
 974              		.loc 1 299 0
 975 0362 B7F95230 		ldrsh	r3, [r7, #82]
 976 0366 1846     		mov	r0, r3
 977 0368 FFF7FEFF 		bl	sendDebugTemperature
 300:.\PeltierCalibration.c **** 
 301:.\PeltierCalibration.c ****     		//Preparing the next value to send to the PWM to respect the % increment.
 302:.\PeltierCalibration.c ****     		pwmPercentageBeeingSent += pwmPercentageIncrement;
 978              		.loc 1 302 0
 979 036c BA6C     		ldr	r2, [r7, #72]
 980 036e 7B6B     		ldr	r3, [r7, #52]
 981 0370 1344     		add	r3, r3, r2
 982 0372 BB64     		str	r3, [r7, #72]
 303:.\PeltierCalibration.c ****             pwmWriteCompareValue = pwmPercentageBeeingSent*maxPWMPulse/100;		
ARM GAS  C:\Users\plod1602\AppData\Local\Temp\cckpLv0Q.s 			page 24


 983              		.loc 1 303 0
 984 0374 BB6C     		ldr	r3, [r7, #72]
 985 0376 FA6C     		ldr	r2, [r7, #76]
 986 0378 02FB03F3 		mul	r3, r2, r3
 987 037c 154A     		ldr	r2, .L58+4
 988 037e 82FB0312 		smull	r1, r2, r2, r3
 989 0382 5211     		asrs	r2, r2, #5
 990 0384 DB17     		asrs	r3, r3, #31
 991 0386 D31A     		subs	r3, r2, r3
 992 0388 7B64     		str	r3, [r7, #68]
 993              	.L39:
 221:.\PeltierCalibration.c ****         while(pwmPercentageBeeingSent <= pwmDCEndValue && tempMean/100 <= maxTempTarget)
 994              		.loc 1 221 0 discriminator 1
 995 038a 97F93820 		ldrsb	r2, [r7, #56]
 996 038e BB6C     		ldr	r3, [r7, #72]
 997 0390 9A42     		cmp	r2, r3
 998 0392 0DDB     		blt	.L53
 221:.\PeltierCalibration.c ****         while(pwmPercentageBeeingSent <= pwmDCEndValue && tempMean/100 <= maxTempTarget)
 999              		.loc 1 221 0 is_stmt 0 discriminator 2
 1000 0394 B7F93C30 		ldrsh	r3, [r7, #60]
 1001 0398 0E4A     		ldr	r2, .L58+4
 1002 039a 82FB0302 		smull	r0, r2, r2, r3
 1003 039e 5211     		asrs	r2, r2, #5
 1004 03a0 DB17     		asrs	r3, r3, #31
 1005 03a2 D31A     		subs	r3, r2, r3
 1006 03a4 9BB2     		uxth	r3, r3
 1007 03a6 1AB2     		sxth	r2, r3
 1008 03a8 7B68     		ldr	r3, [r7, #4]
 1009 03aa 9A42     		cmp	r2, r3
 1010 03ac 7FF70DAF 		ble	.L54
 1011              	.L53:
 304:.\PeltierCalibration.c ****         }
 305:.\PeltierCalibration.c ****         changePeltierModuleState(peltierDisabled,moduleNumber); // Sets Signal inH_1 and inH_2 of P
 1012              		.loc 1 305 0 is_stmt 1
 1013 03b0 FB78     		ldrb	r3, [r7, #3]	@ zero_extendqisi2
 1014 03b2 0020     		movs	r0, #0
 1015 03b4 1946     		mov	r1, r3
 1016 03b6 FFF7FEFF 		bl	changePeltierModuleState
 306:.\PeltierCalibration.c ****         setCalibrationTable(&SM1);
 1017              		.loc 1 306 0
 1018 03ba 0948     		ldr	r0, .L58+16
 1019 03bc FFF7FEFF 		bl	setCalibrationTable
 307:.\PeltierCalibration.c ****         return 1;        
 1020              		.loc 1 307 0
 1021 03c0 0123     		movs	r3, #1
 1022 03c2 00E0     		b	.L55
 1023              	.L29:
 1024              	.LBE4:
 308:.\PeltierCalibration.c ****     }
 309:.\PeltierCalibration.c ****     else
 310:.\PeltierCalibration.c ****     {
 311:.\PeltierCalibration.c ****         // If not using the sub module 1 nor 2, tell it to the master as I don't know where we are 
 312:.\PeltierCalibration.c ****         return BAD_SUBMODULE_NUMBER;
 1025              		.loc 1 312 0
 1026 03c4 1723     		movs	r3, #23
 1027              	.L55:
 313:.\PeltierCalibration.c ****     }
ARM GAS  C:\Users\plod1602\AppData\Local\Temp\cckpLv0Q.s 			page 25


 314:.\PeltierCalibration.c **** }
 1028              		.loc 1 314 0
 1029 03c6 1846     		mov	r0, r3
 1030 03c8 5C37     		adds	r7, r7, #92
 1031 03ca BD46     		mov	sp, r7
 1032              		@ sp needed
 1033 03cc 90BD     		pop	{r4, r7, pc}
 1034              	.L59:
 1035 03ce 00BF     		.align	2
 1036              	.L58:
 1037 03d0 67666666 		.word	1717986919
 1038 03d4 1F85EB51 		.word	1374389535
 1039 03d8 00000000 		.word	SM1calibrationValues
 1040 03dc 00000000 		.word	SM1percentageValues
 1041 03e0 00000000 		.word	SM1
 1042              		.cfi_endproc
 1043              	.LFE59:
 1044              		.size	calibration, .-calibration
 1045              		.section	.text.getArrayMean,"ax",%progbits
 1046              		.align	2
 1047              		.global	getArrayMean
 1048              		.thumb
 1049              		.thumb_func
 1050              		.type	getArrayMean, %function
 1051              	getArrayMean:
 1052              	.LFB60:
 315:.\PeltierCalibration.c **** 
 316:.\PeltierCalibration.c **** int16 getArrayMean(int16* tab, int16 size)
 317:.\PeltierCalibration.c **** {
 1053              		.loc 1 317 0
 1054              		.cfi_startproc
 1055              		@ args = 0, pretend = 0, frame = 16
 1056              		@ frame_needed = 1, uses_anonymous_args = 0
 1057              		@ link register save eliminated.
 1058 0000 80B4     		push	{r7}
 1059              		.cfi_def_cfa_offset 4
 1060              		.cfi_offset 7, -4
 1061 0002 85B0     		sub	sp, sp, #20
 1062              		.cfi_def_cfa_offset 24
 1063 0004 00AF     		add	r7, sp, #0
 1064              		.cfi_def_cfa_register 7
 1065 0006 7860     		str	r0, [r7, #4]
 1066 0008 0B46     		mov	r3, r1
 1067 000a 7B80     		strh	r3, [r7, #2]	@ movhi
 318:.\PeltierCalibration.c ****     int i = 0;
 1068              		.loc 1 318 0
 1069 000c 0023     		movs	r3, #0
 1070 000e FB60     		str	r3, [r7, #12]
 319:.\PeltierCalibration.c ****     int16 mean = 0;
 1071              		.loc 1 319 0
 1072 0010 0023     		movs	r3, #0
 1073 0012 7B81     		strh	r3, [r7, #10]	@ movhi
 320:.\PeltierCalibration.c ****     for(i = 0; i < size; i++)
 1074              		.loc 1 320 0
 1075 0014 0023     		movs	r3, #0
 1076 0016 FB60     		str	r3, [r7, #12]
 1077 0018 11E0     		b	.L61
ARM GAS  C:\Users\plod1602\AppData\Local\Temp\cckpLv0Q.s 			page 26


 1078              	.L62:
 321:.\PeltierCalibration.c ****     {
 322:.\PeltierCalibration.c ****         mean += tab[i]/size;
 1079              		.loc 1 322 0 discriminator 2
 1080 001a FB68     		ldr	r3, [r7, #12]
 1081 001c 5B00     		lsls	r3, r3, #1
 1082 001e 7A68     		ldr	r2, [r7, #4]
 1083 0020 1344     		add	r3, r3, r2
 1084 0022 1B88     		ldrh	r3, [r3]
 1085 0024 1AB2     		sxth	r2, r3
 1086 0026 B7F90230 		ldrsh	r3, [r7, #2]
 1087 002a 92FBF3F3 		sdiv	r3, r2, r3
 1088 002e 9AB2     		uxth	r2, r3
 1089 0030 7B89     		ldrh	r3, [r7, #10]
 1090 0032 1344     		add	r3, r3, r2
 1091 0034 9BB2     		uxth	r3, r3
 1092 0036 7B81     		strh	r3, [r7, #10]	@ movhi
 320:.\PeltierCalibration.c ****     for(i = 0; i < size; i++)
 1093              		.loc 1 320 0 discriminator 2
 1094 0038 FB68     		ldr	r3, [r7, #12]
 1095 003a 0133     		adds	r3, r3, #1
 1096 003c FB60     		str	r3, [r7, #12]
 1097              	.L61:
 320:.\PeltierCalibration.c ****     for(i = 0; i < size; i++)
 1098              		.loc 1 320 0 is_stmt 0 discriminator 1
 1099 003e B7F90220 		ldrsh	r2, [r7, #2]
 1100 0042 FB68     		ldr	r3, [r7, #12]
 1101 0044 9A42     		cmp	r2, r3
 1102 0046 E8DC     		bgt	.L62
 323:.\PeltierCalibration.c ****     }
 324:.\PeltierCalibration.c ****     return mean; // Multiplication par 10 pour ne pas dépasser les limites du int16
 1103              		.loc 1 324 0 is_stmt 1
 1104 0048 7B89     		ldrh	r3, [r7, #10]
 1105 004a 1BB2     		sxth	r3, r3
 325:.\PeltierCalibration.c **** }
 1106              		.loc 1 325 0
 1107 004c 1846     		mov	r0, r3
 1108 004e 1437     		adds	r7, r7, #20
 1109 0050 BD46     		mov	sp, r7
 1110              		@ sp needed
 1111 0052 5DF8047B 		ldr	r7, [sp], #4
 1112 0056 7047     		bx	lr
 1113              		.cfi_endproc
 1114              	.LFE60:
 1115              		.size	getArrayMean, .-getArrayMean
 1116              		.global	__aeabi_fdiv
 1117              		.global	__aeabi_f2d
 1118              		.global	__aeabi_dsub
 1119              		.global	__aeabi_dcmplt
 1120              		.global	__aeabi_d2iz
 1121              		.global	__aeabi_dcmpgt
 1122              		.section	.text.controlTemperature,"ax",%progbits
 1123              		.align	2
 1124              		.global	controlTemperature
 1125              		.thumb
 1126              		.thumb_func
 1127              		.type	controlTemperature, %function
ARM GAS  C:\Users\plod1602\AppData\Local\Temp\cckpLv0Q.s 			page 27


 1128              	controlTemperature:
 1129              	.LFB61:
 326:.\PeltierCalibration.c **** 
 327:.\PeltierCalibration.c **** /*===========================================================================*/
 328:.\PeltierCalibration.c **** // Used to send commands to Peltier elements to cool or heat the plate
 329:.\PeltierCalibration.c **** void controlTemperature(float actualTemperature, uint8 moduleNumber, int16 targetTemperature)
 330:.\PeltierCalibration.c **** {
 1130              		.loc 1 330 0
 1131              		.cfi_startproc
 1132              		@ args = 0, pretend = 0, frame = 24
 1133              		@ frame_needed = 1, uses_anonymous_args = 0
 1134 0000 80B5     		push	{r7, lr}
 1135              		.cfi_def_cfa_offset 8
 1136              		.cfi_offset 7, -8
 1137              		.cfi_offset 14, -4
 1138 0002 86B0     		sub	sp, sp, #24
 1139              		.cfi_def_cfa_offset 32
 1140 0004 00AF     		add	r7, sp, #0
 1141              		.cfi_def_cfa_register 7
 1142 0006 7860     		str	r0, [r7, #4]	@ float
 1143 0008 1346     		mov	r3, r2
 1144 000a 0A46     		mov	r2, r1
 1145 000c FA70     		strb	r2, [r7, #3]
 1146 000e 3B80     		strh	r3, [r7]	@ movhi
 331:.\PeltierCalibration.c ****     double temp = actualTemperature/100;
 1147              		.loc 1 331 0
 1148 0010 7868     		ldr	r0, [r7, #4]	@ float
 1149 0012 3149     		ldr	r1, .L74+16
 1150 0014 FFF7FEFF 		bl	__aeabi_fdiv
 1151 0018 0346     		mov	r3, r0
 1152 001a 1846     		mov	r0, r3
 1153 001c FFF7FEFF 		bl	__aeabi_f2d
 1154 0020 0246     		mov	r2, r0
 1155 0022 0B46     		mov	r3, r1
 1156 0024 C7E90423 		strd	r2, [r7, #16]
 332:.\PeltierCalibration.c ****     double diff = temp - targetTemp;
 1157              		.loc 1 332 0
 1158 0028 2C4B     		ldr	r3, .L74+20
 1159 002a D3E90023 		ldrd	r2, [r3]
 1160 002e D7E90401 		ldrd	r0, [r7, #16]
 1161 0032 FFF7FEFF 		bl	__aeabi_dsub
 1162 0036 0246     		mov	r2, r0
 1163 0038 0B46     		mov	r3, r1
 1164 003a C7E90223 		strd	r2, [r7, #8]
 333:.\PeltierCalibration.c ****       
 334:.\PeltierCalibration.c ****     if(diff < -0.1) // Need to heat
 1165              		.loc 1 334 0
 1166 003e D7E90201 		ldrd	r0, [r7, #8]
 1167 0042 21A3     		adr	r3, .L74
 1168 0044 D3E90023 		ldrd	r2, [r3]
 1169 0048 FFF7FEFF 		bl	__aeabi_dcmplt
 1170 004c 0346     		mov	r3, r0
 1171 004e 002B     		cmp	r3, #0
 1172 0050 15D0     		beq	.L72
 335:.\PeltierCalibration.c ****     {
 336:.\PeltierCalibration.c ****         diff = -1*diff;
 1173              		.loc 1 336 0
ARM GAS  C:\Users\plod1602\AppData\Local\Temp\cckpLv0Q.s 			page 28


 1174 0052 BB68     		ldr	r3, [r7, #8]
 1175 0054 BB60     		str	r3, [r7, #8]
 1176 0056 FB68     		ldr	r3, [r7, #12]
 1177 0058 83F00043 		eor	r3, r3, #-2147483648
 1178 005c FB60     		str	r3, [r7, #12]
 337:.\PeltierCalibration.c ****         
 338:.\PeltierCalibration.c ****         LED_Write(1);
 1179              		.loc 1 338 0
 1180 005e 0120     		movs	r0, #1
 1181 0060 FFF7FEFF 		bl	LED_Write
 339:.\PeltierCalibration.c ****         peltierControl(PELTIER_HEAT, (int)diff, moduleNumber, 0); // target temperature is not impo
 1182              		.loc 1 339 0
 1183 0064 D7E90201 		ldrd	r0, [r7, #8]
 1184 0068 FFF7FEFF 		bl	__aeabi_d2iz
 1185 006c 0246     		mov	r2, r0
 1186 006e FB78     		ldrb	r3, [r7, #3]	@ zero_extendqisi2
 1187 0070 0220     		movs	r0, #2
 1188 0072 1146     		mov	r1, r2
 1189 0074 1A46     		mov	r2, r3
 1190 0076 0023     		movs	r3, #0
 1191 0078 FFF7FEFF 		bl	peltierControl
 1192 007c 20E0     		b	.L64
 1193              	.L72:
 340:.\PeltierCalibration.c ****     }
 341:.\PeltierCalibration.c ****     else if(diff > 0.1) // Need to cool
 1194              		.loc 1 341 0
 1195 007e D7E90201 		ldrd	r0, [r7, #8]
 1196 0082 13A3     		adr	r3, .L74+8
 1197 0084 D3E90023 		ldrd	r2, [r3]
 1198 0088 FFF7FEFF 		bl	__aeabi_dcmpgt
 1199 008c 0346     		mov	r3, r0
 1200 008e 002B     		cmp	r3, #0
 1201 0090 0FD0     		beq	.L73
 342:.\PeltierCalibration.c ****     {        
 343:.\PeltierCalibration.c ****         LED_Write(1);
 1202              		.loc 1 343 0
 1203 0092 0120     		movs	r0, #1
 1204 0094 FFF7FEFF 		bl	LED_Write
 344:.\PeltierCalibration.c ****         peltierControl(PELTIER_COOL, (int)diff, moduleNumber, 0); // target temperature is not impo
 1205              		.loc 1 344 0
 1206 0098 D7E90201 		ldrd	r0, [r7, #8]
 1207 009c FFF7FEFF 		bl	__aeabi_d2iz
 1208 00a0 0246     		mov	r2, r0
 1209 00a2 FB78     		ldrb	r3, [r7, #3]	@ zero_extendqisi2
 1210 00a4 0120     		movs	r0, #1
 1211 00a6 1146     		mov	r1, r2
 1212 00a8 1A46     		mov	r2, r3
 1213 00aa 0023     		movs	r3, #0
 1214 00ac FFF7FEFF 		bl	peltierControl
 1215 00b0 06E0     		b	.L64
 1216              	.L73:
 345:.\PeltierCalibration.c ****     }
 346:.\PeltierCalibration.c ****     else
 347:.\PeltierCalibration.c ****     {
 348:.\PeltierCalibration.c ****         peltierControl(PELTIER_MAINTAIN, 0, moduleNumber, targetTemperature);   
 1217              		.loc 1 348 0
 1218 00b2 B7F90030 		ldrsh	r3, [r7]
ARM GAS  C:\Users\plod1602\AppData\Local\Temp\cckpLv0Q.s 			page 29


 1219 00b6 FA78     		ldrb	r2, [r7, #3]	@ zero_extendqisi2
 1220 00b8 0220     		movs	r0, #2
 1221 00ba 0021     		movs	r1, #0
 1222 00bc FFF7FEFF 		bl	peltierControl
 1223              	.L64:
 349:.\PeltierCalibration.c ****     }
 350:.\PeltierCalibration.c **** }
 1224              		.loc 1 350 0
 1225 00c0 1837     		adds	r7, r7, #24
 1226 00c2 BD46     		mov	sp, r7
 1227              		@ sp needed
 1228 00c4 80BD     		pop	{r7, pc}
 1229              	.L75:
 1230 00c6 00BF     		.align	3
 1231              	.L74:
 1232 00c8 9A999999 		.word	-1717986918
 1233 00cc 9999B9BF 		.word	-1078355559
 1234 00d0 9A999999 		.word	-1717986918
 1235 00d4 9999B93F 		.word	1069128089
 1236 00d8 0000C842 		.word	1120403456
 1237 00dc 00000000 		.word	targetTemp
 1238              		.cfi_endproc
 1239              	.LFE61:
 1240              		.size	controlTemperature, .-controlTemperature
 1241              		.global	__aeabi_i2d
 1242              		.global	__aeabi_ddiv
 1243              		.global	__aeabi_dadd
 1244              		.section	.text.peltierControl,"ax",%progbits
 1245              		.align	2
 1246              		.global	peltierControl
 1247              		.thumb
 1248              		.thumb_func
 1249              		.type	peltierControl, %function
 1250              	peltierControl:
 1251              	.LFB62:
 351:.\PeltierCalibration.c **** 
 352:.\PeltierCalibration.c **** /*===========================================================================*/
 353:.\PeltierCalibration.c **** // Should not be called directly, will be called by "controlTemperature" function
 354:.\PeltierCalibration.c **** void peltierControl(int function, int diff, uint8 moduleNumber, int targetTemperature)
 355:.\PeltierCalibration.c **** {
 1252              		.loc 1 355 0
 1253              		.cfi_startproc
 1254              		@ args = 0, pretend = 0, frame = 32
 1255              		@ frame_needed = 1, uses_anonymous_args = 0
 1256 0000 80B5     		push	{r7, lr}
 1257              		.cfi_def_cfa_offset 8
 1258              		.cfi_offset 7, -8
 1259              		.cfi_offset 14, -4
 1260 0002 88B0     		sub	sp, sp, #32
 1261              		.cfi_def_cfa_offset 40
 1262 0004 00AF     		add	r7, sp, #0
 1263              		.cfi_def_cfa_register 7
 1264 0006 F860     		str	r0, [r7, #12]
 1265 0008 B960     		str	r1, [r7, #8]
 1266 000a 3B60     		str	r3, [r7]
 1267 000c 1346     		mov	r3, r2
 1268 000e FB71     		strb	r3, [r7, #7]
ARM GAS  C:\Users\plod1602\AppData\Local\Temp\cckpLv0Q.s 			page 30


 356:.\PeltierCalibration.c ****     double controlValue;
 357:.\PeltierCalibration.c ****     if(function == PELTIER_COOL )
 1269              		.loc 1 357 0
 1270 0010 FB68     		ldr	r3, [r7, #12]
 1271 0012 012B     		cmp	r3, #1
 1272 0014 4CD1     		bne	.L77
 1273              	.LBB5:
 358:.\PeltierCalibration.c ****     {
 359:.\PeltierCalibration.c ****         //double controlValue = (0.3+((0.000625*pow(diff,2))/3.08))*480; // Calculated from desired
 360:.\PeltierCalibration.c ****         if(diff>10)
 1274              		.loc 1 360 0
 1275 0016 BB68     		ldr	r3, [r7, #8]
 1276 0018 0A2B     		cmp	r3, #10
 1277 001a 05DD     		ble	.L78
 361:.\PeltierCalibration.c ****         {
 362:.\PeltierCalibration.c ****             controlValue = 300;
 1278              		.loc 1 362 0
 1279 001c 62A3     		adr	r3, .L92
 1280 001e D3E90023 		ldrd	r2, [r3]
 1281 0022 C7E90623 		strd	r2, [r7, #24]
 1282 0026 1AE0     		b	.L79
 1283              	.L78:
 363:.\PeltierCalibration.c ****         }
 364:.\PeltierCalibration.c ****         else
 365:.\PeltierCalibration.c ****         {
 366:.\PeltierCalibration.c ****            controlValue = ((4*diff)/0.595)+132; // See excel for reference ramp 
 1284              		.loc 1 366 0
 1285 0028 BB68     		ldr	r3, [r7, #8]
 1286 002a 9B00     		lsls	r3, r3, #2
 1287 002c 1846     		mov	r0, r3
 1288 002e FFF7FEFF 		bl	__aeabi_i2d
 1289 0032 0246     		mov	r2, r0
 1290 0034 0B46     		mov	r3, r1
 1291 0036 1046     		mov	r0, r2
 1292 0038 1946     		mov	r1, r3
 1293 003a 5DA3     		adr	r3, .L92+8
 1294 003c D3E90023 		ldrd	r2, [r3]
 1295 0040 FFF7FEFF 		bl	__aeabi_ddiv
 1296 0044 0246     		mov	r2, r0
 1297 0046 0B46     		mov	r3, r1
 1298 0048 1046     		mov	r0, r2
 1299 004a 1946     		mov	r1, r3
 1300 004c 4FF00002 		mov	r2, #0
 1301 0050 5B4B     		ldr	r3, .L92+24
 1302 0052 FFF7FEFF 		bl	__aeabi_dadd
 1303 0056 0246     		mov	r2, r0
 1304 0058 0B46     		mov	r3, r1
 1305 005a C7E90623 		strd	r2, [r7, #24]
 1306              	.L79:
 367:.\PeltierCalibration.c ****         }        
 368:.\PeltierCalibration.c ****         int val = (int)controlValue;
 1307              		.loc 1 368 0
 1308 005e D7E90601 		ldrd	r0, [r7, #24]
 1309 0062 FFF7FEFF 		bl	__aeabi_d2iz
 1310 0066 0346     		mov	r3, r0
 1311 0068 7B61     		str	r3, [r7, #20]
 369:.\PeltierCalibration.c ****         
ARM GAS  C:\Users\plod1602\AppData\Local\Temp\cckpLv0Q.s 			page 31


 370:.\PeltierCalibration.c ****         // Deactivate the desired Peltier Element.
 371:.\PeltierCalibration.c ****         changePeltierModuleState(0,moduleNumber); 
 1312              		.loc 1 371 0
 1313 006a FB79     		ldrb	r3, [r7, #7]	@ zero_extendqisi2
 1314 006c 0020     		movs	r0, #0
 1315 006e 1946     		mov	r1, r3
 1316 0070 FFF7FEFF 		bl	changePeltierModuleState
 372:.\PeltierCalibration.c ****         
 373:.\PeltierCalibration.c ****         // changes PWM value, affecting Peltier's power
 374:.\PeltierCalibration.c ****         if (moduleNumber == 1)
 1317              		.loc 1 374 0
 1318 0074 FB79     		ldrb	r3, [r7, #7]	@ zero_extendqisi2
 1319 0076 012B     		cmp	r3, #1
 1320 0078 05D1     		bne	.L80
 375:.\PeltierCalibration.c ****         {
 376:.\PeltierCalibration.c ****             Peltier1_PWM_Ctrl_WriteCompare(val);
 1321              		.loc 1 376 0
 1322 007a 7B69     		ldr	r3, [r7, #20]
 1323 007c DBB2     		uxtb	r3, r3
 1324 007e 1846     		mov	r0, r3
 1325 0080 FFF7FEFF 		bl	Peltier1_PWM_Ctrl_WriteCompare
 1326 0084 07E0     		b	.L81
 1327              	.L80:
 377:.\PeltierCalibration.c ****         }
 378:.\PeltierCalibration.c ****         else if (moduleNumber == 2)
 1328              		.loc 1 378 0
 1329 0086 FB79     		ldrb	r3, [r7, #7]	@ zero_extendqisi2
 1330 0088 022B     		cmp	r3, #2
 1331 008a 04D1     		bne	.L81
 379:.\PeltierCalibration.c ****         {
 380:.\PeltierCalibration.c ****             Peltier2_PWM_Ctrl_WriteCompare(val);
 1332              		.loc 1 380 0
 1333 008c 7B69     		ldr	r3, [r7, #20]
 1334 008e DBB2     		uxtb	r3, r3
 1335 0090 1846     		mov	r0, r3
 1336 0092 FFF7FEFF 		bl	Peltier2_PWM_Ctrl_WriteCompare
 1337              	.L81:
 381:.\PeltierCalibration.c ****         }
 382:.\PeltierCalibration.c ****         
 383:.\PeltierCalibration.c ****         // Sets the H_bridge to heat or cool depending on the parameter passed
 384:.\PeltierCalibration.c ****         changePeltierModuleCurrentDirection(function, moduleNumber);
 1338              		.loc 1 384 0 discriminator 1
 1339 0096 FB68     		ldr	r3, [r7, #12]
 1340 0098 DAB2     		uxtb	r2, r3
 1341 009a FB79     		ldrb	r3, [r7, #7]	@ zero_extendqisi2
 1342 009c 1046     		mov	r0, r2
 1343 009e 1946     		mov	r1, r3
 1344 00a0 FFF7FEFF 		bl	changePeltierModuleCurrentDirection
 385:.\PeltierCalibration.c ****         
 386:.\PeltierCalibration.c ****         // Reactivate the desired Peltier Element.
 387:.\PeltierCalibration.c ****         changePeltierModuleState(1,moduleNumber);
 1345              		.loc 1 387 0 discriminator 1
 1346 00a4 FB79     		ldrb	r3, [r7, #7]	@ zero_extendqisi2
 1347 00a6 0120     		movs	r0, #1
 1348 00a8 1946     		mov	r1, r3
 1349 00aa FFF7FEFF 		bl	changePeltierModuleState
 1350              	.LBE5:
ARM GAS  C:\Users\plod1602\AppData\Local\Temp\cckpLv0Q.s 			page 32


 1351 00ae 77E0     		b	.L76
 1352              	.L77:
 388:.\PeltierCalibration.c ****         
 389:.\PeltierCalibration.c ****         //Peltier_on_Write(0u);   // deactivates peltier element
 390:.\PeltierCalibration.c ****         //LED_Write(0u);          
 391:.\PeltierCalibration.c ****         //peltierPWM_WriteCompare(val);       // changes PWM value, affecting Peltier's power
 392:.\PeltierCalibration.c ****         //peltier_control_Write(function);    // Sets the H_bridge to heat or cool depending on the
 393:.\PeltierCalibration.c ****         ////peltierPWM_Start();
 394:.\PeltierCalibration.c ****         //Peltier_on_Write(1u);   // Signal inH_1 and inH_2   
 395:.\PeltierCalibration.c ****     }
 396:.\PeltierCalibration.c ****     else if(function ==  PELTIER_HEAT)
 1353              		.loc 1 396 0
 1354 00b0 FB68     		ldr	r3, [r7, #12]
 1355 00b2 022B     		cmp	r3, #2
 1356 00b4 4CD1     		bne	.L83
 1357              	.LBB6:
 397:.\PeltierCalibration.c ****     {
 398:.\PeltierCalibration.c ****         //double controlValue = (0.3+((0.000625*pow(diff,2))/2))*480; // Calculated from desired ra
 399:.\PeltierCalibration.c ****         if(diff>20)
 1358              		.loc 1 399 0
 1359 00b6 BB68     		ldr	r3, [r7, #8]
 1360 00b8 142B     		cmp	r3, #20
 1361 00ba 05DD     		ble	.L84
 400:.\PeltierCalibration.c ****         {
 401:.\PeltierCalibration.c ****             controlValue = 384;
 1362              		.loc 1 401 0
 1363 00bc 4FF00002 		mov	r2, #0
 1364 00c0 404B     		ldr	r3, .L92+28
 1365 00c2 C7E90623 		strd	r2, [r7, #24]
 1366 00c6 1AE0     		b	.L85
 1367              	.L84:
 402:.\PeltierCalibration.c ****         }
 403:.\PeltierCalibration.c ****         else
 404:.\PeltierCalibration.c ****         {
 405:.\PeltierCalibration.c ****            controlValue = ((4*diff)/0.396)+132; // See excel for reference ramp 
 1368              		.loc 1 405 0
 1369 00c8 BB68     		ldr	r3, [r7, #8]
 1370 00ca 9B00     		lsls	r3, r3, #2
 1371 00cc 1846     		mov	r0, r3
 1372 00ce FFF7FEFF 		bl	__aeabi_i2d
 1373 00d2 0246     		mov	r2, r0
 1374 00d4 0B46     		mov	r3, r1
 1375 00d6 1046     		mov	r0, r2
 1376 00d8 1946     		mov	r1, r3
 1377 00da 37A3     		adr	r3, .L92+16
 1378 00dc D3E90023 		ldrd	r2, [r3]
 1379 00e0 FFF7FEFF 		bl	__aeabi_ddiv
 1380 00e4 0246     		mov	r2, r0
 1381 00e6 0B46     		mov	r3, r1
 1382 00e8 1046     		mov	r0, r2
 1383 00ea 1946     		mov	r1, r3
 1384 00ec 4FF00002 		mov	r2, #0
 1385 00f0 334B     		ldr	r3, .L92+24
 1386 00f2 FFF7FEFF 		bl	__aeabi_dadd
 1387 00f6 0246     		mov	r2, r0
 1388 00f8 0B46     		mov	r3, r1
 1389 00fa C7E90623 		strd	r2, [r7, #24]
ARM GAS  C:\Users\plod1602\AppData\Local\Temp\cckpLv0Q.s 			page 33


 1390              	.L85:
 406:.\PeltierCalibration.c ****         } 
 407:.\PeltierCalibration.c ****         int val = (int)controlValue;
 1391              		.loc 1 407 0
 1392 00fe D7E90601 		ldrd	r0, [r7, #24]
 1393 0102 FFF7FEFF 		bl	__aeabi_d2iz
 1394 0106 0346     		mov	r3, r0
 1395 0108 3B61     		str	r3, [r7, #16]
 408:.\PeltierCalibration.c ****         
 409:.\PeltierCalibration.c ****         // Deactivate the desired Peltier Element.
 410:.\PeltierCalibration.c ****         changePeltierModuleState(0,moduleNumber); 
 1396              		.loc 1 410 0
 1397 010a FB79     		ldrb	r3, [r7, #7]	@ zero_extendqisi2
 1398 010c 0020     		movs	r0, #0
 1399 010e 1946     		mov	r1, r3
 1400 0110 FFF7FEFF 		bl	changePeltierModuleState
 411:.\PeltierCalibration.c ****         
 412:.\PeltierCalibration.c ****         // changes PWM value, affecting Peltier's power
 413:.\PeltierCalibration.c ****         if (moduleNumber == 1)
 1401              		.loc 1 413 0
 1402 0114 FB79     		ldrb	r3, [r7, #7]	@ zero_extendqisi2
 1403 0116 012B     		cmp	r3, #1
 1404 0118 05D1     		bne	.L86
 414:.\PeltierCalibration.c ****         {
 415:.\PeltierCalibration.c ****             Peltier1_PWM_Ctrl_WriteCompare(val);
 1405              		.loc 1 415 0
 1406 011a 3B69     		ldr	r3, [r7, #16]
 1407 011c DBB2     		uxtb	r3, r3
 1408 011e 1846     		mov	r0, r3
 1409 0120 FFF7FEFF 		bl	Peltier1_PWM_Ctrl_WriteCompare
 1410 0124 07E0     		b	.L87
 1411              	.L86:
 416:.\PeltierCalibration.c ****         }
 417:.\PeltierCalibration.c ****         else if (moduleNumber == 2)
 1412              		.loc 1 417 0
 1413 0126 FB79     		ldrb	r3, [r7, #7]	@ zero_extendqisi2
 1414 0128 022B     		cmp	r3, #2
 1415 012a 04D1     		bne	.L87
 418:.\PeltierCalibration.c ****         {
 419:.\PeltierCalibration.c ****             Peltier2_PWM_Ctrl_WriteCompare(val);
 1416              		.loc 1 419 0
 1417 012c 3B69     		ldr	r3, [r7, #16]
 1418 012e DBB2     		uxtb	r3, r3
 1419 0130 1846     		mov	r0, r3
 1420 0132 FFF7FEFF 		bl	Peltier2_PWM_Ctrl_WriteCompare
 1421              	.L87:
 420:.\PeltierCalibration.c ****         }
 421:.\PeltierCalibration.c ****         
 422:.\PeltierCalibration.c ****         // Sets the H_bridge to heat or cool depending on the parameter passed
 423:.\PeltierCalibration.c ****         changePeltierModuleCurrentDirection(function, moduleNumber);
 1422              		.loc 1 423 0 discriminator 1
 1423 0136 FB68     		ldr	r3, [r7, #12]
 1424 0138 DAB2     		uxtb	r2, r3
 1425 013a FB79     		ldrb	r3, [r7, #7]	@ zero_extendqisi2
 1426 013c 1046     		mov	r0, r2
 1427 013e 1946     		mov	r1, r3
 1428 0140 FFF7FEFF 		bl	changePeltierModuleCurrentDirection
ARM GAS  C:\Users\plod1602\AppData\Local\Temp\cckpLv0Q.s 			page 34


 424:.\PeltierCalibration.c ****         
 425:.\PeltierCalibration.c ****         // Reactivate the desired Peltier Element.
 426:.\PeltierCalibration.c ****         changePeltierModuleState(1,moduleNumber);
 1429              		.loc 1 426 0 discriminator 1
 1430 0144 FB79     		ldrb	r3, [r7, #7]	@ zero_extendqisi2
 1431 0146 0120     		movs	r0, #1
 1432 0148 1946     		mov	r1, r3
 1433 014a FFF7FEFF 		bl	changePeltierModuleState
 1434              	.LBE6:
 1435 014e 27E0     		b	.L76
 1436              	.L83:
 427:.\PeltierCalibration.c ****         
 428:.\PeltierCalibration.c ****         //Peltier_on_Write(0u);
 429:.\PeltierCalibration.c ****         //peltierPWM_WriteCompare(val);
 430:.\PeltierCalibration.c ****         //peltier_control_Write(function);    // Sets the H_bridge to heat or cool depending on the
 431:.\PeltierCalibration.c ****         ////peltierPWM_Start();
 432:.\PeltierCalibration.c ****         //Peltier_on_Write(1u);   // Signal inH_1 and inH_2        
 433:.\PeltierCalibration.c ****     }    
 434:.\PeltierCalibration.c ****     else if(function == PELTIER_MAINTAIN)   // Never called
 1437              		.loc 1 434 0
 1438 0150 FB68     		ldr	r3, [r7, #12]
 1439 0152 022B     		cmp	r3, #2
 1440 0154 24D1     		bne	.L76
 435:.\PeltierCalibration.c ****     {
 436:.\PeltierCalibration.c ****         // Deactivate the desired Peltier Element.
 437:.\PeltierCalibration.c ****         changePeltierModuleState(0,moduleNumber);
 1441              		.loc 1 437 0
 1442 0156 FB79     		ldrb	r3, [r7, #7]	@ zero_extendqisi2
 1443 0158 0020     		movs	r0, #0
 1444 015a 1946     		mov	r1, r3
 1445 015c FFF7FEFF 		bl	changePeltierModuleState
 438:.\PeltierCalibration.c ****         
 439:.\PeltierCalibration.c ****         if (targetTemperature>25)
 1446              		.loc 1 439 0
 1447 0160 3B68     		ldr	r3, [r7]
 1448 0162 192B     		cmp	r3, #25
 1449 0164 05DD     		ble	.L88
 440:.\PeltierCalibration.c ****         {
 441:.\PeltierCalibration.c ****             // Sets the H_bridge to heat or cool depending on the parameter passed
 442:.\PeltierCalibration.c ****             changePeltierModuleCurrentDirection(PELTIER_HEAT, moduleNumber);
 1450              		.loc 1 442 0
 1451 0166 FB79     		ldrb	r3, [r7, #7]	@ zero_extendqisi2
 1452 0168 0220     		movs	r0, #2
 1453 016a 1946     		mov	r1, r3
 1454 016c FFF7FEFF 		bl	changePeltierModuleCurrentDirection
 1455 0170 04E0     		b	.L89
 1456              	.L88:
 443:.\PeltierCalibration.c ****         }
 444:.\PeltierCalibration.c ****         else
 445:.\PeltierCalibration.c ****         {
 446:.\PeltierCalibration.c ****             // Sets the H_bridge to heat or cool depending on the parameter passed
 447:.\PeltierCalibration.c ****             changePeltierModuleCurrentDirection(PELTIER_COOL, moduleNumber);            
 1457              		.loc 1 447 0
 1458 0172 FB79     		ldrb	r3, [r7, #7]	@ zero_extendqisi2
 1459 0174 0120     		movs	r0, #1
 1460 0176 1946     		mov	r1, r3
 1461 0178 FFF7FEFF 		bl	changePeltierModuleCurrentDirection
ARM GAS  C:\Users\plod1602\AppData\Local\Temp\cckpLv0Q.s 			page 35


 1462              	.L89:
 448:.\PeltierCalibration.c ****         } 
 449:.\PeltierCalibration.c ****         
 450:.\PeltierCalibration.c ****         // changes PWM value, affecting Peltier's power
 451:.\PeltierCalibration.c ****         if (moduleNumber == 1)
 1463              		.loc 1 451 0
 1464 017c FB79     		ldrb	r3, [r7, #7]	@ zero_extendqisi2
 1465 017e 012B     		cmp	r3, #1
 1466 0180 03D1     		bne	.L90
 452:.\PeltierCalibration.c ****         {
 453:.\PeltierCalibration.c ****             Peltier1_PWM_Ctrl_WriteCompare(100);
 1467              		.loc 1 453 0
 1468 0182 6420     		movs	r0, #100
 1469 0184 FFF7FEFF 		bl	Peltier1_PWM_Ctrl_WriteCompare
 1470 0188 05E0     		b	.L91
 1471              	.L90:
 454:.\PeltierCalibration.c ****         }
 455:.\PeltierCalibration.c ****         else if (moduleNumber == 2)
 1472              		.loc 1 455 0
 1473 018a FB79     		ldrb	r3, [r7, #7]	@ zero_extendqisi2
 1474 018c 022B     		cmp	r3, #2
 1475 018e 02D1     		bne	.L91
 456:.\PeltierCalibration.c ****         {
 457:.\PeltierCalibration.c ****             Peltier2_PWM_Ctrl_WriteCompare(100);
 1476              		.loc 1 457 0
 1477 0190 6420     		movs	r0, #100
 1478 0192 FFF7FEFF 		bl	Peltier2_PWM_Ctrl_WriteCompare
 1479              	.L91:
 458:.\PeltierCalibration.c ****         }
 459:.\PeltierCalibration.c ****         
 460:.\PeltierCalibration.c ****         // Reactivate the desired Peltier Element.
 461:.\PeltierCalibration.c ****         changePeltierModuleState(1,moduleNumber);
 1480              		.loc 1 461 0
 1481 0196 FB79     		ldrb	r3, [r7, #7]	@ zero_extendqisi2
 1482 0198 0120     		movs	r0, #1
 1483 019a 1946     		mov	r1, r3
 1484 019c FFF7FEFF 		bl	changePeltierModuleState
 1485              	.L76:
 462:.\PeltierCalibration.c ****         
 463:.\PeltierCalibration.c ****         /*
 464:.\PeltierCalibration.c ****         if(targetTemp > 25) // need to apply heat to maintain temperature
 465:.\PeltierCalibration.c ****         {
 466:.\PeltierCalibration.c ****             Peltier_on_Write(0u);   // Signal inH_1 and inH_2 
 467:.\PeltierCalibration.c ****             peltier_control_Write(PELTIER_HEAT);    // Sets the H_bridge to heat or cool depending 
 468:.\PeltierCalibration.c ****             peltierPWM_WriteCompare(100);   // TODO Calculate this value in function of targetTemp
 469:.\PeltierCalibration.c ****             Peltier_on_Write(1u);   // Signal inH_1 and inH_2 
 470:.\PeltierCalibration.c ****         }
 471:.\PeltierCalibration.c ****         else    // Need to cool 
 472:.\PeltierCalibration.c ****         {
 473:.\PeltierCalibration.c ****             Peltier_on_Write(0u);   // Signal inH_1 and inH_2 
 474:.\PeltierCalibration.c ****             peltier_control_Write(PELTIER_COOL);    // Sets the H_bridge to heat or cool depending 
 475:.\PeltierCalibration.c ****             peltierPWM_WriteCompare(100); 
 476:.\PeltierCalibration.c ****             Peltier_on_Write(1u);   // Signal inH_1 and inH_2 
 477:.\PeltierCalibration.c ****         }*/
 478:.\PeltierCalibration.c ****     }
 479:.\PeltierCalibration.c **** }
 1486              		.loc 1 479 0
ARM GAS  C:\Users\plod1602\AppData\Local\Temp\cckpLv0Q.s 			page 36


 1487 01a0 2037     		adds	r7, r7, #32
 1488 01a2 BD46     		mov	sp, r7
 1489              		@ sp needed
 1490 01a4 80BD     		pop	{r7, pc}
 1491              	.L93:
 1492 01a6 00BF     		.align	3
 1493              	.L92:
 1494 01a8 00000000 		.word	0
 1495 01ac 00C07240 		.word	1081262080
 1496 01b0 0AD7A370 		.word	1889785610
 1497 01b4 3D0AE33F 		.word	1071843901
 1498 01b8 F2D24D62 		.word	1649267442
 1499 01bc 1058D93F 		.word	1071208464
 1500 01c0 00806040 		.word	1080066048
 1501 01c4 00007840 		.word	1081606144
 1502              		.cfi_endproc
 1503              	.LFE62:
 1504              		.size	peltierControl, .-peltierControl
 1505              		.section	.text.getThermistorTemp,"ax",%progbits
 1506              		.align	2
 1507              		.global	getThermistorTemp
 1508              		.thumb
 1509              		.thumb_func
 1510              		.type	getThermistorTemp, %function
 1511              	getThermistorTemp:
 1512              	.LFB63:
 480:.\PeltierCalibration.c **** 
 481:.\PeltierCalibration.c **** /*===========================================================================*/
 482:.\PeltierCalibration.c **** // TODO: Adapt function to select which thermistor we want to read and to modify SM1 or SM2 current
 483:.\PeltierCalibration.c **** int16 getThermistorTemp(uint8 moduleNumber)
 484:.\PeltierCalibration.c **** {
 1513              		.loc 1 484 0
 1514              		.cfi_startproc
 1515              		@ args = 0, pretend = 0, frame = 24
 1516              		@ frame_needed = 1, uses_anonymous_args = 0
 1517 0000 80B5     		push	{r7, lr}
 1518              		.cfi_def_cfa_offset 8
 1519              		.cfi_offset 7, -8
 1520              		.cfi_offset 14, -4
 1521 0002 86B0     		sub	sp, sp, #24
 1522              		.cfi_def_cfa_offset 32
 1523 0004 00AF     		add	r7, sp, #0
 1524              		.cfi_def_cfa_register 7
 1525 0006 0346     		mov	r3, r0
 1526 0008 FB71     		strb	r3, [r7, #7]
 485:.\PeltierCalibration.c ****     int32 iVtherm, iVref;
 486:.\PeltierCalibration.c ****     uint32 iRes;
 487:.\PeltierCalibration.c **** 
 488:.\PeltierCalibration.c ****     /* Measure Voltage Across Thermistor*/
 489:.\PeltierCalibration.c ****     iVtherm = MeasureResistorVoltage(AMUX_1_VT);
 1527              		.loc 1 489 0
 1528 000a 0020     		movs	r0, #0
 1529 000c FFF7FEFF 		bl	MeasureResistorVoltage
 1530 0010 7861     		str	r0, [r7, #20]
 490:.\PeltierCalibration.c ****     /* Measure Voltage Across Reference Resistor*/
 491:.\PeltierCalibration.c ****     iVref = MeasureResistorVoltage(AMUX_1_VREF);
 1531              		.loc 1 491 0
ARM GAS  C:\Users\plod1602\AppData\Local\Temp\cckpLv0Q.s 			page 37


 1532 0012 0120     		movs	r0, #1
 1533 0014 FFF7FEFF 		bl	MeasureResistorVoltage
 1534 0018 3861     		str	r0, [r7, #16]
 492:.\PeltierCalibration.c **** 
 493:.\PeltierCalibration.c ****     /* Use the thermistor component API function call to obtain the temperature corresponding to th
 494:.\PeltierCalibration.c ****     iRes = Thermistor_1_GetResistance(iVref, iVtherm);
 1535              		.loc 1 494 0
 1536 001a 3B69     		ldr	r3, [r7, #16]
 1537 001c 9AB2     		uxth	r2, r3
 1538 001e 7B69     		ldr	r3, [r7, #20]
 1539 0020 9BB2     		uxth	r3, r3
 1540 0022 12B2     		sxth	r2, r2
 1541 0024 1BB2     		sxth	r3, r3
 1542 0026 1046     		mov	r0, r2
 1543 0028 1946     		mov	r1, r3
 1544 002a FFF7FEFF 		bl	Thermistor_1_GetResistance
 1545 002e F860     		str	r0, [r7, #12]
 495:.\PeltierCalibration.c **** 
 496:.\PeltierCalibration.c ****     return Thermistor_1_GetTemperature(iRes);
 1546              		.loc 1 496 0
 1547 0030 F868     		ldr	r0, [r7, #12]
 1548 0032 FFF7FEFF 		bl	Thermistor_1_GetTemperature
 1549 0036 0346     		mov	r3, r0
 497:.\PeltierCalibration.c **** }
 1550              		.loc 1 497 0
 1551 0038 1846     		mov	r0, r3
 1552 003a 1837     		adds	r7, r7, #24
 1553 003c BD46     		mov	sp, r7
 1554              		@ sp needed
 1555 003e 80BD     		pop	{r7, pc}
 1556              		.cfi_endproc
 1557              	.LFE63:
 1558              		.size	getThermistorTemp, .-getThermistorTemp
 1559              		.section	.text.getTemperature,"ax",%progbits
 1560              		.align	2
 1561              		.global	getTemperature
 1562              		.thumb
 1563              		.thumb_func
 1564              		.type	getTemperature, %function
 1565              	getTemperature:
 1566              	.LFB64:
 498:.\PeltierCalibration.c **** 
 499:.\PeltierCalibration.c **** int16 getTemperature(uint8 moduleNumber)
 500:.\PeltierCalibration.c **** {
 1567              		.loc 1 500 0
 1568              		.cfi_startproc
 1569              		@ args = 0, pretend = 0, frame = 16
 1570              		@ frame_needed = 1, uses_anonymous_args = 0
 1571              		@ link register save eliminated.
 1572 0000 80B4     		push	{r7}
 1573              		.cfi_def_cfa_offset 4
 1574              		.cfi_offset 7, -4
 1575 0002 85B0     		sub	sp, sp, #20
 1576              		.cfi_def_cfa_offset 24
 1577 0004 00AF     		add	r7, sp, #0
 1578              		.cfi_def_cfa_register 7
 1579 0006 0346     		mov	r3, r0
ARM GAS  C:\Users\plod1602\AppData\Local\Temp\cckpLv0Q.s 			page 38


 1580 0008 FB71     		strb	r3, [r7, #7]
 501:.\PeltierCalibration.c ****     uint8 maxValue;
 502:.\PeltierCalibration.c ****     uint8 pwmCompare;
 503:.\PeltierCalibration.c ****     int16 temperature;
 504:.\PeltierCalibration.c ****     
 505:.\PeltierCalibration.c ****     switch (moduleNumber)
 1581              		.loc 1 505 0
 1582 000a FB79     		ldrb	r3, [r7, #7]	@ zero_extendqisi2
 1583 000c 012B     		cmp	r3, #1
 1584 000e 02D0     		beq	.L102
 1585 0010 022B     		cmp	r3, #2
 1586 0012 02D0     		beq	.L103
 506:.\PeltierCalibration.c ****     {
 507:.\PeltierCalibration.c ****         case (1):
 508:.\PeltierCalibration.c ****           
 509:.\PeltierCalibration.c ****             break;
 510:.\PeltierCalibration.c ****         case (2):
 511:.\PeltierCalibration.c ****           
 512:.\PeltierCalibration.c ****             break;
 513:.\PeltierCalibration.c ****         default:
 514:.\PeltierCalibration.c ****             break;
 1587              		.loc 1 514 0
 1588 0014 02E0     		b	.L100
 1589              	.L102:
 509:.\PeltierCalibration.c ****             break;
 1590              		.loc 1 509 0
 1591 0016 00BF     		nop
 1592 0018 00E0     		b	.L100
 1593              	.L103:
 512:.\PeltierCalibration.c ****             break;
 1594              		.loc 1 512 0
 1595 001a 00BF     		nop
 1596              	.L100:
 515:.\PeltierCalibration.c ****     }    
 516:.\PeltierCalibration.c **** 
 517:.\PeltierCalibration.c ****     return temperature;     
 1597              		.loc 1 517 0
 1598 001c FB89     		ldrh	r3, [r7, #14]
 1599 001e 1BB2     		sxth	r3, r3
 518:.\PeltierCalibration.c **** }
 1600              		.loc 1 518 0
 1601 0020 1846     		mov	r0, r3
 1602 0022 1437     		adds	r7, r7, #20
 1603 0024 BD46     		mov	sp, r7
 1604              		@ sp needed
 1605 0026 5DF8047B 		ldr	r7, [sp], #4
 1606 002a 7047     		bx	lr
 1607              		.cfi_endproc
 1608              	.LFE64:
 1609              		.size	getTemperature, .-getTemperature
 1610              		.section	.text.changeFanSpeed,"ax",%progbits
 1611              		.align	2
 1612              		.global	changeFanSpeed
 1613              		.thumb
 1614              		.thumb_func
 1615              		.type	changeFanSpeed, %function
 1616              	changeFanSpeed:
ARM GAS  C:\Users\plod1602\AppData\Local\Temp\cckpLv0Q.s 			page 39


 1617              	.LFB65:
 519:.\PeltierCalibration.c **** 
 520:.\PeltierCalibration.c **** // Fan functions section
 521:.\PeltierCalibration.c **** void changeFanSpeed(uint8 percentage, uint8 moduleNumber)
 522:.\PeltierCalibration.c **** {
 1618              		.loc 1 522 0
 1619              		.cfi_startproc
 1620              		@ args = 0, pretend = 0, frame = 16
 1621              		@ frame_needed = 1, uses_anonymous_args = 0
 1622 0000 80B5     		push	{r7, lr}
 1623              		.cfi_def_cfa_offset 8
 1624              		.cfi_offset 7, -8
 1625              		.cfi_offset 14, -4
 1626 0002 84B0     		sub	sp, sp, #16
 1627              		.cfi_def_cfa_offset 24
 1628 0004 00AF     		add	r7, sp, #0
 1629              		.cfi_def_cfa_register 7
 1630 0006 0246     		mov	r2, r0
 1631 0008 0B46     		mov	r3, r1
 1632 000a FA71     		strb	r2, [r7, #7]
 1633 000c BB71     		strb	r3, [r7, #6]
 523:.\PeltierCalibration.c ****     uint8 maxValue;
 524:.\PeltierCalibration.c ****     uint8 toWrite;
 525:.\PeltierCalibration.c ****     
 526:.\PeltierCalibration.c ****     switch (moduleNumber)
 1634              		.loc 1 526 0
 1635 000e BB79     		ldrb	r3, [r7, #6]	@ zero_extendqisi2
 1636 0010 012B     		cmp	r3, #1
 1637 0012 02D0     		beq	.L106
 1638 0014 022B     		cmp	r3, #2
 1639 0016 1BD0     		beq	.L107
 527:.\PeltierCalibration.c ****     {
 528:.\PeltierCalibration.c ****         case (1):
 529:.\PeltierCalibration.c ****             if (SM1.temperatureMode == Waiting)
 530:.\PeltierCalibration.c ****             {
 531:.\PeltierCalibration.c ****                 maxValue = pwmFan_1_ReadPeriod();
 532:.\PeltierCalibration.c ****                 toWrite = (percentage*(maxValue/100));
 533:.\PeltierCalibration.c ****                 pwmFan_1_WriteCompare(toWrite);
 534:.\PeltierCalibration.c ****                 SM1.fanSpeed = toWrite;                  
 535:.\PeltierCalibration.c ****             }
 536:.\PeltierCalibration.c ****             break; 
 537:.\PeltierCalibration.c **** 
 538:.\PeltierCalibration.c ****         case (2):
 539:.\PeltierCalibration.c ****             if (SM2.temperatureMode == Waiting)
 540:.\PeltierCalibration.c ****             {        
 541:.\PeltierCalibration.c ****                 maxValue = pwmFan_2_ReadPeriod();
 542:.\PeltierCalibration.c ****                 toWrite = (percentage*(maxValue/100));
 543:.\PeltierCalibration.c ****                 pwmFan_2_WriteCompare(toWrite);
 544:.\PeltierCalibration.c ****                 SM2.fanSpeed = toWrite;
 545:.\PeltierCalibration.c ****             }
 546:.\PeltierCalibration.c ****             break;
 547:.\PeltierCalibration.c ****         default:
 548:.\PeltierCalibration.c ****             break;
 1640              		.loc 1 548 0
 1641 0018 35E0     		b	.L104
 1642              	.L106:
 529:.\PeltierCalibration.c ****             if (SM1.temperatureMode == Waiting)
ARM GAS  C:\Users\plod1602\AppData\Local\Temp\cckpLv0Q.s 			page 40


 1643              		.loc 1 529 0
 1644 001a 1C4B     		ldr	r3, .L112
 1645 001c 1B7B     		ldrb	r3, [r3, #12]	@ zero_extendqisi2
 1646 001e 042B     		cmp	r3, #4
 1647 0020 15D1     		bne	.L108
 531:.\PeltierCalibration.c ****                 maxValue = pwmFan_1_ReadPeriod();
 1648              		.loc 1 531 0
 1649 0022 FFF7FEFF 		bl	pwmFan_1_ReadPeriod
 1650 0026 0346     		mov	r3, r0
 1651 0028 FB73     		strb	r3, [r7, #15]
 532:.\PeltierCalibration.c ****                 toWrite = (percentage*(maxValue/100));
 1652              		.loc 1 532 0
 1653 002a FA7B     		ldrb	r2, [r7, #15]	@ zero_extendqisi2
 1654 002c 184B     		ldr	r3, .L112+4
 1655 002e A3FB0213 		umull	r1, r3, r3, r2
 1656 0032 5B09     		lsrs	r3, r3, #5
 1657 0034 DBB2     		uxtb	r3, r3
 1658 0036 FA79     		ldrb	r2, [r7, #7]
 1659 0038 02FB03F3 		mul	r3, r2, r3
 1660 003c BB73     		strb	r3, [r7, #14]
 533:.\PeltierCalibration.c ****                 pwmFan_1_WriteCompare(toWrite);
 1661              		.loc 1 533 0
 1662 003e BB7B     		ldrb	r3, [r7, #14]	@ zero_extendqisi2
 1663 0040 1846     		mov	r0, r3
 1664 0042 FFF7FEFF 		bl	pwmFan_1_WriteCompare
 534:.\PeltierCalibration.c ****                 SM1.fanSpeed = toWrite;                  
 1665              		.loc 1 534 0
 1666 0046 114B     		ldr	r3, .L112
 1667 0048 BA7B     		ldrb	r2, [r7, #14]
 1668 004a 1A75     		strb	r2, [r3, #20]
 536:.\PeltierCalibration.c ****             break; 
 1669              		.loc 1 536 0
 1670 004c 1BE0     		b	.L104
 1671              	.L108:
 1672 004e 1AE0     		b	.L104
 1673              	.L107:
 539:.\PeltierCalibration.c ****             if (SM2.temperatureMode == Waiting)
 1674              		.loc 1 539 0
 1675 0050 104B     		ldr	r3, .L112+8
 1676 0052 1B7B     		ldrb	r3, [r3, #12]	@ zero_extendqisi2
 1677 0054 042B     		cmp	r3, #4
 1678 0056 15D1     		bne	.L110
 541:.\PeltierCalibration.c ****                 maxValue = pwmFan_2_ReadPeriod();
 1679              		.loc 1 541 0
 1680 0058 FFF7FEFF 		bl	pwmFan_2_ReadPeriod
 1681 005c 0346     		mov	r3, r0
 1682 005e FB73     		strb	r3, [r7, #15]
 542:.\PeltierCalibration.c ****                 toWrite = (percentage*(maxValue/100));
 1683              		.loc 1 542 0
 1684 0060 FA7B     		ldrb	r2, [r7, #15]	@ zero_extendqisi2
 1685 0062 0B4B     		ldr	r3, .L112+4
 1686 0064 A3FB0213 		umull	r1, r3, r3, r2
 1687 0068 5B09     		lsrs	r3, r3, #5
 1688 006a DBB2     		uxtb	r3, r3
 1689 006c FA79     		ldrb	r2, [r7, #7]
 1690 006e 02FB03F3 		mul	r3, r2, r3
 1691 0072 BB73     		strb	r3, [r7, #14]
ARM GAS  C:\Users\plod1602\AppData\Local\Temp\cckpLv0Q.s 			page 41


 543:.\PeltierCalibration.c ****                 pwmFan_2_WriteCompare(toWrite);
 1692              		.loc 1 543 0
 1693 0074 BB7B     		ldrb	r3, [r7, #14]	@ zero_extendqisi2
 1694 0076 1846     		mov	r0, r3
 1695 0078 FFF7FEFF 		bl	pwmFan_2_WriteCompare
 544:.\PeltierCalibration.c ****                 SM2.fanSpeed = toWrite;
 1696              		.loc 1 544 0
 1697 007c 054B     		ldr	r3, .L112+8
 1698 007e BA7B     		ldrb	r2, [r7, #14]
 1699 0080 1A75     		strb	r2, [r3, #20]
 546:.\PeltierCalibration.c ****             break;
 1700              		.loc 1 546 0
 1701 0082 FFE7     		b	.L111
 1702              	.L110:
 1703              	.L111:
 1704 0084 00BF     		nop
 1705              	.L104:
 549:.\PeltierCalibration.c ****     }
 550:.\PeltierCalibration.c **** }
 1706              		.loc 1 550 0
 1707 0086 1037     		adds	r7, r7, #16
 1708 0088 BD46     		mov	sp, r7
 1709              		@ sp needed
 1710 008a 80BD     		pop	{r7, pc}
 1711              	.L113:
 1712              		.align	2
 1713              	.L112:
 1714 008c 00000000 		.word	SM1
 1715 0090 1F85EB51 		.word	1374389535
 1716 0094 00000000 		.word	SM2
 1717              		.cfi_endproc
 1718              	.LFE65:
 1719              		.size	changeFanSpeed, .-changeFanSpeed
 1720              		.section	.text.getFanSpeed,"ax",%progbits
 1721              		.align	2
 1722              		.global	getFanSpeed
 1723              		.thumb
 1724              		.thumb_func
 1725              		.type	getFanSpeed, %function
 1726              	getFanSpeed:
 1727              	.LFB66:
 551:.\PeltierCalibration.c **** uint8 getFanSpeed(uint8 moduleNumber)
 552:.\PeltierCalibration.c **** {
 1728              		.loc 1 552 0
 1729              		.cfi_startproc
 1730              		@ args = 0, pretend = 0, frame = 16
 1731              		@ frame_needed = 1, uses_anonymous_args = 0
 1732              		@ link register save eliminated.
 1733 0000 80B4     		push	{r7}
 1734              		.cfi_def_cfa_offset 4
 1735              		.cfi_offset 7, -4
 1736 0002 85B0     		sub	sp, sp, #20
 1737              		.cfi_def_cfa_offset 24
 1738 0004 00AF     		add	r7, sp, #0
 1739              		.cfi_def_cfa_register 7
 1740 0006 0346     		mov	r3, r0
 1741 0008 FB71     		strb	r3, [r7, #7]
ARM GAS  C:\Users\plod1602\AppData\Local\Temp\cckpLv0Q.s 			page 42


 553:.\PeltierCalibration.c ****     uint8 percentage = 0;
 1742              		.loc 1 553 0
 1743 000a 0023     		movs	r3, #0
 1744 000c FB73     		strb	r3, [r7, #15]
 554:.\PeltierCalibration.c ****     switch (moduleNumber)
 1745              		.loc 1 554 0
 1746 000e FB79     		ldrb	r3, [r7, #7]	@ zero_extendqisi2
 1747 0010 012B     		cmp	r3, #1
 1748 0012 02D0     		beq	.L116
 1749 0014 022B     		cmp	r3, #2
 1750 0016 04D0     		beq	.L117
 555:.\PeltierCalibration.c ****     {
 556:.\PeltierCalibration.c ****         case (1):
 557:.\PeltierCalibration.c ****             percentage = SM1.fanSpeed;
 558:.\PeltierCalibration.c ****             break;
 559:.\PeltierCalibration.c ****         case (2):
 560:.\PeltierCalibration.c ****             percentage = SM2.fanSpeed;
 561:.\PeltierCalibration.c ****             break;
 562:.\PeltierCalibration.c ****         default:
 563:.\PeltierCalibration.c ****             break;
 1751              		.loc 1 563 0
 1752 0018 07E0     		b	.L118
 1753              	.L116:
 557:.\PeltierCalibration.c ****             percentage = SM1.fanSpeed;
 1754              		.loc 1 557 0
 1755 001a 074B     		ldr	r3, .L120
 1756 001c 1B7D     		ldrb	r3, [r3, #20]
 1757 001e FB73     		strb	r3, [r7, #15]
 558:.\PeltierCalibration.c ****             break;
 1758              		.loc 1 558 0
 1759 0020 03E0     		b	.L118
 1760              	.L117:
 560:.\PeltierCalibration.c ****             percentage = SM2.fanSpeed;
 1761              		.loc 1 560 0
 1762 0022 064B     		ldr	r3, .L120+4
 1763 0024 1B7D     		ldrb	r3, [r3, #20]
 1764 0026 FB73     		strb	r3, [r7, #15]
 561:.\PeltierCalibration.c ****             break;
 1765              		.loc 1 561 0
 1766 0028 00BF     		nop
 1767              	.L118:
 564:.\PeltierCalibration.c ****     }
 565:.\PeltierCalibration.c ****     return percentage;
 1768              		.loc 1 565 0
 1769 002a FB7B     		ldrb	r3, [r7, #15]	@ zero_extendqisi2
 566:.\PeltierCalibration.c ****     
 567:.\PeltierCalibration.c ****     /*
 568:.\PeltierCalibration.c ****     uint8 maxValue = 0;
 569:.\PeltierCalibration.c ****     uint8 pwmCompare = 0;
 570:.\PeltierCalibration.c ****     uint8 percentage = 0;
 571:.\PeltierCalibration.c ****     
 572:.\PeltierCalibration.c ****     switch (moduleNumber)
 573:.\PeltierCalibration.c ****     {
 574:.\PeltierCalibration.c ****         case (1):
 575:.\PeltierCalibration.c ****             maxValue = pwmFan_1_ReadPeriod();
 576:.\PeltierCalibration.c ****             pwmCompare = pwmFan_1_ReadCompare();  
 577:.\PeltierCalibration.c ****             percentage = 100*pwmCompare/maxValue;
ARM GAS  C:\Users\plod1602\AppData\Local\Temp\cckpLv0Q.s 			page 43


 578:.\PeltierCalibration.c ****             //SM1.fanSpeed = percentage;
 579:.\PeltierCalibration.c ****             break;
 580:.\PeltierCalibration.c ****         case (2):
 581:.\PeltierCalibration.c ****             maxValue = pwmFan_2_ReadPeriod();
 582:.\PeltierCalibration.c ****             pwmCompare = pwmFan_2_ReadCompare(); 
 583:.\PeltierCalibration.c ****             percentage = 100*pwmCompare/maxValue;
 584:.\PeltierCalibration.c ****             //SM2.fanSpeed = percentage;
 585:.\PeltierCalibration.c ****             break;
 586:.\PeltierCalibration.c ****         default:
 587:.\PeltierCalibration.c ****             break;
 588:.\PeltierCalibration.c ****     }
 589:.\PeltierCalibration.c ****     return percentage;*/
 590:.\PeltierCalibration.c **** }
 1770              		.loc 1 590 0
 1771 002c 1846     		mov	r0, r3
 1772 002e 1437     		adds	r7, r7, #20
 1773 0030 BD46     		mov	sp, r7
 1774              		@ sp needed
 1775 0032 5DF8047B 		ldr	r7, [sp], #4
 1776 0036 7047     		bx	lr
 1777              	.L121:
 1778              		.align	2
 1779              	.L120:
 1780 0038 00000000 		.word	SM1
 1781 003c 00000000 		.word	SM2
 1782              		.cfi_endproc
 1783              	.LFE66:
 1784              		.size	getFanSpeed, .-getFanSpeed
 1785              		.section	.text.changeFanState,"ax",%progbits
 1786              		.align	2
 1787              		.global	changeFanState
 1788              		.thumb
 1789              		.thumb_func
 1790              		.type	changeFanState, %function
 1791              	changeFanState:
 1792              	.LFB67:
 591:.\PeltierCalibration.c **** int8 changeFanState(uint8 fanEnableState, uint8 moduleNumber)
 592:.\PeltierCalibration.c **** {
 1793              		.loc 1 592 0
 1794              		.cfi_startproc
 1795              		@ args = 0, pretend = 0, frame = 16
 1796              		@ frame_needed = 1, uses_anonymous_args = 0
 1797 0000 80B5     		push	{r7, lr}
 1798              		.cfi_def_cfa_offset 8
 1799              		.cfi_offset 7, -8
 1800              		.cfi_offset 14, -4
 1801 0002 84B0     		sub	sp, sp, #16
 1802              		.cfi_def_cfa_offset 24
 1803 0004 00AF     		add	r7, sp, #0
 1804              		.cfi_def_cfa_register 7
 1805 0006 0246     		mov	r2, r0
 1806 0008 0B46     		mov	r3, r1
 1807 000a FA71     		strb	r2, [r7, #7]
 1808 000c BB71     		strb	r3, [r7, #6]
 593:.\PeltierCalibration.c ****     fanState_type desiredFanState;
 594:.\PeltierCalibration.c ****     if (fanEnableState == fanDisabled)
 1809              		.loc 1 594 0
ARM GAS  C:\Users\plod1602\AppData\Local\Temp\cckpLv0Q.s 			page 44


 1810 000e FB79     		ldrb	r3, [r7, #7]	@ zero_extendqisi2
 1811 0010 002B     		cmp	r3, #0
 1812 0012 02D1     		bne	.L123
 595:.\PeltierCalibration.c ****     {
 596:.\PeltierCalibration.c ****         desiredFanState = fanDisabled;
 1813              		.loc 1 596 0
 1814 0014 0023     		movs	r3, #0
 1815 0016 FB73     		strb	r3, [r7, #15]
 1816 0018 04E0     		b	.L124
 1817              	.L123:
 597:.\PeltierCalibration.c ****     }
 598:.\PeltierCalibration.c ****     else if (fanEnableState == fanEnabled)
 1818              		.loc 1 598 0
 1819 001a FB79     		ldrb	r3, [r7, #7]	@ zero_extendqisi2
 1820 001c 012B     		cmp	r3, #1
 1821 001e 01D1     		bne	.L124
 599:.\PeltierCalibration.c ****     {
 600:.\PeltierCalibration.c ****         desiredFanState = fanEnabled;
 1822              		.loc 1 600 0
 1823 0020 0123     		movs	r3, #1
 1824 0022 FB73     		strb	r3, [r7, #15]
 1825              	.L124:
 601:.\PeltierCalibration.c ****     }
 602:.\PeltierCalibration.c ****     
 603:.\PeltierCalibration.c ****     switch (moduleNumber)
 1826              		.loc 1 603 0
 1827 0024 BB79     		ldrb	r3, [r7, #6]	@ zero_extendqisi2
 1828 0026 012B     		cmp	r3, #1
 1829 0028 02D0     		beq	.L126
 1830 002a 022B     		cmp	r3, #2
 1831 002c 08D0     		beq	.L127
 604:.\PeltierCalibration.c ****     {
 605:.\PeltierCalibration.c ****         case (1):
 606:.\PeltierCalibration.c ****             fanPeltier1_Enable_Write(fanEnableState);            
 607:.\PeltierCalibration.c ****             SM1.fanState = desiredFanState;
 608:.\PeltierCalibration.c ****             break;
 609:.\PeltierCalibration.c ****         case (2):
 610:.\PeltierCalibration.c ****             fanPeltier2_Enable_Write(fanEnableState);
 611:.\PeltierCalibration.c ****             SM2.fanState = desiredFanState;
 612:.\PeltierCalibration.c ****             break;
 613:.\PeltierCalibration.c ****         default:
 614:.\PeltierCalibration.c ****             break;
 1832              		.loc 1 614 0
 1833 002e 0FE0     		b	.L128
 1834              	.L126:
 606:.\PeltierCalibration.c ****             fanPeltier1_Enable_Write(fanEnableState);            
 1835              		.loc 1 606 0
 1836 0030 FB79     		ldrb	r3, [r7, #7]	@ zero_extendqisi2
 1837 0032 1846     		mov	r0, r3
 1838 0034 FFF7FEFF 		bl	fanPeltier1_Enable_Write
 607:.\PeltierCalibration.c ****             SM1.fanState = desiredFanState;
 1839              		.loc 1 607 0
 1840 0038 084B     		ldr	r3, .L130
 1841 003a FA7B     		ldrb	r2, [r7, #15]
 1842 003c 5A75     		strb	r2, [r3, #21]
 608:.\PeltierCalibration.c ****             break;
 1843              		.loc 1 608 0
ARM GAS  C:\Users\plod1602\AppData\Local\Temp\cckpLv0Q.s 			page 45


 1844 003e 07E0     		b	.L128
 1845              	.L127:
 610:.\PeltierCalibration.c ****             fanPeltier2_Enable_Write(fanEnableState);
 1846              		.loc 1 610 0
 1847 0040 FB79     		ldrb	r3, [r7, #7]	@ zero_extendqisi2
 1848 0042 1846     		mov	r0, r3
 1849 0044 FFF7FEFF 		bl	fanPeltier2_Enable_Write
 611:.\PeltierCalibration.c ****             SM2.fanState = desiredFanState;
 1850              		.loc 1 611 0
 1851 0048 054B     		ldr	r3, .L130+4
 1852 004a FA7B     		ldrb	r2, [r7, #15]
 1853 004c 5A75     		strb	r2, [r3, #21]
 612:.\PeltierCalibration.c ****             break;
 1854              		.loc 1 612 0
 1855 004e 00BF     		nop
 1856              	.L128:
 615:.\PeltierCalibration.c ****     }    
 616:.\PeltierCalibration.c ****     return 1;
 1857              		.loc 1 616 0
 1858 0050 0123     		movs	r3, #1
 1859 0052 5BB2     		sxtb	r3, r3
 617:.\PeltierCalibration.c **** }
 1860              		.loc 1 617 0
 1861 0054 1846     		mov	r0, r3
 1862 0056 1037     		adds	r7, r7, #16
 1863 0058 BD46     		mov	sp, r7
 1864              		@ sp needed
 1865 005a 80BD     		pop	{r7, pc}
 1866              	.L131:
 1867              		.align	2
 1868              	.L130:
 1869 005c 00000000 		.word	SM1
 1870 0060 00000000 		.word	SM2
 1871              		.cfi_endproc
 1872              	.LFE67:
 1873              		.size	changeFanState, .-changeFanState
 1874              		.section	.text.changeAgitatorSpeed,"ax",%progbits
 1875              		.align	2
 1876              		.global	changeAgitatorSpeed
 1877              		.thumb
 1878              		.thumb_func
 1879              		.type	changeAgitatorSpeed, %function
 1880              	changeAgitatorSpeed:
 1881              	.LFB68:
 618:.\PeltierCalibration.c **** 
 619:.\PeltierCalibration.c **** // Agitator functions section
 620:.\PeltierCalibration.c **** void changeAgitatorSpeed(uint8 percentage, uint8 moduleNumber)
 621:.\PeltierCalibration.c **** {
 1882              		.loc 1 621 0
 1883              		.cfi_startproc
 1884              		@ args = 0, pretend = 0, frame = 16
 1885              		@ frame_needed = 1, uses_anonymous_args = 0
 1886 0000 80B5     		push	{r7, lr}
 1887              		.cfi_def_cfa_offset 8
 1888              		.cfi_offset 7, -8
 1889              		.cfi_offset 14, -4
 1890 0002 84B0     		sub	sp, sp, #16
ARM GAS  C:\Users\plod1602\AppData\Local\Temp\cckpLv0Q.s 			page 46


 1891              		.cfi_def_cfa_offset 24
 1892 0004 00AF     		add	r7, sp, #0
 1893              		.cfi_def_cfa_register 7
 1894 0006 0246     		mov	r2, r0
 1895 0008 0B46     		mov	r3, r1
 1896 000a FA71     		strb	r2, [r7, #7]
 1897 000c BB71     		strb	r3, [r7, #6]
 622:.\PeltierCalibration.c ****     uint8 maxValue;
 623:.\PeltierCalibration.c ****     uint8 toWrite;
 624:.\PeltierCalibration.c ****     
 625:.\PeltierCalibration.c ****     switch (moduleNumber)
 1898              		.loc 1 625 0
 1899 000e BB79     		ldrb	r3, [r7, #6]	@ zero_extendqisi2
 1900 0010 012B     		cmp	r3, #1
 1901 0012 02D0     		beq	.L134
 1902 0014 022B     		cmp	r3, #2
 1903 0016 16D0     		beq	.L135
 626:.\PeltierCalibration.c ****     {
 627:.\PeltierCalibration.c ****         case (1):
 628:.\PeltierCalibration.c ****             maxValue = pwmAgitator_1_ReadPeriod();
 629:.\PeltierCalibration.c ****             toWrite = (percentage*(maxValue/100));
 630:.\PeltierCalibration.c ****             pwmAgitator_1_WriteCompare(toWrite);
 631:.\PeltierCalibration.c ****             SM1.agitatorSpeed = toWrite;
 632:.\PeltierCalibration.c ****             break;
 633:.\PeltierCalibration.c ****         case (2):
 634:.\PeltierCalibration.c ****             maxValue = pwmAgitator_2_ReadPeriod();
 635:.\PeltierCalibration.c ****             toWrite = (percentage*(maxValue/100));
 636:.\PeltierCalibration.c ****             pwmAgitator_2_WriteCompare(toWrite);
 637:.\PeltierCalibration.c ****             SM2.agitatorSpeed = toWrite;
 638:.\PeltierCalibration.c ****             break;
 639:.\PeltierCalibration.c ****         default:
 640:.\PeltierCalibration.c ****             break;
 1904              		.loc 1 640 0
 1905 0018 2BE0     		b	.L132
 1906              	.L134:
 628:.\PeltierCalibration.c ****             maxValue = pwmAgitator_1_ReadPeriod();
 1907              		.loc 1 628 0
 1908 001a FFF7FEFF 		bl	pwmAgitator_1_ReadPeriod
 1909 001e 0346     		mov	r3, r0
 1910 0020 FB73     		strb	r3, [r7, #15]
 629:.\PeltierCalibration.c ****             toWrite = (percentage*(maxValue/100));
 1911              		.loc 1 629 0
 1912 0022 FA7B     		ldrb	r2, [r7, #15]	@ zero_extendqisi2
 1913 0024 144B     		ldr	r3, .L137
 1914 0026 A3FB0213 		umull	r1, r3, r3, r2
 1915 002a 5B09     		lsrs	r3, r3, #5
 1916 002c DBB2     		uxtb	r3, r3
 1917 002e FA79     		ldrb	r2, [r7, #7]
 1918 0030 02FB03F3 		mul	r3, r2, r3
 1919 0034 BB73     		strb	r3, [r7, #14]
 630:.\PeltierCalibration.c ****             pwmAgitator_1_WriteCompare(toWrite);
 1920              		.loc 1 630 0
 1921 0036 BB7B     		ldrb	r3, [r7, #14]	@ zero_extendqisi2
 1922 0038 1846     		mov	r0, r3
 1923 003a FFF7FEFF 		bl	pwmAgitator_1_WriteCompare
 631:.\PeltierCalibration.c ****             SM1.agitatorSpeed = toWrite;
 1924              		.loc 1 631 0
ARM GAS  C:\Users\plod1602\AppData\Local\Temp\cckpLv0Q.s 			page 47


 1925 003e 0F4B     		ldr	r3, .L137+4
 1926 0040 BA7B     		ldrb	r2, [r7, #14]
 1927 0042 9A74     		strb	r2, [r3, #18]
 632:.\PeltierCalibration.c ****             break;
 1928              		.loc 1 632 0
 1929 0044 15E0     		b	.L132
 1930              	.L135:
 634:.\PeltierCalibration.c ****             maxValue = pwmAgitator_2_ReadPeriod();
 1931              		.loc 1 634 0
 1932 0046 FFF7FEFF 		bl	pwmAgitator_2_ReadPeriod
 1933 004a 0346     		mov	r3, r0
 1934 004c FB73     		strb	r3, [r7, #15]
 635:.\PeltierCalibration.c ****             toWrite = (percentage*(maxValue/100));
 1935              		.loc 1 635 0
 1936 004e FA7B     		ldrb	r2, [r7, #15]	@ zero_extendqisi2
 1937 0050 094B     		ldr	r3, .L137
 1938 0052 A3FB0213 		umull	r1, r3, r3, r2
 1939 0056 5B09     		lsrs	r3, r3, #5
 1940 0058 DBB2     		uxtb	r3, r3
 1941 005a FA79     		ldrb	r2, [r7, #7]
 1942 005c 02FB03F3 		mul	r3, r2, r3
 1943 0060 BB73     		strb	r3, [r7, #14]
 636:.\PeltierCalibration.c ****             pwmAgitator_2_WriteCompare(toWrite);
 1944              		.loc 1 636 0
 1945 0062 BB7B     		ldrb	r3, [r7, #14]	@ zero_extendqisi2
 1946 0064 1846     		mov	r0, r3
 1947 0066 FFF7FEFF 		bl	pwmAgitator_2_WriteCompare
 637:.\PeltierCalibration.c ****             SM2.agitatorSpeed = toWrite;
 1948              		.loc 1 637 0
 1949 006a 054B     		ldr	r3, .L137+8
 1950 006c BA7B     		ldrb	r2, [r7, #14]
 1951 006e 9A74     		strb	r2, [r3, #18]
 638:.\PeltierCalibration.c ****             break;
 1952              		.loc 1 638 0
 1953 0070 00BF     		nop
 1954              	.L132:
 641:.\PeltierCalibration.c ****     }
 642:.\PeltierCalibration.c **** }
 1955              		.loc 1 642 0
 1956 0072 1037     		adds	r7, r7, #16
 1957 0074 BD46     		mov	sp, r7
 1958              		@ sp needed
 1959 0076 80BD     		pop	{r7, pc}
 1960              	.L138:
 1961              		.align	2
 1962              	.L137:
 1963 0078 1F85EB51 		.word	1374389535
 1964 007c 00000000 		.word	SM1
 1965 0080 00000000 		.word	SM2
 1966              		.cfi_endproc
 1967              	.LFE68:
 1968              		.size	changeAgitatorSpeed, .-changeAgitatorSpeed
 1969              		.section	.text.getAgitatorSpeed,"ax",%progbits
 1970              		.align	2
 1971              		.global	getAgitatorSpeed
 1972              		.thumb
 1973              		.thumb_func
ARM GAS  C:\Users\plod1602\AppData\Local\Temp\cckpLv0Q.s 			page 48


 1974              		.type	getAgitatorSpeed, %function
 1975              	getAgitatorSpeed:
 1976              	.LFB69:
 643:.\PeltierCalibration.c **** uint8 getAgitatorSpeed(uint8 moduleNumber)
 644:.\PeltierCalibration.c **** {
 1977              		.loc 1 644 0
 1978              		.cfi_startproc
 1979              		@ args = 0, pretend = 0, frame = 16
 1980              		@ frame_needed = 1, uses_anonymous_args = 0
 1981              		@ link register save eliminated.
 1982 0000 80B4     		push	{r7}
 1983              		.cfi_def_cfa_offset 4
 1984              		.cfi_offset 7, -4
 1985 0002 85B0     		sub	sp, sp, #20
 1986              		.cfi_def_cfa_offset 24
 1987 0004 00AF     		add	r7, sp, #0
 1988              		.cfi_def_cfa_register 7
 1989 0006 0346     		mov	r3, r0
 1990 0008 FB71     		strb	r3, [r7, #7]
 645:.\PeltierCalibration.c ****     
 646:.\PeltierCalibration.c ****     uint8 percentage = 0;
 1991              		.loc 1 646 0
 1992 000a 0023     		movs	r3, #0
 1993 000c FB73     		strb	r3, [r7, #15]
 647:.\PeltierCalibration.c ****     switch (moduleNumber)
 1994              		.loc 1 647 0
 1995 000e FB79     		ldrb	r3, [r7, #7]	@ zero_extendqisi2
 1996 0010 012B     		cmp	r3, #1
 1997 0012 02D0     		beq	.L141
 1998 0014 022B     		cmp	r3, #2
 1999 0016 04D0     		beq	.L142
 648:.\PeltierCalibration.c ****     {
 649:.\PeltierCalibration.c ****         case (1):
 650:.\PeltierCalibration.c ****             percentage = SM1.agitatorSpeed;
 651:.\PeltierCalibration.c ****             break;
 652:.\PeltierCalibration.c ****         case (2):
 653:.\PeltierCalibration.c ****             percentage = SM2.agitatorSpeed;
 654:.\PeltierCalibration.c ****             break;
 655:.\PeltierCalibration.c ****         default:
 656:.\PeltierCalibration.c ****             break;
 2000              		.loc 1 656 0
 2001 0018 07E0     		b	.L143
 2002              	.L141:
 650:.\PeltierCalibration.c ****             percentage = SM1.agitatorSpeed;
 2003              		.loc 1 650 0
 2004 001a 074B     		ldr	r3, .L145
 2005 001c 9B7C     		ldrb	r3, [r3, #18]
 2006 001e FB73     		strb	r3, [r7, #15]
 651:.\PeltierCalibration.c ****             break;
 2007              		.loc 1 651 0
 2008 0020 03E0     		b	.L143
 2009              	.L142:
 653:.\PeltierCalibration.c ****             percentage = SM2.agitatorSpeed;
 2010              		.loc 1 653 0
 2011 0022 064B     		ldr	r3, .L145+4
 2012 0024 9B7C     		ldrb	r3, [r3, #18]
 2013 0026 FB73     		strb	r3, [r7, #15]
ARM GAS  C:\Users\plod1602\AppData\Local\Temp\cckpLv0Q.s 			page 49


 654:.\PeltierCalibration.c ****             break;
 2014              		.loc 1 654 0
 2015 0028 00BF     		nop
 2016              	.L143:
 657:.\PeltierCalibration.c ****     }
 658:.\PeltierCalibration.c ****     return percentage;
 2017              		.loc 1 658 0
 2018 002a FB7B     		ldrb	r3, [r7, #15]	@ zero_extendqisi2
 659:.\PeltierCalibration.c ****     
 660:.\PeltierCalibration.c ****     /*
 661:.\PeltierCalibration.c ****     uint8 maxValue = 0;
 662:.\PeltierCalibration.c ****     uint8 pwmCompare = 0;
 663:.\PeltierCalibration.c ****     uint8 percentage = 0;
 664:.\PeltierCalibration.c ****     
 665:.\PeltierCalibration.c ****     switch (moduleNumber)
 666:.\PeltierCalibration.c ****     {
 667:.\PeltierCalibration.c ****         case (1):
 668:.\PeltierCalibration.c ****             maxValue = pwmAgitator_1_ReadPeriod();
 669:.\PeltierCalibration.c ****             pwmCompare = pwmAgitator_1_ReadCompare();
 670:.\PeltierCalibration.c ****             percentage = 100*pwmCompare/maxValue;
 671:.\PeltierCalibration.c ****             //SM1.agitatorSpeed = percentage;
 672:.\PeltierCalibration.c ****             break;
 673:.\PeltierCalibration.c ****         case (2):
 674:.\PeltierCalibration.c ****             maxValue = pwmAgitator_2_ReadPeriod();
 675:.\PeltierCalibration.c ****             pwmCompare = pwmAgitator_2_ReadCompare();
 676:.\PeltierCalibration.c ****             percentage = 100*pwmCompare/maxValue;
 677:.\PeltierCalibration.c ****             //SM2.agitatorSpeed = percentage;
 678:.\PeltierCalibration.c ****             break;
 679:.\PeltierCalibration.c ****         default:
 680:.\PeltierCalibration.c ****             break;
 681:.\PeltierCalibration.c ****     }
 682:.\PeltierCalibration.c ****     return percentage;*/    
 683:.\PeltierCalibration.c **** }
 2019              		.loc 1 683 0
 2020 002c 1846     		mov	r0, r3
 2021 002e 1437     		adds	r7, r7, #20
 2022 0030 BD46     		mov	sp, r7
 2023              		@ sp needed
 2024 0032 5DF8047B 		ldr	r7, [sp], #4
 2025 0036 7047     		bx	lr
 2026              	.L146:
 2027              		.align	2
 2028              	.L145:
 2029 0038 00000000 		.word	SM1
 2030 003c 00000000 		.word	SM2
 2031              		.cfi_endproc
 2032              	.LFE69:
 2033              		.size	getAgitatorSpeed, .-getAgitatorSpeed
 2034              		.section	.text.changeAgitatorState,"ax",%progbits
 2035              		.align	2
 2036              		.global	changeAgitatorState
 2037              		.thumb
 2038              		.thumb_func
 2039              		.type	changeAgitatorState, %function
 2040              	changeAgitatorState:
 2041              	.LFB70:
 684:.\PeltierCalibration.c **** int8 changeAgitatorState(uint8 agitatorEnableState, uint8 moduleNumber)
ARM GAS  C:\Users\plod1602\AppData\Local\Temp\cckpLv0Q.s 			page 50


 685:.\PeltierCalibration.c **** {    
 2042              		.loc 1 685 0
 2043              		.cfi_startproc
 2044              		@ args = 0, pretend = 0, frame = 16
 2045              		@ frame_needed = 1, uses_anonymous_args = 0
 2046 0000 80B5     		push	{r7, lr}
 2047              		.cfi_def_cfa_offset 8
 2048              		.cfi_offset 7, -8
 2049              		.cfi_offset 14, -4
 2050 0002 84B0     		sub	sp, sp, #16
 2051              		.cfi_def_cfa_offset 24
 2052 0004 00AF     		add	r7, sp, #0
 2053              		.cfi_def_cfa_register 7
 2054 0006 0246     		mov	r2, r0
 2055 0008 0B46     		mov	r3, r1
 2056 000a FA71     		strb	r2, [r7, #7]
 2057 000c BB71     		strb	r3, [r7, #6]
 686:.\PeltierCalibration.c ****     agitatorState_type desiredAgitatorState;
 687:.\PeltierCalibration.c ****     if (desiredAgitatorState == agitatorDisabled)
 2058              		.loc 1 687 0
 2059 000e FB7B     		ldrb	r3, [r7, #15]	@ zero_extendqisi2
 2060 0010 002B     		cmp	r3, #0
 2061 0012 02D1     		bne	.L148
 688:.\PeltierCalibration.c ****     {
 689:.\PeltierCalibration.c ****         desiredAgitatorState = agitatorDisabled;
 2062              		.loc 1 689 0
 2063 0014 0023     		movs	r3, #0
 2064 0016 FB73     		strb	r3, [r7, #15]
 2065 0018 04E0     		b	.L149
 2066              	.L148:
 690:.\PeltierCalibration.c ****     }
 691:.\PeltierCalibration.c ****     else if (desiredAgitatorState == agitatorEnabled)
 2067              		.loc 1 691 0
 2068 001a FB7B     		ldrb	r3, [r7, #15]	@ zero_extendqisi2
 2069 001c 012B     		cmp	r3, #1
 2070 001e 01D1     		bne	.L149
 692:.\PeltierCalibration.c ****     {
 693:.\PeltierCalibration.c ****         desiredAgitatorState = agitatorEnabled;
 2071              		.loc 1 693 0
 2072 0020 0123     		movs	r3, #1
 2073 0022 FB73     		strb	r3, [r7, #15]
 2074              	.L149:
 694:.\PeltierCalibration.c ****     }
 695:.\PeltierCalibration.c ****     
 696:.\PeltierCalibration.c ****     switch (moduleNumber)
 2075              		.loc 1 696 0
 2076 0024 BB79     		ldrb	r3, [r7, #6]	@ zero_extendqisi2
 2077 0026 012B     		cmp	r3, #1
 2078 0028 02D0     		beq	.L151
 2079 002a 022B     		cmp	r3, #2
 2080 002c 08D0     		beq	.L152
 697:.\PeltierCalibration.c ****     {
 698:.\PeltierCalibration.c ****         case (1):
 699:.\PeltierCalibration.c ****             outputAgitator1_Enable_Write(agitatorEnableState);
 700:.\PeltierCalibration.c ****             SM1.agitatorState = desiredAgitatorState;
 701:.\PeltierCalibration.c ****             break;
 702:.\PeltierCalibration.c ****         case (2):
ARM GAS  C:\Users\plod1602\AppData\Local\Temp\cckpLv0Q.s 			page 51


 703:.\PeltierCalibration.c ****             outputAgitator2_Enable_Write(agitatorEnableState);
 704:.\PeltierCalibration.c ****             SM2.agitatorState = desiredAgitatorState;
 705:.\PeltierCalibration.c ****             break;
 706:.\PeltierCalibration.c ****         default:
 707:.\PeltierCalibration.c ****             break;
 2081              		.loc 1 707 0
 2082 002e 0FE0     		b	.L153
 2083              	.L151:
 699:.\PeltierCalibration.c ****             outputAgitator1_Enable_Write(agitatorEnableState);
 2084              		.loc 1 699 0
 2085 0030 FB79     		ldrb	r3, [r7, #7]	@ zero_extendqisi2
 2086 0032 1846     		mov	r0, r3
 2087 0034 FFF7FEFF 		bl	outputAgitator1_Enable_Write
 700:.\PeltierCalibration.c ****             SM1.agitatorState = desiredAgitatorState;
 2088              		.loc 1 700 0
 2089 0038 084B     		ldr	r3, .L155
 2090 003a FA7B     		ldrb	r2, [r7, #15]
 2091 003c DA74     		strb	r2, [r3, #19]
 701:.\PeltierCalibration.c ****             break;
 2092              		.loc 1 701 0
 2093 003e 07E0     		b	.L153
 2094              	.L152:
 703:.\PeltierCalibration.c ****             outputAgitator2_Enable_Write(agitatorEnableState);
 2095              		.loc 1 703 0
 2096 0040 FB79     		ldrb	r3, [r7, #7]	@ zero_extendqisi2
 2097 0042 1846     		mov	r0, r3
 2098 0044 FFF7FEFF 		bl	outputAgitator2_Enable_Write
 704:.\PeltierCalibration.c ****             SM2.agitatorState = desiredAgitatorState;
 2099              		.loc 1 704 0
 2100 0048 054B     		ldr	r3, .L155+4
 2101 004a FA7B     		ldrb	r2, [r7, #15]
 2102 004c DA74     		strb	r2, [r3, #19]
 705:.\PeltierCalibration.c ****             break;
 2103              		.loc 1 705 0
 2104 004e 00BF     		nop
 2105              	.L153:
 708:.\PeltierCalibration.c ****     }
 709:.\PeltierCalibration.c ****     return 1;
 2106              		.loc 1 709 0
 2107 0050 0123     		movs	r3, #1
 2108 0052 5BB2     		sxtb	r3, r3
 710:.\PeltierCalibration.c **** }
 2109              		.loc 1 710 0
 2110 0054 1846     		mov	r0, r3
 2111 0056 1037     		adds	r7, r7, #16
 2112 0058 BD46     		mov	sp, r7
 2113              		@ sp needed
 2114 005a 80BD     		pop	{r7, pc}
 2115              	.L156:
 2116              		.align	2
 2117              	.L155:
 2118 005c 00000000 		.word	SM1
 2119 0060 00000000 		.word	SM2
 2120              		.cfi_endproc
 2121              	.LFE70:
 2122              		.size	changeAgitatorState, .-changeAgitatorState
 2123              		.section	.text.changePeltierModuleState,"ax",%progbits
ARM GAS  C:\Users\plod1602\AppData\Local\Temp\cckpLv0Q.s 			page 52


 2124              		.align	2
 2125              		.global	changePeltierModuleState
 2126              		.thumb
 2127              		.thumb_func
 2128              		.type	changePeltierModuleState, %function
 2129              	changePeltierModuleState:
 2130              	.LFB71:
 711:.\PeltierCalibration.c **** 
 712:.\PeltierCalibration.c **** // Peltier functions section
 713:.\PeltierCalibration.c **** uint8 changePeltierModuleState(uint8 peltierEnableState, uint8 moduleNumber)
 714:.\PeltierCalibration.c **** {        
 2131              		.loc 1 714 0
 2132              		.cfi_startproc
 2133              		@ args = 0, pretend = 0, frame = 16
 2134              		@ frame_needed = 1, uses_anonymous_args = 0
 2135 0000 80B5     		push	{r7, lr}
 2136              		.cfi_def_cfa_offset 8
 2137              		.cfi_offset 7, -8
 2138              		.cfi_offset 14, -4
 2139 0002 84B0     		sub	sp, sp, #16
 2140              		.cfi_def_cfa_offset 24
 2141 0004 00AF     		add	r7, sp, #0
 2142              		.cfi_def_cfa_register 7
 2143 0006 0246     		mov	r2, r0
 2144 0008 0B46     		mov	r3, r1
 2145 000a FA71     		strb	r2, [r7, #7]
 2146 000c BB71     		strb	r3, [r7, #6]
 715:.\PeltierCalibration.c ****     uint8 actualCtrlRegisterValue = Peltier_Enable_Read();
 2147              		.loc 1 715 0
 2148 000e FFF7FEFF 		bl	Peltier_Enable_Read
 2149 0012 0346     		mov	r3, r0
 2150 0014 BB73     		strb	r3, [r7, #14]
 716:.\PeltierCalibration.c ****     uint8 valueToWrite;
 717:.\PeltierCalibration.c ****     
 718:.\PeltierCalibration.c ****     switch (moduleNumber)
 2151              		.loc 1 718 0
 2152 0016 BB79     		ldrb	r3, [r7, #6]	@ zero_extendqisi2
 2153 0018 012B     		cmp	r3, #1
 2154 001a 02D0     		beq	.L159
 2155 001c 022B     		cmp	r3, #2
 2156 001e 13D0     		beq	.L160
 719:.\PeltierCalibration.c ****     {
 720:.\PeltierCalibration.c ****         case (1):
 721:.\PeltierCalibration.c ****         {           
 722:.\PeltierCalibration.c ****             if (peltierEnableState == 0)
 723:.\PeltierCalibration.c ****             {
 724:.\PeltierCalibration.c ****                 valueToWrite = (actualCtrlRegisterValue) & (~PELTIER1_ENABLE_MSK);
 725:.\PeltierCalibration.c ****                 SM1.peltierState = peltierDisabled;
 726:.\PeltierCalibration.c ****             }
 727:.\PeltierCalibration.c ****             else
 728:.\PeltierCalibration.c ****             {
 729:.\PeltierCalibration.c ****                 valueToWrite = actualCtrlRegisterValue | PELTIER1_ENABLE_MSK;
 730:.\PeltierCalibration.c ****                 SM1.peltierState = peltierEnabled;
 731:.\PeltierCalibration.c ****             }
 732:.\PeltierCalibration.c ****             break;
 733:.\PeltierCalibration.c ****         }
 734:.\PeltierCalibration.c ****         case (2):
ARM GAS  C:\Users\plod1602\AppData\Local\Temp\cckpLv0Q.s 			page 53


 735:.\PeltierCalibration.c ****         {
 736:.\PeltierCalibration.c ****             if (peltierEnableState == 0)
 737:.\PeltierCalibration.c ****             {
 738:.\PeltierCalibration.c ****                 valueToWrite = (actualCtrlRegisterValue) & (~PELTIER2_ENABLE_MSK);
 739:.\PeltierCalibration.c ****                 SM2.peltierState = peltierDisabled;
 740:.\PeltierCalibration.c ****             }
 741:.\PeltierCalibration.c ****             else
 742:.\PeltierCalibration.c ****             {
 743:.\PeltierCalibration.c ****                 valueToWrite = actualCtrlRegisterValue | PELTIER2_ENABLE_MSK;
 744:.\PeltierCalibration.c ****                 SM2.peltierState = peltierEnabled;
 745:.\PeltierCalibration.c ****             }
 746:.\PeltierCalibration.c ****             break;
 747:.\PeltierCalibration.c ****         }
 748:.\PeltierCalibration.c ****         default:
 749:.\PeltierCalibration.c ****             break;
 2157              		.loc 1 749 0
 2158 0020 25E0     		b	.L163
 2159              	.L159:
 722:.\PeltierCalibration.c ****             if (peltierEnableState == 0)
 2160              		.loc 1 722 0
 2161 0022 FB79     		ldrb	r3, [r7, #7]	@ zero_extendqisi2
 2162 0024 002B     		cmp	r3, #0
 2163 0026 07D1     		bne	.L161
 724:.\PeltierCalibration.c ****                 valueToWrite = (actualCtrlRegisterValue) & (~PELTIER1_ENABLE_MSK);
 2164              		.loc 1 724 0
 2165 0028 BB7B     		ldrb	r3, [r7, #14]
 2166 002a 23F00103 		bic	r3, r3, #1
 2167 002e FB73     		strb	r3, [r7, #15]
 725:.\PeltierCalibration.c ****                 SM1.peltierState = peltierDisabled;
 2168              		.loc 1 725 0
 2169 0030 134B     		ldr	r3, .L168
 2170 0032 0022     		movs	r2, #0
 2171 0034 1A71     		strb	r2, [r3, #4]
 732:.\PeltierCalibration.c ****             break;
 2172              		.loc 1 732 0
 2173 0036 1AE0     		b	.L163
 2174              	.L161:
 729:.\PeltierCalibration.c ****                 valueToWrite = actualCtrlRegisterValue | PELTIER1_ENABLE_MSK;
 2175              		.loc 1 729 0
 2176 0038 BB7B     		ldrb	r3, [r7, #14]
 2177 003a 43F00103 		orr	r3, r3, #1
 2178 003e FB73     		strb	r3, [r7, #15]
 730:.\PeltierCalibration.c ****                 SM1.peltierState = peltierEnabled;
 2179              		.loc 1 730 0
 2180 0040 0F4B     		ldr	r3, .L168
 2181 0042 0122     		movs	r2, #1
 2182 0044 1A71     		strb	r2, [r3, #4]
 732:.\PeltierCalibration.c ****             break;
 2183              		.loc 1 732 0
 2184 0046 12E0     		b	.L163
 2185              	.L160:
 736:.\PeltierCalibration.c ****             if (peltierEnableState == 0)
 2186              		.loc 1 736 0
 2187 0048 FB79     		ldrb	r3, [r7, #7]	@ zero_extendqisi2
 2188 004a 002B     		cmp	r3, #0
 2189 004c 07D1     		bne	.L164
 738:.\PeltierCalibration.c ****                 valueToWrite = (actualCtrlRegisterValue) & (~PELTIER2_ENABLE_MSK);
ARM GAS  C:\Users\plod1602\AppData\Local\Temp\cckpLv0Q.s 			page 54


 2190              		.loc 1 738 0
 2191 004e BB7B     		ldrb	r3, [r7, #14]
 2192 0050 23F00203 		bic	r3, r3, #2
 2193 0054 FB73     		strb	r3, [r7, #15]
 739:.\PeltierCalibration.c ****                 SM2.peltierState = peltierDisabled;
 2194              		.loc 1 739 0
 2195 0056 0B4B     		ldr	r3, .L168+4
 2196 0058 0022     		movs	r2, #0
 2197 005a 1A71     		strb	r2, [r3, #4]
 746:.\PeltierCalibration.c ****             break;
 2198              		.loc 1 746 0
 2199 005c 06E0     		b	.L167
 2200              	.L164:
 743:.\PeltierCalibration.c ****                 valueToWrite = actualCtrlRegisterValue | PELTIER2_ENABLE_MSK;
 2201              		.loc 1 743 0
 2202 005e BB7B     		ldrb	r3, [r7, #14]
 2203 0060 43F00203 		orr	r3, r3, #2
 2204 0064 FB73     		strb	r3, [r7, #15]
 744:.\PeltierCalibration.c ****                 SM2.peltierState = peltierEnabled;
 2205              		.loc 1 744 0
 2206 0066 074B     		ldr	r3, .L168+4
 2207 0068 0122     		movs	r2, #1
 2208 006a 1A71     		strb	r2, [r3, #4]
 2209              	.L167:
 746:.\PeltierCalibration.c ****             break;
 2210              		.loc 1 746 0
 2211 006c 00BF     		nop
 2212              	.L163:
 750:.\PeltierCalibration.c ****     }
 751:.\PeltierCalibration.c ****     Peltier_Enable_Write(valueToWrite);
 2213              		.loc 1 751 0
 2214 006e FB7B     		ldrb	r3, [r7, #15]	@ zero_extendqisi2
 2215 0070 1846     		mov	r0, r3
 2216 0072 FFF7FEFF 		bl	Peltier_Enable_Write
 752:.\PeltierCalibration.c ****     return 1;
 2217              		.loc 1 752 0
 2218 0076 0123     		movs	r3, #1
 753:.\PeltierCalibration.c **** }
 2219              		.loc 1 753 0
 2220 0078 1846     		mov	r0, r3
 2221 007a 1037     		adds	r7, r7, #16
 2222 007c BD46     		mov	sp, r7
 2223              		@ sp needed
 2224 007e 80BD     		pop	{r7, pc}
 2225              	.L169:
 2226              		.align	2
 2227              	.L168:
 2228 0080 00000000 		.word	SM1
 2229 0084 00000000 		.word	SM2
 2230              		.cfi_endproc
 2231              	.LFE71:
 2232              		.size	changePeltierModuleState, .-changePeltierModuleState
 2233              		.section	.text.changePeltierModuleCurrentDirection,"ax",%progbits
 2234              		.align	2
 2235              		.global	changePeltierModuleCurrentDirection
 2236              		.thumb
 2237              		.thumb_func
ARM GAS  C:\Users\plod1602\AppData\Local\Temp\cckpLv0Q.s 			page 55


 2238              		.type	changePeltierModuleCurrentDirection, %function
 2239              	changePeltierModuleCurrentDirection:
 2240              	.LFB72:
 754:.\PeltierCalibration.c **** 
 755:.\PeltierCalibration.c **** // Direction should be settled to PELTIER_COOL or PELTIER_HEAT
 756:.\PeltierCalibration.c **** uint8 changePeltierModuleCurrentDirection(uint8 Direction, uint8 moduleNumber)
 757:.\PeltierCalibration.c **** {   
 2241              		.loc 1 757 0
 2242              		.cfi_startproc
 2243              		@ args = 0, pretend = 0, frame = 8
 2244              		@ frame_needed = 1, uses_anonymous_args = 0
 2245 0000 80B5     		push	{r7, lr}
 2246              		.cfi_def_cfa_offset 8
 2247              		.cfi_offset 7, -8
 2248              		.cfi_offset 14, -4
 2249 0002 82B0     		sub	sp, sp, #8
 2250              		.cfi_def_cfa_offset 16
 2251 0004 00AF     		add	r7, sp, #0
 2252              		.cfi_def_cfa_register 7
 2253 0006 0246     		mov	r2, r0
 2254 0008 0B46     		mov	r3, r1
 2255 000a FA71     		strb	r2, [r7, #7]
 2256 000c BB71     		strb	r3, [r7, #6]
 758:.\PeltierCalibration.c ****     if (Direction==PELTIER_HEAT || Direction==PELTIER_COOL)
 2257              		.loc 1 758 0
 2258 000e FB79     		ldrb	r3, [r7, #7]	@ zero_extendqisi2
 2259 0010 022B     		cmp	r3, #2
 2260 0012 02D0     		beq	.L171
 2261              		.loc 1 758 0 is_stmt 0 discriminator 1
 2262 0014 FB79     		ldrb	r3, [r7, #7]	@ zero_extendqisi2
 2263 0016 012B     		cmp	r3, #1
 2264 0018 17D1     		bne	.L172
 2265              	.L171:
 759:.\PeltierCalibration.c ****     {
 760:.\PeltierCalibration.c ****         switch (moduleNumber)
 2266              		.loc 1 760 0 is_stmt 1
 2267 001a BB79     		ldrb	r3, [r7, #6]	@ zero_extendqisi2
 2268 001c 012B     		cmp	r3, #1
 2269 001e 02D0     		beq	.L174
 2270 0020 022B     		cmp	r3, #2
 2271 0022 08D0     		beq	.L175
 761:.\PeltierCalibration.c ****         {
 762:.\PeltierCalibration.c ****             case (1):
 763:.\PeltierCalibration.c ****             {
 764:.\PeltierCalibration.c ****                 Peltier1_Ctrl_Write(Direction);
 765:.\PeltierCalibration.c ****                 SM1.currentDirection = Direction;
 766:.\PeltierCalibration.c ****                 break;
 767:.\PeltierCalibration.c ****             }
 768:.\PeltierCalibration.c ****             case (2):
 769:.\PeltierCalibration.c ****             {
 770:.\PeltierCalibration.c ****                 Peltier2_Ctrl_Write(Direction); 
 771:.\PeltierCalibration.c ****                 SM2.currentDirection = Direction;
 772:.\PeltierCalibration.c ****                 break;
 773:.\PeltierCalibration.c ****             }
 774:.\PeltierCalibration.c ****             default:
 775:.\PeltierCalibration.c ****                 break;
 2272              		.loc 1 775 0
ARM GAS  C:\Users\plod1602\AppData\Local\Temp\cckpLv0Q.s 			page 56


 2273 0024 0FE0     		b	.L176
 2274              	.L174:
 764:.\PeltierCalibration.c ****                 Peltier1_Ctrl_Write(Direction);
 2275              		.loc 1 764 0
 2276 0026 FB79     		ldrb	r3, [r7, #7]	@ zero_extendqisi2
 2277 0028 1846     		mov	r0, r3
 2278 002a FFF7FEFF 		bl	Peltier1_Ctrl_Write
 765:.\PeltierCalibration.c ****                 SM1.currentDirection = Direction;
 2279              		.loc 1 765 0
 2280 002e 094B     		ldr	r3, .L178
 2281 0030 FA79     		ldrb	r2, [r7, #7]
 2282 0032 5A73     		strb	r2, [r3, #13]
 766:.\PeltierCalibration.c ****                 break;
 2283              		.loc 1 766 0
 2284 0034 07E0     		b	.L176
 2285              	.L175:
 770:.\PeltierCalibration.c ****                 Peltier2_Ctrl_Write(Direction); 
 2286              		.loc 1 770 0
 2287 0036 FB79     		ldrb	r3, [r7, #7]	@ zero_extendqisi2
 2288 0038 1846     		mov	r0, r3
 2289 003a FFF7FEFF 		bl	Peltier2_Ctrl_Write
 771:.\PeltierCalibration.c ****                 SM2.currentDirection = Direction;
 2290              		.loc 1 771 0
 2291 003e 064B     		ldr	r3, .L178+4
 2292 0040 FA79     		ldrb	r2, [r7, #7]
 2293 0042 5A73     		strb	r2, [r3, #13]
 772:.\PeltierCalibration.c ****                 break;
 2294              		.loc 1 772 0
 2295 0044 00BF     		nop
 2296              	.L176:
 776:.\PeltierCalibration.c ****         }
 777:.\PeltierCalibration.c ****         
 778:.\PeltierCalibration.c ****         return 1;
 2297              		.loc 1 778 0
 2298 0046 0123     		movs	r3, #1
 2299 0048 00E0     		b	.L177
 2300              	.L172:
 779:.\PeltierCalibration.c ****     }
 780:.\PeltierCalibration.c ****     else
 781:.\PeltierCalibration.c ****     {
 782:.\PeltierCalibration.c ****         return 0;    
 2301              		.loc 1 782 0
 2302 004a 0023     		movs	r3, #0
 2303              	.L177:
 783:.\PeltierCalibration.c ****     }
 784:.\PeltierCalibration.c **** }
 2304              		.loc 1 784 0
 2305 004c 1846     		mov	r0, r3
 2306 004e 0837     		adds	r7, r7, #8
 2307 0050 BD46     		mov	sp, r7
 2308              		@ sp needed
 2309 0052 80BD     		pop	{r7, pc}
 2310              	.L179:
 2311              		.align	2
 2312              	.L178:
 2313 0054 00000000 		.word	SM1
 2314 0058 00000000 		.word	SM2
ARM GAS  C:\Users\plod1602\AppData\Local\Temp\cckpLv0Q.s 			page 57


 2315              		.cfi_endproc
 2316              	.LFE72:
 2317              		.size	changePeltierModuleCurrentDirection, .-changePeltierModuleCurrentDirection
 2318              		.section	.text.changePeltierPWMValue,"ax",%progbits
 2319              		.align	2
 2320              		.global	changePeltierPWMValue
 2321              		.thumb
 2322              		.thumb_func
 2323              		.type	changePeltierPWMValue, %function
 2324              	changePeltierPWMValue:
 2325              	.LFB73:
 785:.\PeltierCalibration.c **** 
 786:.\PeltierCalibration.c **** uint8 changePeltierPWMValue(uint8 desiredPercentage, uint8 subModuleID)
 787:.\PeltierCalibration.c **** {
 2326              		.loc 1 787 0
 2327              		.cfi_startproc
 2328              		@ args = 0, pretend = 0, frame = 16
 2329              		@ frame_needed = 1, uses_anonymous_args = 0
 2330 0000 80B5     		push	{r7, lr}
 2331              		.cfi_def_cfa_offset 8
 2332              		.cfi_offset 7, -8
 2333              		.cfi_offset 14, -4
 2334 0002 84B0     		sub	sp, sp, #16
 2335              		.cfi_def_cfa_offset 24
 2336 0004 00AF     		add	r7, sp, #0
 2337              		.cfi_def_cfa_register 7
 2338 0006 0246     		mov	r2, r0
 2339 0008 0B46     		mov	r3, r1
 2340 000a FA71     		strb	r2, [r7, #7]
 2341 000c BB71     		strb	r3, [r7, #6]
 788:.\PeltierCalibration.c ****     int maxPWMPulse=0; 
 2342              		.loc 1 788 0
 2343 000e 0023     		movs	r3, #0
 2344 0010 FB60     		str	r3, [r7, #12]
 789:.\PeltierCalibration.c ****     uint8 pwmWriteCompareValue=0;
 2345              		.loc 1 789 0
 2346 0012 0023     		movs	r3, #0
 2347 0014 FB72     		strb	r3, [r7, #11]
 790:.\PeltierCalibration.c ****     
 791:.\PeltierCalibration.c ****     if (subModuleID == SubModule1_ID)
 2348              		.loc 1 791 0
 2349 0016 BB79     		ldrb	r3, [r7, #6]	@ zero_extendqisi2
 2350 0018 012B     		cmp	r3, #1
 2351 001a 1AD1     		bne	.L181
 792:.\PeltierCalibration.c ****     {
 793:.\PeltierCalibration.c ****         maxPWMPulse = Peltier1_PWM_Ctrl_ReadPeriod(); 
 2352              		.loc 1 793 0
 2353 001c FFF7FEFF 		bl	Peltier1_PWM_Ctrl_ReadPeriod
 2354 0020 0346     		mov	r3, r0
 2355 0022 FB60     		str	r3, [r7, #12]
 794:.\PeltierCalibration.c ****         pwmWriteCompareValue = desiredPercentage*maxPWMPulse/100;
 2356              		.loc 1 794 0
 2357 0024 FB79     		ldrb	r3, [r7, #7]	@ zero_extendqisi2
 2358 0026 FA68     		ldr	r2, [r7, #12]
 2359 0028 02FB03F3 		mul	r3, r2, r3
 2360 002c 1B4A     		ldr	r2, .L185
 2361 002e 82FB0312 		smull	r1, r2, r2, r3
ARM GAS  C:\Users\plod1602\AppData\Local\Temp\cckpLv0Q.s 			page 58


 2362 0032 5211     		asrs	r2, r2, #5
 2363 0034 DB17     		asrs	r3, r3, #31
 2364 0036 D31A     		subs	r3, r2, r3
 2365 0038 FB72     		strb	r3, [r7, #11]
 795:.\PeltierCalibration.c ****         Peltier1_PWM_Ctrl_WriteCompare(pwmWriteCompareValue);
 2366              		.loc 1 795 0
 2367 003a FB7A     		ldrb	r3, [r7, #11]	@ zero_extendqisi2
 2368 003c 1846     		mov	r0, r3
 2369 003e FFF7FEFF 		bl	Peltier1_PWM_Ctrl_WriteCompare
 796:.\PeltierCalibration.c ****         SM1.pwmPeriodValue = maxPWMPulse;
 2370              		.loc 1 796 0
 2371 0042 FB68     		ldr	r3, [r7, #12]
 2372 0044 DAB2     		uxtb	r2, r3
 2373 0046 164B     		ldr	r3, .L185+4
 2374 0048 1A74     		strb	r2, [r3, #16]
 797:.\PeltierCalibration.c ****         SM1.pwmCompareValue = pwmWriteCompareValue;        
 2375              		.loc 1 797 0
 2376 004a 154B     		ldr	r3, .L185+4
 2377 004c FA7A     		ldrb	r2, [r7, #11]
 2378 004e 9A73     		strb	r2, [r3, #14]
 2379 0050 1FE0     		b	.L182
 2380              	.L181:
 798:.\PeltierCalibration.c ****     }
 799:.\PeltierCalibration.c ****     else if(subModuleID == SubModule2_ID)
 2381              		.loc 1 799 0
 2382 0052 BB79     		ldrb	r3, [r7, #6]	@ zero_extendqisi2
 2383 0054 022B     		cmp	r3, #2
 2384 0056 1AD1     		bne	.L183
 800:.\PeltierCalibration.c ****     {
 801:.\PeltierCalibration.c ****         maxPWMPulse = Peltier2_PWM_Ctrl_ReadPeriod();
 2385              		.loc 1 801 0
 2386 0058 FFF7FEFF 		bl	Peltier2_PWM_Ctrl_ReadPeriod
 2387 005c 0346     		mov	r3, r0
 2388 005e FB60     		str	r3, [r7, #12]
 802:.\PeltierCalibration.c ****         pwmWriteCompareValue = desiredPercentage*maxPWMPulse/100;
 2389              		.loc 1 802 0
 2390 0060 FB79     		ldrb	r3, [r7, #7]	@ zero_extendqisi2
 2391 0062 FA68     		ldr	r2, [r7, #12]
 2392 0064 02FB03F3 		mul	r3, r2, r3
 2393 0068 0C4A     		ldr	r2, .L185
 2394 006a 82FB0312 		smull	r1, r2, r2, r3
 2395 006e 5211     		asrs	r2, r2, #5
 2396 0070 DB17     		asrs	r3, r3, #31
 2397 0072 D31A     		subs	r3, r2, r3
 2398 0074 FB72     		strb	r3, [r7, #11]
 803:.\PeltierCalibration.c ****         Peltier2_PWM_Ctrl_WriteCompare(pwmWriteCompareValue);
 2399              		.loc 1 803 0
 2400 0076 FB7A     		ldrb	r3, [r7, #11]	@ zero_extendqisi2
 2401 0078 1846     		mov	r0, r3
 2402 007a FFF7FEFF 		bl	Peltier2_PWM_Ctrl_WriteCompare
 804:.\PeltierCalibration.c ****         SM2.pwmPeriodValue = maxPWMPulse;
 2403              		.loc 1 804 0
 2404 007e FB68     		ldr	r3, [r7, #12]
 2405 0080 DAB2     		uxtb	r2, r3
 2406 0082 084B     		ldr	r3, .L185+8
 2407 0084 1A74     		strb	r2, [r3, #16]
 805:.\PeltierCalibration.c ****         SM2.pwmCompareValue = pwmWriteCompareValue;    
ARM GAS  C:\Users\plod1602\AppData\Local\Temp\cckpLv0Q.s 			page 59


 2408              		.loc 1 805 0
 2409 0086 074B     		ldr	r3, .L185+8
 2410 0088 FA7A     		ldrb	r2, [r7, #11]
 2411 008a 9A73     		strb	r2, [r3, #14]
 2412 008c 01E0     		b	.L182
 2413              	.L183:
 806:.\PeltierCalibration.c ****     }
 807:.\PeltierCalibration.c ****     else
 808:.\PeltierCalibration.c ****     {
 809:.\PeltierCalibration.c ****         return 0;
 2414              		.loc 1 809 0
 2415 008e 0023     		movs	r3, #0
 2416 0090 00E0     		b	.L184
 2417              	.L182:
 810:.\PeltierCalibration.c ****     }
 811:.\PeltierCalibration.c **** 
 812:.\PeltierCalibration.c ****     return 1;
 2418              		.loc 1 812 0
 2419 0092 0123     		movs	r3, #1
 2420              	.L184:
 813:.\PeltierCalibration.c **** }
 2421              		.loc 1 813 0
 2422 0094 1846     		mov	r0, r3
 2423 0096 1037     		adds	r7, r7, #16
 2424 0098 BD46     		mov	sp, r7
 2425              		@ sp needed
 2426 009a 80BD     		pop	{r7, pc}
 2427              	.L186:
 2428              		.align	2
 2429              	.L185:
 2430 009c 1F85EB51 		.word	1374389535
 2431 00a0 00000000 		.word	SM1
 2432 00a4 00000000 		.word	SM2
 2433              		.cfi_endproc
 2434              	.LFE73:
 2435              		.size	changePeltierPWMValue, .-changePeltierPWMValue
 2436              		.text
 2437              	.Letext0:
 2438              		.file 2 "c:\\program files (x86)\\cypress\\psoc creator\\3.2\\psoc creator\\import\\gnu\\arm\\4.8.
 2439              		.file 3 "c:\\program files (x86)\\cypress\\psoc creator\\3.2\\psoc creator\\import\\gnu\\arm\\4.8.
 2440              		.file 4 "Generated_Source\\PSoC5/cytypes.h"
 2441              		.file 5 "./TAC_Submodule.h"
 2442              		.file 6 "Generated_Source\\PSoC5/core_cm3.h"
 2443              		.file 7 "./Defines.h"
 2444              		.file 8 "./PeltierCalibration.h"
 2445              		.section	.debug_info,"",%progbits
 2446              	.Ldebug_info0:
 2447 0000 C20A0000 		.4byte	0xac2
 2448 0004 0400     		.2byte	0x4
 2449 0006 00000000 		.4byte	.Ldebug_abbrev0
 2450 000a 04       		.byte	0x4
 2451 000b 01       		.uleb128 0x1
 2452 000c 31070000 		.4byte	.LASF146
 2453 0010 01       		.byte	0x1
 2454 0011 CE060000 		.4byte	.LASF147
 2455 0015 60020000 		.4byte	.LASF148
 2456 0019 00000000 		.4byte	.Ldebug_ranges0+0
ARM GAS  C:\Users\plod1602\AppData\Local\Temp\cckpLv0Q.s 			page 60


 2457 001d 00000000 		.4byte	0
 2458 0021 00000000 		.4byte	.Ldebug_line0
 2459 0025 02       		.uleb128 0x2
 2460 0026 01       		.byte	0x1
 2461 0027 06       		.byte	0x6
 2462 0028 39080000 		.4byte	.LASF0
 2463 002c 03       		.uleb128 0x3
 2464 002d 18060000 		.4byte	.LASF4
 2465 0031 02       		.byte	0x2
 2466 0032 1C       		.byte	0x1c
 2467 0033 37000000 		.4byte	0x37
 2468 0037 02       		.uleb128 0x2
 2469 0038 01       		.byte	0x1
 2470 0039 08       		.byte	0x8
 2471 003a E5060000 		.4byte	.LASF1
 2472 003e 02       		.uleb128 0x2
 2473 003f 02       		.byte	0x2
 2474 0040 05       		.byte	0x5
 2475 0041 6F050000 		.4byte	.LASF2
 2476 0045 02       		.uleb128 0x2
 2477 0046 02       		.byte	0x2
 2478 0047 07       		.byte	0x7
 2479 0048 6A080000 		.4byte	.LASF3
 2480 004c 03       		.uleb128 0x3
 2481 004d E0000000 		.4byte	.LASF5
 2482 0051 02       		.byte	0x2
 2483 0052 37       		.byte	0x37
 2484 0053 57000000 		.4byte	0x57
 2485 0057 02       		.uleb128 0x2
 2486 0058 04       		.byte	0x4
 2487 0059 05       		.byte	0x5
 2488 005a 91050000 		.4byte	.LASF6
 2489 005e 02       		.uleb128 0x2
 2490 005f 04       		.byte	0x4
 2491 0060 07       		.byte	0x7
 2492 0061 7E060000 		.4byte	.LASF7
 2493 0065 02       		.uleb128 0x2
 2494 0066 08       		.byte	0x8
 2495 0067 05       		.byte	0x5
 2496 0068 0B040000 		.4byte	.LASF8
 2497 006c 02       		.uleb128 0x2
 2498 006d 08       		.byte	0x8
 2499 006e 07       		.byte	0x7
 2500 006f 0C020000 		.4byte	.LASF9
 2501 0073 04       		.uleb128 0x4
 2502 0074 04       		.byte	0x4
 2503 0075 05       		.byte	0x5
 2504 0076 696E7400 		.ascii	"int\000"
 2505 007a 02       		.uleb128 0x2
 2506 007b 04       		.byte	0x4
 2507 007c 07       		.byte	0x7
 2508 007d A1000000 		.4byte	.LASF10
 2509 0081 03       		.uleb128 0x3
 2510 0082 D9030000 		.4byte	.LASF11
 2511 0086 03       		.byte	0x3
 2512 0087 2A       		.byte	0x2a
 2513 0088 2C000000 		.4byte	0x2c
ARM GAS  C:\Users\plod1602\AppData\Local\Temp\cckpLv0Q.s 			page 61


 2514 008c 03       		.uleb128 0x3
 2515 008d A4060000 		.4byte	.LASF12
 2516 0091 03       		.byte	0x3
 2517 0092 41       		.byte	0x41
 2518 0093 4C000000 		.4byte	0x4c
 2519 0097 03       		.uleb128 0x3
 2520 0098 B3080000 		.4byte	.LASF13
 2521 009c 04       		.byte	0x4
 2522 009d A1       		.byte	0xa1
 2523 009e 37000000 		.4byte	0x37
 2524 00a2 03       		.uleb128 0x3
 2525 00a3 A2030000 		.4byte	.LASF14
 2526 00a7 04       		.byte	0x4
 2527 00a8 A2       		.byte	0xa2
 2528 00a9 45000000 		.4byte	0x45
 2529 00ad 03       		.uleb128 0x3
 2530 00ae 54040000 		.4byte	.LASF15
 2531 00b2 04       		.byte	0x4
 2532 00b3 A3       		.byte	0xa3
 2533 00b4 5E000000 		.4byte	0x5e
 2534 00b8 03       		.uleb128 0x3
 2535 00b9 A9030000 		.4byte	.LASF16
 2536 00bd 04       		.byte	0x4
 2537 00be A4       		.byte	0xa4
 2538 00bf 25000000 		.4byte	0x25
 2539 00c3 03       		.uleb128 0x3
 2540 00c4 EA000000 		.4byte	.LASF17
 2541 00c8 04       		.byte	0x4
 2542 00c9 A5       		.byte	0xa5
 2543 00ca 3E000000 		.4byte	0x3e
 2544 00ce 03       		.uleb128 0x3
 2545 00cf C2010000 		.4byte	.LASF18
 2546 00d3 04       		.byte	0x4
 2547 00d4 A6       		.byte	0xa6
 2548 00d5 57000000 		.4byte	0x57
 2549 00d9 02       		.uleb128 0x2
 2550 00da 04       		.byte	0x4
 2551 00db 04       		.byte	0x4
 2552 00dc BC010000 		.4byte	.LASF19
 2553 00e0 02       		.uleb128 0x2
 2554 00e1 08       		.byte	0x8
 2555 00e2 04       		.byte	0x4
 2556 00e3 B9080000 		.4byte	.LASF20
 2557 00e7 02       		.uleb128 0x2
 2558 00e8 01       		.byte	0x1
 2559 00e9 08       		.byte	0x8
 2560 00ea 87030000 		.4byte	.LASF21
 2561 00ee 05       		.uleb128 0x5
 2562 00ef C5060000 		.4byte	.LASF22
 2563 00f3 04       		.byte	0x4
 2564 00f4 4301     		.2byte	0x143
 2565 00f6 5E000000 		.4byte	0x5e
 2566 00fa 06       		.uleb128 0x6
 2567 00fb 97000000 		.4byte	0x97
 2568 00ff 02       		.uleb128 0x2
 2569 0100 04       		.byte	0x4
 2570 0101 07       		.byte	0x7
ARM GAS  C:\Users\plod1602\AppData\Local\Temp\cckpLv0Q.s 			page 62


 2571 0102 75060000 		.4byte	.LASF23
 2572 0106 02       		.uleb128 0x2
 2573 0107 08       		.byte	0x8
 2574 0108 04       		.byte	0x4
 2575 0109 D9040000 		.4byte	.LASF24
 2576 010d 07       		.uleb128 0x7
 2577 010e 01       		.byte	0x1
 2578 010f 05       		.byte	0x5
 2579 0110 13       		.byte	0x13
 2580 0111 22010000 		.4byte	0x122
 2581 0115 08       		.uleb128 0x8
 2582 0116 AE040000 		.4byte	.LASF25
 2583 011a 00       		.sleb128 0
 2584 011b 08       		.uleb128 0x8
 2585 011c 50020000 		.4byte	.LASF26
 2586 0120 01       		.sleb128 1
 2587 0121 00       		.byte	0
 2588 0122 03       		.uleb128 0x3
 2589 0123 C6070000 		.4byte	.LASF27
 2590 0127 05       		.byte	0x5
 2591 0128 13       		.byte	0x13
 2592 0129 0D010000 		.4byte	0x10d
 2593 012d 07       		.uleb128 0x7
 2594 012e 01       		.byte	0x1
 2595 012f 05       		.byte	0x5
 2596 0130 14       		.byte	0x14
 2597 0131 42010000 		.4byte	0x142
 2598 0135 08       		.uleb128 0x8
 2599 0136 83080000 		.4byte	.LASF28
 2600 013a 00       		.sleb128 0
 2601 013b 08       		.uleb128 0x8
 2602 013c CE040000 		.4byte	.LASF29
 2603 0140 01       		.sleb128 1
 2604 0141 00       		.byte	0
 2605 0142 03       		.uleb128 0x3
 2606 0143 23000000 		.4byte	.LASF30
 2607 0147 05       		.byte	0x5
 2608 0148 14       		.byte	0x14
 2609 0149 2D010000 		.4byte	0x12d
 2610 014d 07       		.uleb128 0x7
 2611 014e 01       		.byte	0x1
 2612 014f 05       		.byte	0x5
 2613 0150 15       		.byte	0x15
 2614 0151 62010000 		.4byte	0x162
 2615 0155 08       		.uleb128 0x8
 2616 0156 FE020000 		.4byte	.LASF31
 2617 015a 00       		.sleb128 0
 2618 015b 08       		.uleb128 0x8
 2619 015c 4C060000 		.4byte	.LASF32
 2620 0160 01       		.sleb128 1
 2621 0161 00       		.byte	0
 2622 0162 03       		.uleb128 0x3
 2623 0163 36020000 		.4byte	.LASF33
 2624 0167 05       		.byte	0x5
 2625 0168 15       		.byte	0x15
 2626 0169 4D010000 		.4byte	0x14d
 2627 016d 07       		.uleb128 0x7
ARM GAS  C:\Users\plod1602\AppData\Local\Temp\cckpLv0Q.s 			page 63


 2628 016e 01       		.byte	0x1
 2629 016f 05       		.byte	0x5
 2630 0170 16       		.byte	0x16
 2631 0171 94010000 		.4byte	0x194
 2632 0175 08       		.uleb128 0x8
 2633 0176 DE050000 		.4byte	.LASF34
 2634 017a 00       		.sleb128 0
 2635 017b 08       		.uleb128 0x8
 2636 017c 10010000 		.4byte	.LASF35
 2637 0180 01       		.sleb128 1
 2638 0181 08       		.uleb128 0x8
 2639 0182 9D040000 		.4byte	.LASF36
 2640 0186 02       		.sleb128 2
 2641 0187 08       		.uleb128 0x8
 2642 0188 18070000 		.4byte	.LASF37
 2643 018c 03       		.sleb128 3
 2644 018d 08       		.uleb128 0x8
 2645 018e 07090000 		.4byte	.LASF38
 2646 0192 04       		.sleb128 4
 2647 0193 00       		.byte	0
 2648 0194 03       		.uleb128 0x3
 2649 0195 31000000 		.4byte	.LASF39
 2650 0199 05       		.byte	0x5
 2651 019a 16       		.byte	0x16
 2652 019b 6D010000 		.4byte	0x16d
 2653 019f 07       		.uleb128 0x7
 2654 01a0 01       		.byte	0x1
 2655 01a1 05       		.byte	0x5
 2656 01a2 17       		.byte	0x17
 2657 01a3 BA010000 		.4byte	0x1ba
 2658 01a7 08       		.uleb128 0x8
 2659 01a8 3A050000 		.4byte	.LASF40
 2660 01ac 00       		.sleb128 0
 2661 01ad 08       		.uleb128 0x8
 2662 01ae E5040000 		.4byte	.LASF41
 2663 01b2 01       		.sleb128 1
 2664 01b3 08       		.uleb128 0x8
 2665 01b4 D9070000 		.4byte	.LASF42
 2666 01b8 02       		.sleb128 2
 2667 01b9 00       		.byte	0
 2668 01ba 03       		.uleb128 0x3
 2669 01bb 33010000 		.4byte	.LASF43
 2670 01bf 05       		.byte	0x5
 2671 01c0 17       		.byte	0x17
 2672 01c1 9F010000 		.4byte	0x19f
 2673 01c5 07       		.uleb128 0x7
 2674 01c6 01       		.byte	0x1
 2675 01c7 05       		.byte	0x5
 2676 01c8 18       		.byte	0x18
 2677 01c9 DA010000 		.4byte	0x1da
 2678 01cd 08       		.uleb128 0x8
 2679 01ce A7050000 		.4byte	.LASF44
 2680 01d2 00       		.sleb128 0
 2681 01d3 08       		.uleb128 0x8
 2682 01d4 1B030000 		.4byte	.LASF45
 2683 01d8 01       		.sleb128 1
 2684 01d9 00       		.byte	0
ARM GAS  C:\Users\plod1602\AppData\Local\Temp\cckpLv0Q.s 			page 64


 2685 01da 03       		.uleb128 0x3
 2686 01db ED040000 		.4byte	.LASF46
 2687 01df 05       		.byte	0x5
 2688 01e0 18       		.byte	0x18
 2689 01e1 C5010000 		.4byte	0x1c5
 2690 01e5 07       		.uleb128 0x7
 2691 01e6 01       		.byte	0x1
 2692 01e7 05       		.byte	0x5
 2693 01e8 19       		.byte	0x19
 2694 01e9 FA010000 		.4byte	0x1fa
 2695 01ed 08       		.uleb128 0x8
 2696 01ee 00000000 		.4byte	.LASF47
 2697 01f2 00       		.sleb128 0
 2698 01f3 08       		.uleb128 0x8
 2699 01f4 06000000 		.4byte	.LASF48
 2700 01f8 01       		.sleb128 1
 2701 01f9 00       		.byte	0
 2702 01fa 03       		.uleb128 0x3
 2703 01fb E1030000 		.4byte	.LASF49
 2704 01ff 05       		.byte	0x5
 2705 0200 19       		.byte	0x19
 2706 0201 E5010000 		.4byte	0x1e5
 2707 0205 07       		.uleb128 0x7
 2708 0206 01       		.byte	0x1
 2709 0207 05       		.byte	0x5
 2710 0208 1A       		.byte	0x1a
 2711 0209 1A020000 		.4byte	0x21a
 2712 020d 08       		.uleb128 0x8
 2713 020e CA050000 		.4byte	.LASF50
 2714 0212 00       		.sleb128 0
 2715 0213 08       		.uleb128 0x8
 2716 0214 F0000000 		.4byte	.LASF51
 2717 0218 01       		.sleb128 1
 2718 0219 00       		.byte	0
 2719 021a 03       		.uleb128 0x3
 2720 021b C2030000 		.4byte	.LASF52
 2721 021f 05       		.byte	0x5
 2722 0220 1A       		.byte	0x1a
 2723 0221 05020000 		.4byte	0x205
 2724 0225 09       		.uleb128 0x9
 2725 0226 24       		.byte	0x24
 2726 0227 05       		.byte	0x5
 2727 0228 1D       		.byte	0x1d
 2728 0229 1E030000 		.4byte	0x31e
 2729 022d 0A       		.uleb128 0xa
 2730 022e 41050000 		.4byte	.LASF53
 2731 0232 05       		.byte	0x5
 2732 0233 1F       		.byte	0x1f
 2733 0234 A2000000 		.4byte	0xa2
 2734 0238 00       		.byte	0
 2735 0239 0A       		.uleb128 0xa
 2736 023a 89000000 		.4byte	.LASF54
 2737 023e 05       		.byte	0x5
 2738 023f 20       		.byte	0x20
 2739 0240 A2000000 		.4byte	0xa2
 2740 0244 02       		.byte	0x2
 2741 0245 0A       		.uleb128 0xa
ARM GAS  C:\Users\plod1602\AppData\Local\Temp\cckpLv0Q.s 			page 65


 2742 0246 19040000 		.4byte	.LASF55
 2743 024a 05       		.byte	0x5
 2744 024b 22       		.byte	0x22
 2745 024c 62010000 		.4byte	0x162
 2746 0250 04       		.byte	0x4
 2747 0251 0A       		.uleb128 0xa
 2748 0252 06060000 		.4byte	.LASF56
 2749 0256 05       		.byte	0x5
 2750 0257 24       		.byte	0x24
 2751 0258 C3000000 		.4byte	0xc3
 2752 025c 06       		.byte	0x6
 2753 025d 0A       		.uleb128 0xa
 2754 025e 99020000 		.4byte	.LASF57
 2755 0262 05       		.byte	0x5
 2756 0263 25       		.byte	0x25
 2757 0264 C3000000 		.4byte	0xc3
 2758 0268 08       		.byte	0x8
 2759 0269 0A       		.uleb128 0xa
 2760 026a A7010000 		.4byte	.LASF58
 2761 026e 05       		.byte	0x5
 2762 026f 26       		.byte	0x26
 2763 0270 C3000000 		.4byte	0xc3
 2764 0274 0A       		.byte	0xa
 2765 0275 0A       		.uleb128 0xa
 2766 0276 49010000 		.4byte	.LASF59
 2767 027a 05       		.byte	0x5
 2768 027b 27       		.byte	0x27
 2769 027c 94010000 		.4byte	0x194
 2770 0280 0C       		.byte	0xc
 2771 0281 0A       		.uleb128 0xa
 2772 0282 5B060000 		.4byte	.LASF60
 2773 0286 05       		.byte	0x5
 2774 0287 28       		.byte	0x28
 2775 0288 BA010000 		.4byte	0x1ba
 2776 028c 0D       		.byte	0xd
 2777 028d 0A       		.uleb128 0xa
 2778 028e D6080000 		.4byte	.LASF61
 2779 0292 05       		.byte	0x5
 2780 0293 2A       		.byte	0x2a
 2781 0294 97000000 		.4byte	0x97
 2782 0298 0E       		.byte	0xe
 2783 0299 0A       		.uleb128 0xa
 2784 029a AC020000 		.4byte	.LASF62
 2785 029e 05       		.byte	0x5
 2786 029f 2B       		.byte	0x2b
 2787 02a0 97000000 		.4byte	0x97
 2788 02a4 0F       		.byte	0xf
 2789 02a5 0A       		.uleb128 0xa
 2790 02a6 73030000 		.4byte	.LASF63
 2791 02aa 05       		.byte	0x5
 2792 02ab 2C       		.byte	0x2c
 2793 02ac 97000000 		.4byte	0x97
 2794 02b0 10       		.byte	0x10
 2795 02b1 0A       		.uleb128 0xa
 2796 02b2 26040000 		.4byte	.LASF64
 2797 02b6 05       		.byte	0x5
 2798 02b7 2D       		.byte	0x2d
ARM GAS  C:\Users\plod1602\AppData\Local\Temp\cckpLv0Q.s 			page 66


 2799 02b8 DA010000 		.4byte	0x1da
 2800 02bc 11       		.byte	0x11
 2801 02bd 0A       		.uleb128 0xa
 2802 02be 52000000 		.4byte	.LASF65
 2803 02c2 05       		.byte	0x5
 2804 02c3 2F       		.byte	0x2f
 2805 02c4 97000000 		.4byte	0x97
 2806 02c8 12       		.byte	0x12
 2807 02c9 0A       		.uleb128 0xa
 2808 02ca 22060000 		.4byte	.LASF66
 2809 02ce 05       		.byte	0x5
 2810 02cf 30       		.byte	0x30
 2811 02d0 22010000 		.4byte	0x122
 2812 02d4 13       		.byte	0x13
 2813 02d5 0A       		.uleb128 0xa
 2814 02d6 79050000 		.4byte	.LASF67
 2815 02da 05       		.byte	0x5
 2816 02db 32       		.byte	0x32
 2817 02dc 97000000 		.4byte	0x97
 2818 02e0 14       		.byte	0x14
 2819 02e1 0A       		.uleb128 0xa
 2820 02e2 24030000 		.4byte	.LASF68
 2821 02e6 05       		.byte	0x5
 2822 02e7 33       		.byte	0x33
 2823 02e8 42010000 		.4byte	0x142
 2824 02ec 15       		.byte	0x15
 2825 02ed 0A       		.uleb128 0xa
 2826 02ee 30060000 		.4byte	.LASF69
 2827 02f2 05       		.byte	0x5
 2828 02f3 35       		.byte	0x35
 2829 02f4 1E030000 		.4byte	0x31e
 2830 02f8 18       		.byte	0x18
 2831 02f9 0A       		.uleb128 0xa
 2832 02fa E9030000 		.4byte	.LASF70
 2833 02fe 05       		.byte	0x5
 2834 02ff 36       		.byte	0x36
 2835 0300 24030000 		.4byte	0x324
 2836 0304 1C       		.byte	0x1c
 2837 0305 0A       		.uleb128 0xa
 2838 0306 C2000000 		.4byte	.LASF71
 2839 030a 05       		.byte	0x5
 2840 030b 37       		.byte	0x37
 2841 030c FA010000 		.4byte	0x1fa
 2842 0310 20       		.byte	0x20
 2843 0311 0A       		.uleb128 0xa
 2844 0312 67040000 		.4byte	.LASF72
 2845 0316 05       		.byte	0x5
 2846 0317 39       		.byte	0x39
 2847 0318 1A020000 		.4byte	0x21a
 2848 031c 21       		.byte	0x21
 2849 031d 00       		.byte	0
 2850 031e 0B       		.uleb128 0xb
 2851 031f 04       		.byte	0x4
 2852 0320 C3000000 		.4byte	0xc3
 2853 0324 0B       		.uleb128 0xb
 2854 0325 04       		.byte	0x4
 2855 0326 97000000 		.4byte	0x97
ARM GAS  C:\Users\plod1602\AppData\Local\Temp\cckpLv0Q.s 			page 67


 2856 032a 03       		.uleb128 0x3
 2857 032b 0A070000 		.4byte	.LASF73
 2858 032f 05       		.byte	0x5
 2859 0330 3B       		.byte	0x3b
 2860 0331 25020000 		.4byte	0x225
 2861 0335 0C       		.uleb128 0xc
 2862 0336 BF040000 		.4byte	.LASF149
 2863 033a 01       		.byte	0x1
 2864 033b 14       		.byte	0x14
 2865 033c 00000000 		.4byte	.LFB56
 2866 0340 54000000 		.4byte	.LFE56-.LFB56
 2867 0344 01       		.uleb128 0x1
 2868 0345 9C       		.byte	0x9c
 2869 0346 57030000 		.4byte	0x357
 2870 034a 0D       		.uleb128 0xd
 2871 034b 6900     		.ascii	"i\000"
 2872 034d 01       		.byte	0x1
 2873 034e 16       		.byte	0x16
 2874 034f 73000000 		.4byte	0x73
 2875 0353 02       		.uleb128 0x2
 2876 0354 91       		.byte	0x91
 2877 0355 74       		.sleb128 -12
 2878 0356 00       		.byte	0
 2879 0357 0E       		.uleb128 0xe
 2880 0358 17080000 		.4byte	.LASF77
 2881 035c 01       		.byte	0x1
 2882 035d 26       		.byte	0x26
 2883 035e 97000000 		.4byte	0x97
 2884 0362 00000000 		.4byte	.LFB57
 2885 0366 3C010000 		.4byte	.LFE57-.LFB57
 2886 036a 01       		.uleb128 0x1
 2887 036b 9C       		.byte	0x9c
 2888 036c BF030000 		.4byte	0x3bf
 2889 0370 0F       		.uleb128 0xf
 2890 0371 2A070000 		.4byte	.LASF75
 2891 0375 01       		.byte	0x1
 2892 0376 26       		.byte	0x26
 2893 0377 BF030000 		.4byte	0x3bf
 2894 037b 02       		.uleb128 0x2
 2895 037c 91       		.byte	0x91
 2896 037d 64       		.sleb128 -28
 2897 037e 0D       		.uleb128 0xd
 2898 037f 6900     		.ascii	"i\000"
 2899 0381 01       		.byte	0x1
 2900 0382 28       		.byte	0x28
 2901 0383 73000000 		.4byte	0x73
 2902 0387 02       		.uleb128 0x2
 2903 0388 91       		.byte	0x91
 2904 0389 74       		.sleb128 -12
 2905 038a 10       		.uleb128 0x10
 2906 038b 14000000 		.4byte	.LBB2
 2907 038f 64000000 		.4byte	.LBE2-.LBB2
 2908 0393 A6030000 		.4byte	0x3a6
 2909 0397 11       		.uleb128 0x11
 2910 0398 45060000 		.4byte	.LASF74
 2911 039c 01       		.byte	0x1
 2912 039d 2C       		.byte	0x2c
ARM GAS  C:\Users\plod1602\AppData\Local\Temp\cckpLv0Q.s 			page 68


 2913 039e C5030000 		.4byte	0x3c5
 2914 03a2 02       		.uleb128 0x2
 2915 03a3 91       		.byte	0x91
 2916 03a4 70       		.sleb128 -16
 2917 03a5 00       		.byte	0
 2918 03a6 12       		.uleb128 0x12
 2919 03a7 82000000 		.4byte	.LBB3
 2920 03ab 64000000 		.4byte	.LBE3-.LBB3
 2921 03af 11       		.uleb128 0x11
 2922 03b0 45060000 		.4byte	.LASF74
 2923 03b4 01       		.byte	0x1
 2924 03b5 35       		.byte	0x35
 2925 03b6 C5030000 		.4byte	0x3c5
 2926 03ba 02       		.uleb128 0x2
 2927 03bb 91       		.byte	0x91
 2928 03bc 6C       		.sleb128 -20
 2929 03bd 00       		.byte	0
 2930 03be 00       		.byte	0
 2931 03bf 0B       		.uleb128 0xb
 2932 03c0 04       		.byte	0x4
 2933 03c1 2A030000 		.4byte	0x32a
 2934 03c5 0B       		.uleb128 0xb
 2935 03c6 04       		.byte	0x4
 2936 03c7 CB030000 		.4byte	0x3cb
 2937 03cb 13       		.uleb128 0x13
 2938 03cc FA000000 		.4byte	0xfa
 2939 03d0 14       		.uleb128 0x14
 2940 03d1 7F010000 		.4byte	.LASF98
 2941 03d5 01       		.byte	0x1
 2942 03d6 58       		.byte	0x58
 2943 03d7 00000000 		.4byte	.LFB58
 2944 03db 6C010000 		.4byte	.LFE58-.LFB58
 2945 03df 01       		.uleb128 0x1
 2946 03e0 9C       		.byte	0x9c
 2947 03e1 1E040000 		.4byte	0x41e
 2948 03e5 0F       		.uleb128 0xf
 2949 03e6 2A070000 		.4byte	.LASF75
 2950 03ea 01       		.byte	0x1
 2951 03eb 58       		.byte	0x58
 2952 03ec BF030000 		.4byte	0x3bf
 2953 03f0 03       		.uleb128 0x3
 2954 03f1 91       		.byte	0x91
 2955 03f2 BC7D     		.sleb128 -324
 2956 03f4 0D       		.uleb128 0xd
 2957 03f5 6900     		.ascii	"i\000"
 2958 03f7 01       		.byte	0x1
 2959 03f8 5A       		.byte	0x5a
 2960 03f9 73000000 		.4byte	0x73
 2961 03fd 02       		.uleb128 0x2
 2962 03fe 91       		.byte	0x91
 2963 03ff 74       		.sleb128 -12
 2964 0400 11       		.uleb128 0x11
 2965 0401 45060000 		.4byte	.LASF74
 2966 0405 01       		.byte	0x1
 2967 0406 5B       		.byte	0x5b
 2968 0407 1E040000 		.4byte	0x41e
 2969 040b 02       		.uleb128 0x2
ARM GAS  C:\Users\plod1602\AppData\Local\Temp\cckpLv0Q.s 			page 69


 2970 040c 91       		.byte	0x91
 2971 040d 70       		.sleb128 -16
 2972 040e 11       		.uleb128 0x11
 2973 040f 4D050000 		.4byte	.LASF76
 2974 0413 01       		.byte	0x1
 2975 0414 5D       		.byte	0x5d
 2976 0415 24040000 		.4byte	0x424
 2977 0419 03       		.uleb128 0x3
 2978 041a 91       		.byte	0x91
 2979 041b C47D     		.sleb128 -316
 2980 041d 00       		.byte	0
 2981 041e 0B       		.uleb128 0xb
 2982 041f 04       		.byte	0x4
 2983 0420 81000000 		.4byte	0x81
 2984 0424 15       		.uleb128 0x15
 2985 0425 97000000 		.4byte	0x97
 2986 0429 35040000 		.4byte	0x435
 2987 042d 16       		.uleb128 0x16
 2988 042e FF000000 		.4byte	0xff
 2989 0432 2B01     		.2byte	0x12b
 2990 0434 00       		.byte	0
 2991 0435 17       		.uleb128 0x17
 2992 0436 FA050000 		.4byte	.LASF78
 2993 043a 01       		.byte	0x1
 2994 043b 8A       		.byte	0x8a
 2995 043c 97000000 		.4byte	0x97
 2996 0440 00000000 		.4byte	.LFB59
 2997 0444 E4030000 		.4byte	.LFE59-.LFB59
 2998 0448 01       		.uleb128 0x1
 2999 0449 9C       		.byte	0x9c
 3000 044a 3C050000 		.4byte	0x53c
 3001 044e 0F       		.uleb128 0xf
 3002 044f FC060000 		.4byte	.LASF79
 3003 0453 01       		.byte	0x1
 3004 0454 8A       		.byte	0x8a
 3005 0455 73000000 		.4byte	0x73
 3006 0459 03       		.uleb128 0x3
 3007 045a 91       		.byte	0x91
 3008 045b 9C7F     		.sleb128 -100
 3009 045d 0F       		.uleb128 0xf
 3010 045e FA080000 		.4byte	.LASF80
 3011 0462 01       		.byte	0x1
 3012 0463 8A       		.byte	0x8a
 3013 0464 97000000 		.4byte	0x97
 3014 0468 03       		.uleb128 0x3
 3015 0469 91       		.byte	0x91
 3016 046a 9B7F     		.sleb128 -101
 3017 046c 12       		.uleb128 0x12
 3018 046d 1A000000 		.4byte	.LBB4
 3019 0471 AA030000 		.4byte	.LBE4-.LBB4
 3020 0475 11       		.uleb128 0x11
 3021 0476 45080000 		.4byte	.LASF81
 3022 047a 01       		.byte	0x1
 3023 047b 90       		.byte	0x90
 3024 047c CE000000 		.4byte	0xce
 3025 0480 02       		.uleb128 0x2
 3026 0481 91       		.byte	0x91
ARM GAS  C:\Users\plod1602\AppData\Local\Temp\cckpLv0Q.s 			page 70


 3027 0482 6C       		.sleb128 -20
 3028 0483 11       		.uleb128 0x11
 3029 0484 2D010000 		.4byte	.LASF82
 3030 0488 01       		.byte	0x1
 3031 0489 94       		.byte	0x94
 3032 048a C3000000 		.4byte	0xc3
 3033 048e 02       		.uleb128 0x2
 3034 048f 91       		.byte	0x91
 3035 0490 6A       		.sleb128 -22
 3036 0491 11       		.uleb128 0x11
 3037 0492 76010000 		.4byte	.LASF83
 3038 0496 01       		.byte	0x1
 3039 0497 95       		.byte	0x95
 3040 0498 3C050000 		.4byte	0x53c
 3041 049c 03       		.uleb128 0x3
 3042 049d 91       		.byte	0x91
 3043 049e A47F     		.sleb128 -92
 3044 04a0 11       		.uleb128 0x11
 3045 04a1 17050000 		.4byte	.LASF84
 3046 04a5 01       		.byte	0x1
 3047 04a6 98       		.byte	0x98
 3048 04a7 73000000 		.4byte	0x73
 3049 04ab 02       		.uleb128 0x2
 3050 04ac 91       		.byte	0x91
 3051 04ad 64       		.sleb128 -28
 3052 04ae 11       		.uleb128 0x11
 3053 04af 79000000 		.4byte	.LASF85
 3054 04b3 01       		.byte	0x1
 3055 04b4 A3       		.byte	0xa3
 3056 04b5 B8000000 		.4byte	0xb8
 3057 04b9 02       		.uleb128 0x2
 3058 04ba 91       		.byte	0x91
 3059 04bb 51       		.sleb128 -47
 3060 04bc 11       		.uleb128 0x11
 3061 04bd FD030000 		.4byte	.LASF86
 3062 04c1 01       		.byte	0x1
 3063 04c2 A4       		.byte	0xa4
 3064 04c3 B8000000 		.4byte	0xb8
 3065 04c7 02       		.uleb128 0x2
 3066 04c8 91       		.byte	0x91
 3067 04c9 50       		.sleb128 -48
 3068 04ca 11       		.uleb128 0x11
 3069 04cb 23050000 		.4byte	.LASF87
 3070 04cf 01       		.byte	0x1
 3071 04d0 A5       		.byte	0xa5
 3072 04d1 73000000 		.4byte	0x73
 3073 04d5 02       		.uleb128 0x2
 3074 04d6 91       		.byte	0x91
 3075 04d7 4C       		.sleb128 -52
 3076 04d8 11       		.uleb128 0x11
 3077 04d9 0B000000 		.4byte	.LASF88
 3078 04dd 01       		.byte	0x1
 3079 04de A7       		.byte	0xa7
 3080 04df 73000000 		.4byte	0x73
 3081 04e3 02       		.uleb128 0x2
 3082 04e4 91       		.byte	0x91
 3083 04e5 60       		.sleb128 -32
ARM GAS  C:\Users\plod1602\AppData\Local\Temp\cckpLv0Q.s 			page 71


 3084 04e6 11       		.uleb128 0x11
 3085 04e7 B0050000 		.4byte	.LASF89
 3086 04eb 01       		.byte	0x1
 3087 04ec AA       		.byte	0xaa
 3088 04ed 73000000 		.4byte	0x73
 3089 04f1 02       		.uleb128 0x2
 3090 04f2 91       		.byte	0x91
 3091 04f3 5C       		.sleb128 -36
 3092 04f4 11       		.uleb128 0x11
 3093 04f5 97030000 		.4byte	.LASF90
 3094 04f9 01       		.byte	0x1
 3095 04fa AC       		.byte	0xac
 3096 04fb CE000000 		.4byte	0xce
 3097 04ff 02       		.uleb128 0x2
 3098 0500 91       		.byte	0x91
 3099 0501 58       		.sleb128 -40
 3100 0502 11       		.uleb128 0x11
 3101 0503 60000000 		.4byte	.LASF91
 3102 0507 01       		.byte	0x1
 3103 0508 AD       		.byte	0xad
 3104 0509 C3000000 		.4byte	0xc3
 3105 050d 02       		.uleb128 0x2
 3106 050e 91       		.byte	0x91
 3107 050f 56       		.sleb128 -42
 3108 0510 11       		.uleb128 0x11
 3109 0511 6C060000 		.4byte	.LASF92
 3110 0515 01       		.byte	0x1
 3111 0516 AE       		.byte	0xae
 3112 0517 C3000000 		.4byte	0xc3
 3113 051b 02       		.uleb128 0x2
 3114 051c 91       		.byte	0x91
 3115 051d 54       		.sleb128 -44
 3116 051e 11       		.uleb128 0x11
 3117 051f 2B080000 		.4byte	.LASF93
 3118 0523 01       		.byte	0x1
 3119 0524 B0       		.byte	0xb0
 3120 0525 B8000000 		.4byte	0xb8
 3121 0529 02       		.uleb128 0x2
 3122 052a 91       		.byte	0x91
 3123 052b 53       		.sleb128 -45
 3124 052c 11       		.uleb128 0x11
 3125 052d 48030000 		.4byte	.LASF94
 3126 0531 01       		.byte	0x1
 3127 0532 D1       		.byte	0xd1
 3128 0533 97000000 		.4byte	0x97
 3129 0537 02       		.uleb128 0x2
 3130 0538 91       		.byte	0x91
 3131 0539 52       		.sleb128 -46
 3132 053a 00       		.byte	0
 3133 053b 00       		.byte	0
 3134 053c 15       		.uleb128 0x15
 3135 053d C3000000 		.4byte	0xc3
 3136 0541 4C050000 		.4byte	0x54c
 3137 0545 18       		.uleb128 0x18
 3138 0546 FF000000 		.4byte	0xff
 3139 054a 13       		.byte	0x13
 3140 054b 00       		.byte	0
ARM GAS  C:\Users\plod1602\AppData\Local\Temp\cckpLv0Q.s 			page 72


 3141 054c 19       		.uleb128 0x19
 3142 054d 66030000 		.4byte	.LASF95
 3143 0551 01       		.byte	0x1
 3144 0552 3C01     		.2byte	0x13c
 3145 0554 C3000000 		.4byte	0xc3
 3146 0558 00000000 		.4byte	.LFB60
 3147 055c 58000000 		.4byte	.LFE60-.LFB60
 3148 0560 01       		.uleb128 0x1
 3149 0561 9C       		.byte	0x9c
 3150 0562 A1050000 		.4byte	0x5a1
 3151 0566 1A       		.uleb128 0x1a
 3152 0567 74616200 		.ascii	"tab\000"
 3153 056b 01       		.byte	0x1
 3154 056c 3C01     		.2byte	0x13c
 3155 056e 1E030000 		.4byte	0x31e
 3156 0572 02       		.uleb128 0x2
 3157 0573 91       		.byte	0x91
 3158 0574 6C       		.sleb128 -20
 3159 0575 1B       		.uleb128 0x1b
 3160 0576 4F040000 		.4byte	.LASF96
 3161 057a 01       		.byte	0x1
 3162 057b 3C01     		.2byte	0x13c
 3163 057d C3000000 		.4byte	0xc3
 3164 0581 02       		.uleb128 0x2
 3165 0582 91       		.byte	0x91
 3166 0583 6A       		.sleb128 -22
 3167 0584 1C       		.uleb128 0x1c
 3168 0585 6900     		.ascii	"i\000"
 3169 0587 01       		.byte	0x1
 3170 0588 3E01     		.2byte	0x13e
 3171 058a 73000000 		.4byte	0x73
 3172 058e 02       		.uleb128 0x2
 3173 058f 91       		.byte	0x91
 3174 0590 74       		.sleb128 -12
 3175 0591 1D       		.uleb128 0x1d
 3176 0592 F5080000 		.4byte	.LASF97
 3177 0596 01       		.byte	0x1
 3178 0597 3F01     		.2byte	0x13f
 3179 0599 C3000000 		.4byte	0xc3
 3180 059d 02       		.uleb128 0x2
 3181 059e 91       		.byte	0x91
 3182 059f 72       		.sleb128 -14
 3183 05a0 00       		.byte	0
 3184 05a1 1E       		.uleb128 0x1e
 3185 05a2 23020000 		.4byte	.LASF99
 3186 05a6 01       		.byte	0x1
 3187 05a7 4901     		.2byte	0x149
 3188 05a9 00000000 		.4byte	.LFB61
 3189 05ad E0000000 		.4byte	.LFE61-.LFB61
 3190 05b1 01       		.uleb128 0x1
 3191 05b2 9C       		.byte	0x9c
 3192 05b3 03060000 		.4byte	0x603
 3193 05b7 1B       		.uleb128 0x1b
 3194 05b8 2D030000 		.4byte	.LASF100
 3195 05bc 01       		.byte	0x1
 3196 05bd 4901     		.2byte	0x149
 3197 05bf D9000000 		.4byte	0xd9
ARM GAS  C:\Users\plod1602\AppData\Local\Temp\cckpLv0Q.s 			page 73


 3198 05c3 02       		.uleb128 0x2
 3199 05c4 91       		.byte	0x91
 3200 05c5 64       		.sleb128 -28
 3201 05c6 1B       		.uleb128 0x1b
 3202 05c7 FA080000 		.4byte	.LASF80
 3203 05cb 01       		.byte	0x1
 3204 05cc 4901     		.2byte	0x149
 3205 05ce 97000000 		.4byte	0x97
 3206 05d2 02       		.uleb128 0x2
 3207 05d3 91       		.byte	0x91
 3208 05d4 63       		.sleb128 -29
 3209 05d5 1B       		.uleb128 0x1b
 3210 05d6 06060000 		.4byte	.LASF56
 3211 05da 01       		.byte	0x1
 3212 05db 4901     		.2byte	0x149
 3213 05dd C3000000 		.4byte	0xc3
 3214 05e1 02       		.uleb128 0x2
 3215 05e2 91       		.byte	0x91
 3216 05e3 60       		.sleb128 -32
 3217 05e4 1D       		.uleb128 0x1d
 3218 05e5 D9050000 		.4byte	.LASF101
 3219 05e9 01       		.byte	0x1
 3220 05ea 4B01     		.2byte	0x14b
 3221 05ec E0000000 		.4byte	0xe0
 3222 05f0 02       		.uleb128 0x2
 3223 05f1 91       		.byte	0x91
 3224 05f2 70       		.sleb128 -16
 3225 05f3 1D       		.uleb128 0x1d
 3226 05f4 C5050000 		.4byte	.LASF102
 3227 05f8 01       		.byte	0x1
 3228 05f9 4C01     		.2byte	0x14c
 3229 05fb E0000000 		.4byte	0xe0
 3230 05ff 02       		.uleb128 0x2
 3231 0600 91       		.byte	0x91
 3232 0601 68       		.sleb128 -24
 3233 0602 00       		.byte	0
 3234 0603 1E       		.uleb128 0x1e
 3235 0604 6A000000 		.4byte	.LASF103
 3236 0608 01       		.byte	0x1
 3237 0609 6201     		.2byte	0x162
 3238 060b 00000000 		.4byte	.LFB62
 3239 060f C8010000 		.4byte	.LFE62-.LFB62
 3240 0613 01       		.uleb128 0x1
 3241 0614 9C       		.byte	0x9c
 3242 0615 9B060000 		.4byte	0x69b
 3243 0619 1B       		.uleb128 0x1b
 3244 061a F3060000 		.4byte	.LASF104
 3245 061e 01       		.byte	0x1
 3246 061f 6201     		.2byte	0x162
 3247 0621 73000000 		.4byte	0x73
 3248 0625 02       		.uleb128 0x2
 3249 0626 91       		.byte	0x91
 3250 0627 64       		.sleb128 -28
 3251 0628 1B       		.uleb128 0x1b
 3252 0629 C5050000 		.4byte	.LASF102
 3253 062d 01       		.byte	0x1
 3254 062e 6201     		.2byte	0x162
ARM GAS  C:\Users\plod1602\AppData\Local\Temp\cckpLv0Q.s 			page 74


 3255 0630 73000000 		.4byte	0x73
 3256 0634 02       		.uleb128 0x2
 3257 0635 91       		.byte	0x91
 3258 0636 60       		.sleb128 -32
 3259 0637 1B       		.uleb128 0x1b
 3260 0638 FA080000 		.4byte	.LASF80
 3261 063c 01       		.byte	0x1
 3262 063d 6201     		.2byte	0x162
 3263 063f 97000000 		.4byte	0x97
 3264 0643 02       		.uleb128 0x2
 3265 0644 91       		.byte	0x91
 3266 0645 5F       		.sleb128 -33
 3267 0646 1B       		.uleb128 0x1b
 3268 0647 06060000 		.4byte	.LASF56
 3269 064b 01       		.byte	0x1
 3270 064c 6201     		.2byte	0x162
 3271 064e 73000000 		.4byte	0x73
 3272 0652 02       		.uleb128 0x2
 3273 0653 91       		.byte	0x91
 3274 0654 58       		.sleb128 -40
 3275 0655 1D       		.uleb128 0x1d
 3276 0656 0E030000 		.4byte	.LASF105
 3277 065a 01       		.byte	0x1
 3278 065b 6401     		.2byte	0x164
 3279 065d E0000000 		.4byte	0xe0
 3280 0661 02       		.uleb128 0x2
 3281 0662 91       		.byte	0x91
 3282 0663 70       		.sleb128 -16
 3283 0664 10       		.uleb128 0x10
 3284 0665 16000000 		.4byte	.LBB5
 3285 0669 98000000 		.4byte	.LBE5-.LBB5
 3286 066d 81060000 		.4byte	0x681
 3287 0671 1C       		.uleb128 0x1c
 3288 0672 76616C00 		.ascii	"val\000"
 3289 0676 01       		.byte	0x1
 3290 0677 7001     		.2byte	0x170
 3291 0679 73000000 		.4byte	0x73
 3292 067d 02       		.uleb128 0x2
 3293 067e 91       		.byte	0x91
 3294 067f 6C       		.sleb128 -20
 3295 0680 00       		.byte	0
 3296 0681 12       		.uleb128 0x12
 3297 0682 B6000000 		.4byte	.LBB6
 3298 0686 98000000 		.4byte	.LBE6-.LBB6
 3299 068a 1C       		.uleb128 0x1c
 3300 068b 76616C00 		.ascii	"val\000"
 3301 068f 01       		.byte	0x1
 3302 0690 9701     		.2byte	0x197
 3303 0692 73000000 		.4byte	0x73
 3304 0696 02       		.uleb128 0x2
 3305 0697 91       		.byte	0x91
 3306 0698 68       		.sleb128 -24
 3307 0699 00       		.byte	0
 3308 069a 00       		.byte	0
 3309 069b 1F       		.uleb128 0x1f
 3310 069c 58080000 		.4byte	.LASF106
 3311 06a0 01       		.byte	0x1
ARM GAS  C:\Users\plod1602\AppData\Local\Temp\cckpLv0Q.s 			page 75


 3312 06a1 E301     		.2byte	0x1e3
 3313 06a3 C3000000 		.4byte	0xc3
 3314 06a7 00000000 		.4byte	.LFB63
 3315 06ab 40000000 		.4byte	.LFE63-.LFB63
 3316 06af 01       		.uleb128 0x1
 3317 06b0 9C       		.byte	0x9c
 3318 06b1 F2060000 		.4byte	0x6f2
 3319 06b5 1B       		.uleb128 0x1b
 3320 06b6 FA080000 		.4byte	.LASF80
 3321 06ba 01       		.byte	0x1
 3322 06bb E301     		.2byte	0x1e3
 3323 06bd 97000000 		.4byte	0x97
 3324 06c1 02       		.uleb128 0x2
 3325 06c2 91       		.byte	0x91
 3326 06c3 67       		.sleb128 -25
 3327 06c4 1D       		.uleb128 0x1d
 3328 06c5 48020000 		.4byte	.LASF107
 3329 06c9 01       		.byte	0x1
 3330 06ca E501     		.2byte	0x1e5
 3331 06cc CE000000 		.4byte	0xce
 3332 06d0 02       		.uleb128 0x2
 3333 06d1 91       		.byte	0x91
 3334 06d2 74       		.sleb128 -12
 3335 06d3 1D       		.uleb128 0x1d
 3336 06d4 7D080000 		.4byte	.LASF108
 3337 06d8 01       		.byte	0x1
 3338 06d9 E501     		.2byte	0x1e5
 3339 06db CE000000 		.4byte	0xce
 3340 06df 02       		.uleb128 0x2
 3341 06e0 91       		.byte	0x91
 3342 06e1 70       		.sleb128 -16
 3343 06e2 1D       		.uleb128 0x1d
 3344 06e3 82030000 		.4byte	.LASF109
 3345 06e7 01       		.byte	0x1
 3346 06e8 E601     		.2byte	0x1e6
 3347 06ea AD000000 		.4byte	0xad
 3348 06ee 02       		.uleb128 0x2
 3349 06ef 91       		.byte	0x91
 3350 06f0 6C       		.sleb128 -20
 3351 06f1 00       		.byte	0
 3352 06f2 19       		.uleb128 0x19
 3353 06f3 8F080000 		.4byte	.LASF110
 3354 06f7 01       		.byte	0x1
 3355 06f8 F301     		.2byte	0x1f3
 3356 06fa C3000000 		.4byte	0xc3
 3357 06fe 00000000 		.4byte	.LFB64
 3358 0702 2C000000 		.4byte	.LFE64-.LFB64
 3359 0706 01       		.uleb128 0x1
 3360 0707 9C       		.byte	0x9c
 3361 0708 43070000 		.4byte	0x743
 3362 070c 1B       		.uleb128 0x1b
 3363 070d FA080000 		.4byte	.LASF80
 3364 0711 01       		.byte	0x1
 3365 0712 F301     		.2byte	0x1f3
 3366 0714 97000000 		.4byte	0x97
 3367 0718 02       		.uleb128 0x2
 3368 0719 91       		.byte	0x91
ARM GAS  C:\Users\plod1602\AppData\Local\Temp\cckpLv0Q.s 			page 76


 3369 071a 6F       		.sleb128 -17
 3370 071b 20       		.uleb128 0x20
 3371 071c 3F030000 		.4byte	.LASF111
 3372 0720 01       		.byte	0x1
 3373 0721 F501     		.2byte	0x1f5
 3374 0723 97000000 		.4byte	0x97
 3375 0727 20       		.uleb128 0x20
 3376 0728 EF050000 		.4byte	.LASF112
 3377 072c 01       		.byte	0x1
 3378 072d F601     		.2byte	0x1f6
 3379 072f 97000000 		.4byte	0x97
 3380 0733 1D       		.uleb128 0x1d
 3381 0734 46000000 		.4byte	.LASF113
 3382 0738 01       		.byte	0x1
 3383 0739 F701     		.2byte	0x1f7
 3384 073b C3000000 		.4byte	0xc3
 3385 073f 02       		.uleb128 0x2
 3386 0740 91       		.byte	0x91
 3387 0741 76       		.sleb128 -10
 3388 0742 00       		.byte	0
 3389 0743 1E       		.uleb128 0x1e
 3390 0744 E6080000 		.4byte	.LASF114
 3391 0748 01       		.byte	0x1
 3392 0749 0902     		.2byte	0x209
 3393 074b 00000000 		.4byte	.LFB65
 3394 074f 98000000 		.4byte	.LFE65-.LFB65
 3395 0753 01       		.uleb128 0x1
 3396 0754 9C       		.byte	0x9c
 3397 0755 96070000 		.4byte	0x796
 3398 0759 1B       		.uleb128 0x1b
 3399 075a 8C030000 		.4byte	.LASF115
 3400 075e 01       		.byte	0x1
 3401 075f 0902     		.2byte	0x209
 3402 0761 97000000 		.4byte	0x97
 3403 0765 02       		.uleb128 0x2
 3404 0766 91       		.byte	0x91
 3405 0767 6F       		.sleb128 -17
 3406 0768 1B       		.uleb128 0x1b
 3407 0769 FA080000 		.4byte	.LASF80
 3408 076d 01       		.byte	0x1
 3409 076e 0902     		.2byte	0x209
 3410 0770 97000000 		.4byte	0x97
 3411 0774 02       		.uleb128 0x2
 3412 0775 91       		.byte	0x91
 3413 0776 6E       		.sleb128 -18
 3414 0777 1D       		.uleb128 0x1d
 3415 0778 3F030000 		.4byte	.LASF111
 3416 077c 01       		.byte	0x1
 3417 077d 0B02     		.2byte	0x20b
 3418 077f 97000000 		.4byte	0x97
 3419 0783 02       		.uleb128 0x2
 3420 0784 91       		.byte	0x91
 3421 0785 77       		.sleb128 -9
 3422 0786 1D       		.uleb128 0x1d
 3423 0787 59010000 		.4byte	.LASF116
 3424 078b 01       		.byte	0x1
 3425 078c 0C02     		.2byte	0x20c
ARM GAS  C:\Users\plod1602\AppData\Local\Temp\cckpLv0Q.s 			page 77


 3426 078e 97000000 		.4byte	0x97
 3427 0792 02       		.uleb128 0x2
 3428 0793 91       		.byte	0x91
 3429 0794 76       		.sleb128 -10
 3430 0795 00       		.byte	0
 3431 0796 19       		.uleb128 0x19
 3432 0797 AD070000 		.4byte	.LASF117
 3433 079b 01       		.byte	0x1
 3434 079c 2702     		.2byte	0x227
 3435 079e 97000000 		.4byte	0x97
 3436 07a2 00000000 		.4byte	.LFB66
 3437 07a6 40000000 		.4byte	.LFE66-.LFB66
 3438 07aa 01       		.uleb128 0x1
 3439 07ab 9C       		.byte	0x9c
 3440 07ac CF070000 		.4byte	0x7cf
 3441 07b0 1B       		.uleb128 0x1b
 3442 07b1 FA080000 		.4byte	.LASF80
 3443 07b5 01       		.byte	0x1
 3444 07b6 2702     		.2byte	0x227
 3445 07b8 97000000 		.4byte	0x97
 3446 07bc 02       		.uleb128 0x2
 3447 07bd 91       		.byte	0x91
 3448 07be 6F       		.sleb128 -17
 3449 07bf 1D       		.uleb128 0x1d
 3450 07c0 8C030000 		.4byte	.LASF115
 3451 07c4 01       		.byte	0x1
 3452 07c5 2902     		.2byte	0x229
 3453 07c7 97000000 		.4byte	0x97
 3454 07cb 02       		.uleb128 0x2
 3455 07cc 91       		.byte	0x91
 3456 07cd 77       		.sleb128 -9
 3457 07ce 00       		.byte	0
 3458 07cf 1F       		.uleb128 0x1f
 3459 07d0 82050000 		.4byte	.LASF118
 3460 07d4 01       		.byte	0x1
 3461 07d5 4F02     		.2byte	0x24f
 3462 07d7 B8000000 		.4byte	0xb8
 3463 07db 00000000 		.4byte	.LFB67
 3464 07df 64000000 		.4byte	.LFE67-.LFB67
 3465 07e3 01       		.uleb128 0x1
 3466 07e4 9C       		.byte	0x9c
 3467 07e5 17080000 		.4byte	0x817
 3468 07e9 1B       		.uleb128 0x1b
 3469 07ea C8010000 		.4byte	.LASF119
 3470 07ee 01       		.byte	0x1
 3471 07ef 4F02     		.2byte	0x24f
 3472 07f1 97000000 		.4byte	0x97
 3473 07f5 02       		.uleb128 0x2
 3474 07f6 91       		.byte	0x91
 3475 07f7 6F       		.sleb128 -17
 3476 07f8 1B       		.uleb128 0x1b
 3477 07f9 FA080000 		.4byte	.LASF80
 3478 07fd 01       		.byte	0x1
 3479 07fe 4F02     		.2byte	0x24f
 3480 0800 97000000 		.4byte	0x97
 3481 0804 02       		.uleb128 0x2
 3482 0805 91       		.byte	0x91
ARM GAS  C:\Users\plod1602\AppData\Local\Temp\cckpLv0Q.s 			page 78


 3483 0806 6E       		.sleb128 -18
 3484 0807 1D       		.uleb128 0x1d
 3485 0808 1D010000 		.4byte	.LASF120
 3486 080c 01       		.byte	0x1
 3487 080d 5102     		.2byte	0x251
 3488 080f 42010000 		.4byte	0x142
 3489 0813 02       		.uleb128 0x2
 3490 0814 91       		.byte	0x91
 3491 0815 77       		.sleb128 -9
 3492 0816 00       		.byte	0
 3493 0817 1E       		.uleb128 0x1e
 3494 0818 AE000000 		.4byte	.LASF121
 3495 081c 01       		.byte	0x1
 3496 081d 6C02     		.2byte	0x26c
 3497 081f 00000000 		.4byte	.LFB68
 3498 0823 84000000 		.4byte	.LFE68-.LFB68
 3499 0827 01       		.uleb128 0x1
 3500 0828 9C       		.byte	0x9c
 3501 0829 6A080000 		.4byte	0x86a
 3502 082d 1B       		.uleb128 0x1b
 3503 082e 8C030000 		.4byte	.LASF115
 3504 0832 01       		.byte	0x1
 3505 0833 6C02     		.2byte	0x26c
 3506 0835 97000000 		.4byte	0x97
 3507 0839 02       		.uleb128 0x2
 3508 083a 91       		.byte	0x91
 3509 083b 6F       		.sleb128 -17
 3510 083c 1B       		.uleb128 0x1b
 3511 083d FA080000 		.4byte	.LASF80
 3512 0841 01       		.byte	0x1
 3513 0842 6C02     		.2byte	0x26c
 3514 0844 97000000 		.4byte	0x97
 3515 0848 02       		.uleb128 0x2
 3516 0849 91       		.byte	0x91
 3517 084a 6E       		.sleb128 -18
 3518 084b 1D       		.uleb128 0x1d
 3519 084c 3F030000 		.4byte	.LASF111
 3520 0850 01       		.byte	0x1
 3521 0851 6E02     		.2byte	0x26e
 3522 0853 97000000 		.4byte	0x97
 3523 0857 02       		.uleb128 0x2
 3524 0858 91       		.byte	0x91
 3525 0859 77       		.sleb128 -9
 3526 085a 1D       		.uleb128 0x1d
 3527 085b 59010000 		.4byte	.LASF116
 3528 085f 01       		.byte	0x1
 3529 0860 6F02     		.2byte	0x26f
 3530 0862 97000000 		.4byte	0x97
 3531 0866 02       		.uleb128 0x2
 3532 0867 91       		.byte	0x91
 3533 0868 76       		.sleb128 -10
 3534 0869 00       		.byte	0
 3535 086a 19       		.uleb128 0x19
 3536 086b 3E040000 		.4byte	.LASF122
 3537 086f 01       		.byte	0x1
 3538 0870 8302     		.2byte	0x283
 3539 0872 97000000 		.4byte	0x97
ARM GAS  C:\Users\plod1602\AppData\Local\Temp\cckpLv0Q.s 			page 79


 3540 0876 00000000 		.4byte	.LFB69
 3541 087a 40000000 		.4byte	.LFE69-.LFB69
 3542 087e 01       		.uleb128 0x1
 3543 087f 9C       		.byte	0x9c
 3544 0880 A3080000 		.4byte	0x8a3
 3545 0884 1B       		.uleb128 0x1b
 3546 0885 FA080000 		.4byte	.LASF80
 3547 0889 01       		.byte	0x1
 3548 088a 8302     		.2byte	0x283
 3549 088c 97000000 		.4byte	0x97
 3550 0890 02       		.uleb128 0x2
 3551 0891 91       		.byte	0x91
 3552 0892 6F       		.sleb128 -17
 3553 0893 1D       		.uleb128 0x1d
 3554 0894 8C030000 		.4byte	.LASF115
 3555 0898 01       		.byte	0x1
 3556 0899 8602     		.2byte	0x286
 3557 089b 97000000 		.4byte	0x97
 3558 089f 02       		.uleb128 0x2
 3559 08a0 91       		.byte	0x91
 3560 08a1 77       		.sleb128 -9
 3561 08a2 00       		.byte	0
 3562 08a3 1F       		.uleb128 0x1f
 3563 08a4 90060000 		.4byte	.LASF123
 3564 08a8 01       		.byte	0x1
 3565 08a9 AC02     		.2byte	0x2ac
 3566 08ab B8000000 		.4byte	0xb8
 3567 08af 00000000 		.4byte	.LFB70
 3568 08b3 64000000 		.4byte	.LFE70-.LFB70
 3569 08b7 01       		.uleb128 0x1
 3570 08b8 9C       		.byte	0x9c
 3571 08b9 EB080000 		.4byte	0x8eb
 3572 08bd 1B       		.uleb128 0x1b
 3573 08be 93010000 		.4byte	.LASF124
 3574 08c2 01       		.byte	0x1
 3575 08c3 AC02     		.2byte	0x2ac
 3576 08c5 97000000 		.4byte	0x97
 3577 08c9 02       		.uleb128 0x2
 3578 08ca 91       		.byte	0x91
 3579 08cb 6F       		.sleb128 -17
 3580 08cc 1B       		.uleb128 0x1b
 3581 08cd FA080000 		.4byte	.LASF80
 3582 08d1 01       		.byte	0x1
 3583 08d2 AC02     		.2byte	0x2ac
 3584 08d4 97000000 		.4byte	0x97
 3585 08d8 02       		.uleb128 0x2
 3586 08d9 91       		.byte	0x91
 3587 08da 6E       		.sleb128 -18
 3588 08db 1D       		.uleb128 0x1d
 3589 08dc E1070000 		.4byte	.LASF125
 3590 08e0 01       		.byte	0x1
 3591 08e1 AE02     		.2byte	0x2ae
 3592 08e3 22010000 		.4byte	0x122
 3593 08e7 02       		.uleb128 0x2
 3594 08e8 91       		.byte	0x91
 3595 08e9 77       		.sleb128 -9
 3596 08ea 00       		.byte	0
ARM GAS  C:\Users\plod1602\AppData\Local\Temp\cckpLv0Q.s 			page 80


 3597 08eb 1F       		.uleb128 0x1f
 3598 08ec F3010000 		.4byte	.LASF126
 3599 08f0 01       		.byte	0x1
 3600 08f1 C902     		.2byte	0x2c9
 3601 08f3 97000000 		.4byte	0x97
 3602 08f7 00000000 		.4byte	.LFB71
 3603 08fb 88000000 		.4byte	.LFE71-.LFB71
 3604 08ff 01       		.uleb128 0x1
 3605 0900 9C       		.byte	0x9c
 3606 0901 42090000 		.4byte	0x942
 3607 0905 1B       		.uleb128 0x1b
 3608 0906 EB020000 		.4byte	.LASF127
 3609 090a 01       		.byte	0x1
 3610 090b C902     		.2byte	0x2c9
 3611 090d 97000000 		.4byte	0x97
 3612 0911 02       		.uleb128 0x2
 3613 0912 91       		.byte	0x91
 3614 0913 6F       		.sleb128 -17
 3615 0914 1B       		.uleb128 0x1b
 3616 0915 FA080000 		.4byte	.LASF80
 3617 0919 01       		.byte	0x1
 3618 091a C902     		.2byte	0x2c9
 3619 091c 97000000 		.4byte	0x97
 3620 0920 02       		.uleb128 0x2
 3621 0921 91       		.byte	0x91
 3622 0922 6E       		.sleb128 -18
 3623 0923 1D       		.uleb128 0x1d
 3624 0924 D3020000 		.4byte	.LASF128
 3625 0928 01       		.byte	0x1
 3626 0929 CB02     		.2byte	0x2cb
 3627 092b 97000000 		.4byte	0x97
 3628 092f 02       		.uleb128 0x2
 3629 0930 91       		.byte	0x91
 3630 0931 76       		.sleb128 -10
 3631 0932 1D       		.uleb128 0x1d
 3632 0933 B9070000 		.4byte	.LASF129
 3633 0937 01       		.byte	0x1
 3634 0938 CC02     		.2byte	0x2cc
 3635 093a 97000000 		.4byte	0x97
 3636 093e 02       		.uleb128 0x2
 3637 093f 91       		.byte	0x91
 3638 0940 77       		.sleb128 -9
 3639 0941 00       		.byte	0
 3640 0942 1F       		.uleb128 0x1f
 3641 0943 79040000 		.4byte	.LASF130
 3642 0947 01       		.byte	0x1
 3643 0948 F402     		.2byte	0x2f4
 3644 094a 97000000 		.4byte	0x97
 3645 094e 00000000 		.4byte	.LFB72
 3646 0952 5C000000 		.4byte	.LFE72-.LFB72
 3647 0956 01       		.uleb128 0x1
 3648 0957 9C       		.byte	0x9c
 3649 0958 7B090000 		.4byte	0x97b
 3650 095c 1B       		.uleb128 0x1b
 3651 095d BB060000 		.4byte	.LASF131
 3652 0961 01       		.byte	0x1
 3653 0962 F402     		.2byte	0x2f4
ARM GAS  C:\Users\plod1602\AppData\Local\Temp\cckpLv0Q.s 			page 81


 3654 0964 97000000 		.4byte	0x97
 3655 0968 02       		.uleb128 0x2
 3656 0969 91       		.byte	0x91
 3657 096a 77       		.sleb128 -9
 3658 096b 1B       		.uleb128 0x1b
 3659 096c FA080000 		.4byte	.LASF80
 3660 0970 01       		.byte	0x1
 3661 0971 F402     		.2byte	0x2f4
 3662 0973 97000000 		.4byte	0x97
 3663 0977 02       		.uleb128 0x2
 3664 0978 91       		.byte	0x91
 3665 0979 76       		.sleb128 -10
 3666 097a 00       		.byte	0
 3667 097b 1F       		.uleb128 0x1f
 3668 097c C0080000 		.4byte	.LASF132
 3669 0980 01       		.byte	0x1
 3670 0981 1203     		.2byte	0x312
 3671 0983 97000000 		.4byte	0x97
 3672 0987 00000000 		.4byte	.LFB73
 3673 098b A8000000 		.4byte	.LFE73-.LFB73
 3674 098f 01       		.uleb128 0x1
 3675 0990 9C       		.byte	0x9c
 3676 0991 D2090000 		.4byte	0x9d2
 3677 0995 1B       		.uleb128 0x1b
 3678 0996 C1020000 		.4byte	.LASF133
 3679 099a 01       		.byte	0x1
 3680 099b 1203     		.2byte	0x312
 3681 099d 97000000 		.4byte	0x97
 3682 09a1 02       		.uleb128 0x2
 3683 09a2 91       		.byte	0x91
 3684 09a3 6F       		.sleb128 -17
 3685 09a4 1B       		.uleb128 0x1b
 3686 09a5 0B050000 		.4byte	.LASF134
 3687 09a9 01       		.byte	0x1
 3688 09aa 1203     		.2byte	0x312
 3689 09ac 97000000 		.4byte	0x97
 3690 09b0 02       		.uleb128 0x2
 3691 09b1 91       		.byte	0x91
 3692 09b2 6E       		.sleb128 -18
 3693 09b3 1D       		.uleb128 0x1d
 3694 09b4 17050000 		.4byte	.LASF84
 3695 09b8 01       		.byte	0x1
 3696 09b9 1403     		.2byte	0x314
 3697 09bb 73000000 		.4byte	0x73
 3698 09bf 02       		.uleb128 0x2
 3699 09c0 91       		.byte	0x91
 3700 09c1 74       		.sleb128 -12
 3701 09c2 1D       		.uleb128 0x1d
 3702 09c3 B0050000 		.4byte	.LASF89
 3703 09c7 01       		.byte	0x1
 3704 09c8 1503     		.2byte	0x315
 3705 09ca 97000000 		.4byte	0x97
 3706 09ce 02       		.uleb128 0x2
 3707 09cf 91       		.byte	0x91
 3708 09d0 73       		.sleb128 -13
 3709 09d1 00       		.byte	0
 3710 09d2 15       		.uleb128 0x15
ARM GAS  C:\Users\plod1602\AppData\Local\Temp\cckpLv0Q.s 			page 82


 3711 09d3 97000000 		.4byte	0x97
 3712 09d7 E3090000 		.4byte	0x9e3
 3713 09db 16       		.uleb128 0x16
 3714 09dc FF000000 		.4byte	0xff
 3715 09e0 F301     		.2byte	0x1f3
 3716 09e2 00       		.byte	0
 3717 09e3 11       		.uleb128 0x11
 3718 09e4 5B040000 		.4byte	.LASF135
 3719 09e8 01       		.byte	0x1
 3720 09e9 0F       		.byte	0xf
 3721 09ea F4090000 		.4byte	0x9f4
 3722 09ee 05       		.uleb128 0x5
 3723 09ef 03       		.byte	0x3
 3724 09f0 00000000 		.4byte	eepromArray
 3725 09f4 13       		.uleb128 0x13
 3726 09f5 D2090000 		.4byte	0x9d2
 3727 09f9 11       		.uleb128 0x11
 3728 09fa AC060000 		.4byte	.LASF136
 3729 09fe 01       		.byte	0x1
 3730 09ff 11       		.byte	0x11
 3731 0a00 0A0A0000 		.4byte	0xa0a
 3732 0a04 05       		.uleb128 0x5
 3733 0a05 03       		.byte	0x3
 3734 0a06 F4010000 		.4byte	SM1eepromArray
 3735 0a0a 13       		.uleb128 0x13
 3736 0a0b 24040000 		.4byte	0x424
 3737 0a0f 11       		.uleb128 0x11
 3738 0a10 E4010000 		.4byte	.LASF137
 3739 0a14 01       		.byte	0x1
 3740 0a15 12       		.byte	0x12
 3741 0a16 200A0000 		.4byte	0xa20
 3742 0a1a 05       		.uleb128 0x5
 3743 0a1b 03       		.byte	0x3
 3744 0a1c 20030000 		.4byte	SM2eepromArray
 3745 0a20 13       		.uleb128 0x13
 3746 0a21 24040000 		.4byte	0x424
 3747 0a25 21       		.uleb128 0x21
 3748 0a26 9A050000 		.4byte	.LASF138
 3749 0a2a 06       		.byte	0x6
 3750 0a2b 1606     		.2byte	0x616
 3751 0a2d 310A0000 		.4byte	0xa31
 3752 0a31 06       		.uleb128 0x6
 3753 0a32 8C000000 		.4byte	0x8c
 3754 0a36 22       		.uleb128 0x22
 3755 0a37 F6070000 		.4byte	.LASF139
 3756 0a3b 07       		.byte	0x7
 3757 0a3c 4D       		.byte	0x4d
 3758 0a3d 97000000 		.4byte	0x97
 3759 0a41 23       		.uleb128 0x23
 3760 0a42 534D3100 		.ascii	"SM1\000"
 3761 0a46 05       		.byte	0x5
 3762 0a47 40       		.byte	0x40
 3763 0a48 2A030000 		.4byte	0x32a
 3764 0a4c 23       		.uleb128 0x23
 3765 0a4d 534D3200 		.ascii	"SM2\000"
 3766 0a51 05       		.byte	0x5
 3767 0a52 41       		.byte	0x41
ARM GAS  C:\Users\plod1602\AppData\Local\Temp\cckpLv0Q.s 			page 83


 3768 0a53 2A030000 		.4byte	0x32a
 3769 0a57 15       		.uleb128 0x15
 3770 0a58 C3000000 		.4byte	0xc3
 3771 0a5c 670A0000 		.4byte	0xa67
 3772 0a60 18       		.uleb128 0x18
 3773 0a61 FF000000 		.4byte	0xff
 3774 0a65 63       		.byte	0x63
 3775 0a66 00       		.byte	0
 3776 0a67 22       		.uleb128 0x22
 3777 0a68 61010000 		.4byte	.LASF140
 3778 0a6c 08       		.byte	0x8
 3779 0a6d 17       		.byte	0x17
 3780 0a6e 570A0000 		.4byte	0xa57
 3781 0a72 15       		.uleb128 0x15
 3782 0a73 97000000 		.4byte	0x97
 3783 0a77 820A0000 		.4byte	0xa82
 3784 0a7b 18       		.uleb128 0x18
 3785 0a7c FF000000 		.4byte	0xff
 3786 0a80 63       		.byte	0x63
 3787 0a81 00       		.byte	0
 3788 0a82 22       		.uleb128 0x22
 3789 0a83 FC000000 		.4byte	.LASF141
 3790 0a87 08       		.byte	0x8
 3791 0a88 18       		.byte	0x18
 3792 0a89 720A0000 		.4byte	0xa72
 3793 0a8d 22       		.uleb128 0x22
 3794 0a8e 9E080000 		.4byte	.LASF142
 3795 0a92 08       		.byte	0x8
 3796 0a93 19       		.byte	0x19
 3797 0a94 570A0000 		.4byte	0xa57
 3798 0a98 22       		.uleb128 0x22
 3799 0a99 AE030000 		.4byte	.LASF143
 3800 0a9d 08       		.byte	0x8
 3801 0a9e 1A       		.byte	0x1a
 3802 0a9f 720A0000 		.4byte	0xa72
 3803 0aa3 24       		.uleb128 0x24
 3804 0aa4 0C080000 		.4byte	.LASF144
 3805 0aa8 01       		.byte	0x1
 3806 0aa9 0D       		.byte	0xd
 3807 0aaa E0000000 		.4byte	0xe0
 3808 0aae 05       		.uleb128 0x5
 3809 0aaf 03       		.byte	0x3
 3810 0ab0 00000000 		.4byte	targetTemp
 3811 0ab4 24       		.uleb128 0x24
 3812 0ab5 D7010000 		.4byte	.LASF145
 3813 0ab9 01       		.byte	0x1
 3814 0aba 0E       		.byte	0xe
 3815 0abb EE000000 		.4byte	0xee
 3816 0abf 05       		.uleb128 0x5
 3817 0ac0 03       		.byte	0x3
 3818 0ac1 00000000 		.4byte	eepromStatus
 3819 0ac5 00       		.byte	0
 3820              		.section	.debug_abbrev,"",%progbits
 3821              	.Ldebug_abbrev0:
 3822 0000 01       		.uleb128 0x1
 3823 0001 11       		.uleb128 0x11
 3824 0002 01       		.byte	0x1
ARM GAS  C:\Users\plod1602\AppData\Local\Temp\cckpLv0Q.s 			page 84


 3825 0003 25       		.uleb128 0x25
 3826 0004 0E       		.uleb128 0xe
 3827 0005 13       		.uleb128 0x13
 3828 0006 0B       		.uleb128 0xb
 3829 0007 03       		.uleb128 0x3
 3830 0008 0E       		.uleb128 0xe
 3831 0009 1B       		.uleb128 0x1b
 3832 000a 0E       		.uleb128 0xe
 3833 000b 55       		.uleb128 0x55
 3834 000c 17       		.uleb128 0x17
 3835 000d 11       		.uleb128 0x11
 3836 000e 01       		.uleb128 0x1
 3837 000f 10       		.uleb128 0x10
 3838 0010 17       		.uleb128 0x17
 3839 0011 00       		.byte	0
 3840 0012 00       		.byte	0
 3841 0013 02       		.uleb128 0x2
 3842 0014 24       		.uleb128 0x24
 3843 0015 00       		.byte	0
 3844 0016 0B       		.uleb128 0xb
 3845 0017 0B       		.uleb128 0xb
 3846 0018 3E       		.uleb128 0x3e
 3847 0019 0B       		.uleb128 0xb
 3848 001a 03       		.uleb128 0x3
 3849 001b 0E       		.uleb128 0xe
 3850 001c 00       		.byte	0
 3851 001d 00       		.byte	0
 3852 001e 03       		.uleb128 0x3
 3853 001f 16       		.uleb128 0x16
 3854 0020 00       		.byte	0
 3855 0021 03       		.uleb128 0x3
 3856 0022 0E       		.uleb128 0xe
 3857 0023 3A       		.uleb128 0x3a
 3858 0024 0B       		.uleb128 0xb
 3859 0025 3B       		.uleb128 0x3b
 3860 0026 0B       		.uleb128 0xb
 3861 0027 49       		.uleb128 0x49
 3862 0028 13       		.uleb128 0x13
 3863 0029 00       		.byte	0
 3864 002a 00       		.byte	0
 3865 002b 04       		.uleb128 0x4
 3866 002c 24       		.uleb128 0x24
 3867 002d 00       		.byte	0
 3868 002e 0B       		.uleb128 0xb
 3869 002f 0B       		.uleb128 0xb
 3870 0030 3E       		.uleb128 0x3e
 3871 0031 0B       		.uleb128 0xb
 3872 0032 03       		.uleb128 0x3
 3873 0033 08       		.uleb128 0x8
 3874 0034 00       		.byte	0
 3875 0035 00       		.byte	0
 3876 0036 05       		.uleb128 0x5
 3877 0037 16       		.uleb128 0x16
 3878 0038 00       		.byte	0
 3879 0039 03       		.uleb128 0x3
 3880 003a 0E       		.uleb128 0xe
 3881 003b 3A       		.uleb128 0x3a
ARM GAS  C:\Users\plod1602\AppData\Local\Temp\cckpLv0Q.s 			page 85


 3882 003c 0B       		.uleb128 0xb
 3883 003d 3B       		.uleb128 0x3b
 3884 003e 05       		.uleb128 0x5
 3885 003f 49       		.uleb128 0x49
 3886 0040 13       		.uleb128 0x13
 3887 0041 00       		.byte	0
 3888 0042 00       		.byte	0
 3889 0043 06       		.uleb128 0x6
 3890 0044 35       		.uleb128 0x35
 3891 0045 00       		.byte	0
 3892 0046 49       		.uleb128 0x49
 3893 0047 13       		.uleb128 0x13
 3894 0048 00       		.byte	0
 3895 0049 00       		.byte	0
 3896 004a 07       		.uleb128 0x7
 3897 004b 04       		.uleb128 0x4
 3898 004c 01       		.byte	0x1
 3899 004d 0B       		.uleb128 0xb
 3900 004e 0B       		.uleb128 0xb
 3901 004f 3A       		.uleb128 0x3a
 3902 0050 0B       		.uleb128 0xb
 3903 0051 3B       		.uleb128 0x3b
 3904 0052 0B       		.uleb128 0xb
 3905 0053 01       		.uleb128 0x1
 3906 0054 13       		.uleb128 0x13
 3907 0055 00       		.byte	0
 3908 0056 00       		.byte	0
 3909 0057 08       		.uleb128 0x8
 3910 0058 28       		.uleb128 0x28
 3911 0059 00       		.byte	0
 3912 005a 03       		.uleb128 0x3
 3913 005b 0E       		.uleb128 0xe
 3914 005c 1C       		.uleb128 0x1c
 3915 005d 0D       		.uleb128 0xd
 3916 005e 00       		.byte	0
 3917 005f 00       		.byte	0
 3918 0060 09       		.uleb128 0x9
 3919 0061 13       		.uleb128 0x13
 3920 0062 01       		.byte	0x1
 3921 0063 0B       		.uleb128 0xb
 3922 0064 0B       		.uleb128 0xb
 3923 0065 3A       		.uleb128 0x3a
 3924 0066 0B       		.uleb128 0xb
 3925 0067 3B       		.uleb128 0x3b
 3926 0068 0B       		.uleb128 0xb
 3927 0069 01       		.uleb128 0x1
 3928 006a 13       		.uleb128 0x13
 3929 006b 00       		.byte	0
 3930 006c 00       		.byte	0
 3931 006d 0A       		.uleb128 0xa
 3932 006e 0D       		.uleb128 0xd
 3933 006f 00       		.byte	0
 3934 0070 03       		.uleb128 0x3
 3935 0071 0E       		.uleb128 0xe
 3936 0072 3A       		.uleb128 0x3a
 3937 0073 0B       		.uleb128 0xb
 3938 0074 3B       		.uleb128 0x3b
ARM GAS  C:\Users\plod1602\AppData\Local\Temp\cckpLv0Q.s 			page 86


 3939 0075 0B       		.uleb128 0xb
 3940 0076 49       		.uleb128 0x49
 3941 0077 13       		.uleb128 0x13
 3942 0078 38       		.uleb128 0x38
 3943 0079 0B       		.uleb128 0xb
 3944 007a 00       		.byte	0
 3945 007b 00       		.byte	0
 3946 007c 0B       		.uleb128 0xb
 3947 007d 0F       		.uleb128 0xf
 3948 007e 00       		.byte	0
 3949 007f 0B       		.uleb128 0xb
 3950 0080 0B       		.uleb128 0xb
 3951 0081 49       		.uleb128 0x49
 3952 0082 13       		.uleb128 0x13
 3953 0083 00       		.byte	0
 3954 0084 00       		.byte	0
 3955 0085 0C       		.uleb128 0xc
 3956 0086 2E       		.uleb128 0x2e
 3957 0087 01       		.byte	0x1
 3958 0088 3F       		.uleb128 0x3f
 3959 0089 19       		.uleb128 0x19
 3960 008a 03       		.uleb128 0x3
 3961 008b 0E       		.uleb128 0xe
 3962 008c 3A       		.uleb128 0x3a
 3963 008d 0B       		.uleb128 0xb
 3964 008e 3B       		.uleb128 0x3b
 3965 008f 0B       		.uleb128 0xb
 3966 0090 11       		.uleb128 0x11
 3967 0091 01       		.uleb128 0x1
 3968 0092 12       		.uleb128 0x12
 3969 0093 06       		.uleb128 0x6
 3970 0094 40       		.uleb128 0x40
 3971 0095 18       		.uleb128 0x18
 3972 0096 9642     		.uleb128 0x2116
 3973 0098 19       		.uleb128 0x19
 3974 0099 01       		.uleb128 0x1
 3975 009a 13       		.uleb128 0x13
 3976 009b 00       		.byte	0
 3977 009c 00       		.byte	0
 3978 009d 0D       		.uleb128 0xd
 3979 009e 34       		.uleb128 0x34
 3980 009f 00       		.byte	0
 3981 00a0 03       		.uleb128 0x3
 3982 00a1 08       		.uleb128 0x8
 3983 00a2 3A       		.uleb128 0x3a
 3984 00a3 0B       		.uleb128 0xb
 3985 00a4 3B       		.uleb128 0x3b
 3986 00a5 0B       		.uleb128 0xb
 3987 00a6 49       		.uleb128 0x49
 3988 00a7 13       		.uleb128 0x13
 3989 00a8 02       		.uleb128 0x2
 3990 00a9 18       		.uleb128 0x18
 3991 00aa 00       		.byte	0
 3992 00ab 00       		.byte	0
 3993 00ac 0E       		.uleb128 0xe
 3994 00ad 2E       		.uleb128 0x2e
 3995 00ae 01       		.byte	0x1
ARM GAS  C:\Users\plod1602\AppData\Local\Temp\cckpLv0Q.s 			page 87


 3996 00af 3F       		.uleb128 0x3f
 3997 00b0 19       		.uleb128 0x19
 3998 00b1 03       		.uleb128 0x3
 3999 00b2 0E       		.uleb128 0xe
 4000 00b3 3A       		.uleb128 0x3a
 4001 00b4 0B       		.uleb128 0xb
 4002 00b5 3B       		.uleb128 0x3b
 4003 00b6 0B       		.uleb128 0xb
 4004 00b7 27       		.uleb128 0x27
 4005 00b8 19       		.uleb128 0x19
 4006 00b9 49       		.uleb128 0x49
 4007 00ba 13       		.uleb128 0x13
 4008 00bb 11       		.uleb128 0x11
 4009 00bc 01       		.uleb128 0x1
 4010 00bd 12       		.uleb128 0x12
 4011 00be 06       		.uleb128 0x6
 4012 00bf 40       		.uleb128 0x40
 4013 00c0 18       		.uleb128 0x18
 4014 00c1 9742     		.uleb128 0x2117
 4015 00c3 19       		.uleb128 0x19
 4016 00c4 01       		.uleb128 0x1
 4017 00c5 13       		.uleb128 0x13
 4018 00c6 00       		.byte	0
 4019 00c7 00       		.byte	0
 4020 00c8 0F       		.uleb128 0xf
 4021 00c9 05       		.uleb128 0x5
 4022 00ca 00       		.byte	0
 4023 00cb 03       		.uleb128 0x3
 4024 00cc 0E       		.uleb128 0xe
 4025 00cd 3A       		.uleb128 0x3a
 4026 00ce 0B       		.uleb128 0xb
 4027 00cf 3B       		.uleb128 0x3b
 4028 00d0 0B       		.uleb128 0xb
 4029 00d1 49       		.uleb128 0x49
 4030 00d2 13       		.uleb128 0x13
 4031 00d3 02       		.uleb128 0x2
 4032 00d4 18       		.uleb128 0x18
 4033 00d5 00       		.byte	0
 4034 00d6 00       		.byte	0
 4035 00d7 10       		.uleb128 0x10
 4036 00d8 0B       		.uleb128 0xb
 4037 00d9 01       		.byte	0x1
 4038 00da 11       		.uleb128 0x11
 4039 00db 01       		.uleb128 0x1
 4040 00dc 12       		.uleb128 0x12
 4041 00dd 06       		.uleb128 0x6
 4042 00de 01       		.uleb128 0x1
 4043 00df 13       		.uleb128 0x13
 4044 00e0 00       		.byte	0
 4045 00e1 00       		.byte	0
 4046 00e2 11       		.uleb128 0x11
 4047 00e3 34       		.uleb128 0x34
 4048 00e4 00       		.byte	0
 4049 00e5 03       		.uleb128 0x3
 4050 00e6 0E       		.uleb128 0xe
 4051 00e7 3A       		.uleb128 0x3a
 4052 00e8 0B       		.uleb128 0xb
ARM GAS  C:\Users\plod1602\AppData\Local\Temp\cckpLv0Q.s 			page 88


 4053 00e9 3B       		.uleb128 0x3b
 4054 00ea 0B       		.uleb128 0xb
 4055 00eb 49       		.uleb128 0x49
 4056 00ec 13       		.uleb128 0x13
 4057 00ed 02       		.uleb128 0x2
 4058 00ee 18       		.uleb128 0x18
 4059 00ef 00       		.byte	0
 4060 00f0 00       		.byte	0
 4061 00f1 12       		.uleb128 0x12
 4062 00f2 0B       		.uleb128 0xb
 4063 00f3 01       		.byte	0x1
 4064 00f4 11       		.uleb128 0x11
 4065 00f5 01       		.uleb128 0x1
 4066 00f6 12       		.uleb128 0x12
 4067 00f7 06       		.uleb128 0x6
 4068 00f8 00       		.byte	0
 4069 00f9 00       		.byte	0
 4070 00fa 13       		.uleb128 0x13
 4071 00fb 26       		.uleb128 0x26
 4072 00fc 00       		.byte	0
 4073 00fd 49       		.uleb128 0x49
 4074 00fe 13       		.uleb128 0x13
 4075 00ff 00       		.byte	0
 4076 0100 00       		.byte	0
 4077 0101 14       		.uleb128 0x14
 4078 0102 2E       		.uleb128 0x2e
 4079 0103 01       		.byte	0x1
 4080 0104 3F       		.uleb128 0x3f
 4081 0105 19       		.uleb128 0x19
 4082 0106 03       		.uleb128 0x3
 4083 0107 0E       		.uleb128 0xe
 4084 0108 3A       		.uleb128 0x3a
 4085 0109 0B       		.uleb128 0xb
 4086 010a 3B       		.uleb128 0x3b
 4087 010b 0B       		.uleb128 0xb
 4088 010c 27       		.uleb128 0x27
 4089 010d 19       		.uleb128 0x19
 4090 010e 11       		.uleb128 0x11
 4091 010f 01       		.uleb128 0x1
 4092 0110 12       		.uleb128 0x12
 4093 0111 06       		.uleb128 0x6
 4094 0112 40       		.uleb128 0x40
 4095 0113 18       		.uleb128 0x18
 4096 0114 9642     		.uleb128 0x2116
 4097 0116 19       		.uleb128 0x19
 4098 0117 01       		.uleb128 0x1
 4099 0118 13       		.uleb128 0x13
 4100 0119 00       		.byte	0
 4101 011a 00       		.byte	0
 4102 011b 15       		.uleb128 0x15
 4103 011c 01       		.uleb128 0x1
 4104 011d 01       		.byte	0x1
 4105 011e 49       		.uleb128 0x49
 4106 011f 13       		.uleb128 0x13
 4107 0120 01       		.uleb128 0x1
 4108 0121 13       		.uleb128 0x13
 4109 0122 00       		.byte	0
ARM GAS  C:\Users\plod1602\AppData\Local\Temp\cckpLv0Q.s 			page 89


 4110 0123 00       		.byte	0
 4111 0124 16       		.uleb128 0x16
 4112 0125 21       		.uleb128 0x21
 4113 0126 00       		.byte	0
 4114 0127 49       		.uleb128 0x49
 4115 0128 13       		.uleb128 0x13
 4116 0129 2F       		.uleb128 0x2f
 4117 012a 05       		.uleb128 0x5
 4118 012b 00       		.byte	0
 4119 012c 00       		.byte	0
 4120 012d 17       		.uleb128 0x17
 4121 012e 2E       		.uleb128 0x2e
 4122 012f 01       		.byte	0x1
 4123 0130 3F       		.uleb128 0x3f
 4124 0131 19       		.uleb128 0x19
 4125 0132 03       		.uleb128 0x3
 4126 0133 0E       		.uleb128 0xe
 4127 0134 3A       		.uleb128 0x3a
 4128 0135 0B       		.uleb128 0xb
 4129 0136 3B       		.uleb128 0x3b
 4130 0137 0B       		.uleb128 0xb
 4131 0138 27       		.uleb128 0x27
 4132 0139 19       		.uleb128 0x19
 4133 013a 49       		.uleb128 0x49
 4134 013b 13       		.uleb128 0x13
 4135 013c 11       		.uleb128 0x11
 4136 013d 01       		.uleb128 0x1
 4137 013e 12       		.uleb128 0x12
 4138 013f 06       		.uleb128 0x6
 4139 0140 40       		.uleb128 0x40
 4140 0141 18       		.uleb128 0x18
 4141 0142 9642     		.uleb128 0x2116
 4142 0144 19       		.uleb128 0x19
 4143 0145 01       		.uleb128 0x1
 4144 0146 13       		.uleb128 0x13
 4145 0147 00       		.byte	0
 4146 0148 00       		.byte	0
 4147 0149 18       		.uleb128 0x18
 4148 014a 21       		.uleb128 0x21
 4149 014b 00       		.byte	0
 4150 014c 49       		.uleb128 0x49
 4151 014d 13       		.uleb128 0x13
 4152 014e 2F       		.uleb128 0x2f
 4153 014f 0B       		.uleb128 0xb
 4154 0150 00       		.byte	0
 4155 0151 00       		.byte	0
 4156 0152 19       		.uleb128 0x19
 4157 0153 2E       		.uleb128 0x2e
 4158 0154 01       		.byte	0x1
 4159 0155 3F       		.uleb128 0x3f
 4160 0156 19       		.uleb128 0x19
 4161 0157 03       		.uleb128 0x3
 4162 0158 0E       		.uleb128 0xe
 4163 0159 3A       		.uleb128 0x3a
 4164 015a 0B       		.uleb128 0xb
 4165 015b 3B       		.uleb128 0x3b
 4166 015c 05       		.uleb128 0x5
ARM GAS  C:\Users\plod1602\AppData\Local\Temp\cckpLv0Q.s 			page 90


 4167 015d 27       		.uleb128 0x27
 4168 015e 19       		.uleb128 0x19
 4169 015f 49       		.uleb128 0x49
 4170 0160 13       		.uleb128 0x13
 4171 0161 11       		.uleb128 0x11
 4172 0162 01       		.uleb128 0x1
 4173 0163 12       		.uleb128 0x12
 4174 0164 06       		.uleb128 0x6
 4175 0165 40       		.uleb128 0x40
 4176 0166 18       		.uleb128 0x18
 4177 0167 9742     		.uleb128 0x2117
 4178 0169 19       		.uleb128 0x19
 4179 016a 01       		.uleb128 0x1
 4180 016b 13       		.uleb128 0x13
 4181 016c 00       		.byte	0
 4182 016d 00       		.byte	0
 4183 016e 1A       		.uleb128 0x1a
 4184 016f 05       		.uleb128 0x5
 4185 0170 00       		.byte	0
 4186 0171 03       		.uleb128 0x3
 4187 0172 08       		.uleb128 0x8
 4188 0173 3A       		.uleb128 0x3a
 4189 0174 0B       		.uleb128 0xb
 4190 0175 3B       		.uleb128 0x3b
 4191 0176 05       		.uleb128 0x5
 4192 0177 49       		.uleb128 0x49
 4193 0178 13       		.uleb128 0x13
 4194 0179 02       		.uleb128 0x2
 4195 017a 18       		.uleb128 0x18
 4196 017b 00       		.byte	0
 4197 017c 00       		.byte	0
 4198 017d 1B       		.uleb128 0x1b
 4199 017e 05       		.uleb128 0x5
 4200 017f 00       		.byte	0
 4201 0180 03       		.uleb128 0x3
 4202 0181 0E       		.uleb128 0xe
 4203 0182 3A       		.uleb128 0x3a
 4204 0183 0B       		.uleb128 0xb
 4205 0184 3B       		.uleb128 0x3b
 4206 0185 05       		.uleb128 0x5
 4207 0186 49       		.uleb128 0x49
 4208 0187 13       		.uleb128 0x13
 4209 0188 02       		.uleb128 0x2
 4210 0189 18       		.uleb128 0x18
 4211 018a 00       		.byte	0
 4212 018b 00       		.byte	0
 4213 018c 1C       		.uleb128 0x1c
 4214 018d 34       		.uleb128 0x34
 4215 018e 00       		.byte	0
 4216 018f 03       		.uleb128 0x3
 4217 0190 08       		.uleb128 0x8
 4218 0191 3A       		.uleb128 0x3a
 4219 0192 0B       		.uleb128 0xb
 4220 0193 3B       		.uleb128 0x3b
 4221 0194 05       		.uleb128 0x5
 4222 0195 49       		.uleb128 0x49
 4223 0196 13       		.uleb128 0x13
ARM GAS  C:\Users\plod1602\AppData\Local\Temp\cckpLv0Q.s 			page 91


 4224 0197 02       		.uleb128 0x2
 4225 0198 18       		.uleb128 0x18
 4226 0199 00       		.byte	0
 4227 019a 00       		.byte	0
 4228 019b 1D       		.uleb128 0x1d
 4229 019c 34       		.uleb128 0x34
 4230 019d 00       		.byte	0
 4231 019e 03       		.uleb128 0x3
 4232 019f 0E       		.uleb128 0xe
 4233 01a0 3A       		.uleb128 0x3a
 4234 01a1 0B       		.uleb128 0xb
 4235 01a2 3B       		.uleb128 0x3b
 4236 01a3 05       		.uleb128 0x5
 4237 01a4 49       		.uleb128 0x49
 4238 01a5 13       		.uleb128 0x13
 4239 01a6 02       		.uleb128 0x2
 4240 01a7 18       		.uleb128 0x18
 4241 01a8 00       		.byte	0
 4242 01a9 00       		.byte	0
 4243 01aa 1E       		.uleb128 0x1e
 4244 01ab 2E       		.uleb128 0x2e
 4245 01ac 01       		.byte	0x1
 4246 01ad 3F       		.uleb128 0x3f
 4247 01ae 19       		.uleb128 0x19
 4248 01af 03       		.uleb128 0x3
 4249 01b0 0E       		.uleb128 0xe
 4250 01b1 3A       		.uleb128 0x3a
 4251 01b2 0B       		.uleb128 0xb
 4252 01b3 3B       		.uleb128 0x3b
 4253 01b4 05       		.uleb128 0x5
 4254 01b5 27       		.uleb128 0x27
 4255 01b6 19       		.uleb128 0x19
 4256 01b7 11       		.uleb128 0x11
 4257 01b8 01       		.uleb128 0x1
 4258 01b9 12       		.uleb128 0x12
 4259 01ba 06       		.uleb128 0x6
 4260 01bb 40       		.uleb128 0x40
 4261 01bc 18       		.uleb128 0x18
 4262 01bd 9642     		.uleb128 0x2116
 4263 01bf 19       		.uleb128 0x19
 4264 01c0 01       		.uleb128 0x1
 4265 01c1 13       		.uleb128 0x13
 4266 01c2 00       		.byte	0
 4267 01c3 00       		.byte	0
 4268 01c4 1F       		.uleb128 0x1f
 4269 01c5 2E       		.uleb128 0x2e
 4270 01c6 01       		.byte	0x1
 4271 01c7 3F       		.uleb128 0x3f
 4272 01c8 19       		.uleb128 0x19
 4273 01c9 03       		.uleb128 0x3
 4274 01ca 0E       		.uleb128 0xe
 4275 01cb 3A       		.uleb128 0x3a
 4276 01cc 0B       		.uleb128 0xb
 4277 01cd 3B       		.uleb128 0x3b
 4278 01ce 05       		.uleb128 0x5
 4279 01cf 27       		.uleb128 0x27
 4280 01d0 19       		.uleb128 0x19
ARM GAS  C:\Users\plod1602\AppData\Local\Temp\cckpLv0Q.s 			page 92


 4281 01d1 49       		.uleb128 0x49
 4282 01d2 13       		.uleb128 0x13
 4283 01d3 11       		.uleb128 0x11
 4284 01d4 01       		.uleb128 0x1
 4285 01d5 12       		.uleb128 0x12
 4286 01d6 06       		.uleb128 0x6
 4287 01d7 40       		.uleb128 0x40
 4288 01d8 18       		.uleb128 0x18
 4289 01d9 9642     		.uleb128 0x2116
 4290 01db 19       		.uleb128 0x19
 4291 01dc 01       		.uleb128 0x1
 4292 01dd 13       		.uleb128 0x13
 4293 01de 00       		.byte	0
 4294 01df 00       		.byte	0
 4295 01e0 20       		.uleb128 0x20
 4296 01e1 34       		.uleb128 0x34
 4297 01e2 00       		.byte	0
 4298 01e3 03       		.uleb128 0x3
 4299 01e4 0E       		.uleb128 0xe
 4300 01e5 3A       		.uleb128 0x3a
 4301 01e6 0B       		.uleb128 0xb
 4302 01e7 3B       		.uleb128 0x3b
 4303 01e8 05       		.uleb128 0x5
 4304 01e9 49       		.uleb128 0x49
 4305 01ea 13       		.uleb128 0x13
 4306 01eb 00       		.byte	0
 4307 01ec 00       		.byte	0
 4308 01ed 21       		.uleb128 0x21
 4309 01ee 34       		.uleb128 0x34
 4310 01ef 00       		.byte	0
 4311 01f0 03       		.uleb128 0x3
 4312 01f1 0E       		.uleb128 0xe
 4313 01f2 3A       		.uleb128 0x3a
 4314 01f3 0B       		.uleb128 0xb
 4315 01f4 3B       		.uleb128 0x3b
 4316 01f5 05       		.uleb128 0x5
 4317 01f6 49       		.uleb128 0x49
 4318 01f7 13       		.uleb128 0x13
 4319 01f8 3F       		.uleb128 0x3f
 4320 01f9 19       		.uleb128 0x19
 4321 01fa 3C       		.uleb128 0x3c
 4322 01fb 19       		.uleb128 0x19
 4323 01fc 00       		.byte	0
 4324 01fd 00       		.byte	0
 4325 01fe 22       		.uleb128 0x22
 4326 01ff 34       		.uleb128 0x34
 4327 0200 00       		.byte	0
 4328 0201 03       		.uleb128 0x3
 4329 0202 0E       		.uleb128 0xe
 4330 0203 3A       		.uleb128 0x3a
 4331 0204 0B       		.uleb128 0xb
 4332 0205 3B       		.uleb128 0x3b
 4333 0206 0B       		.uleb128 0xb
 4334 0207 49       		.uleb128 0x49
 4335 0208 13       		.uleb128 0x13
 4336 0209 3F       		.uleb128 0x3f
 4337 020a 19       		.uleb128 0x19
ARM GAS  C:\Users\plod1602\AppData\Local\Temp\cckpLv0Q.s 			page 93


 4338 020b 3C       		.uleb128 0x3c
 4339 020c 19       		.uleb128 0x19
 4340 020d 00       		.byte	0
 4341 020e 00       		.byte	0
 4342 020f 23       		.uleb128 0x23
 4343 0210 34       		.uleb128 0x34
 4344 0211 00       		.byte	0
 4345 0212 03       		.uleb128 0x3
 4346 0213 08       		.uleb128 0x8
 4347 0214 3A       		.uleb128 0x3a
 4348 0215 0B       		.uleb128 0xb
 4349 0216 3B       		.uleb128 0x3b
 4350 0217 0B       		.uleb128 0xb
 4351 0218 49       		.uleb128 0x49
 4352 0219 13       		.uleb128 0x13
 4353 021a 3F       		.uleb128 0x3f
 4354 021b 19       		.uleb128 0x19
 4355 021c 3C       		.uleb128 0x3c
 4356 021d 19       		.uleb128 0x19
 4357 021e 00       		.byte	0
 4358 021f 00       		.byte	0
 4359 0220 24       		.uleb128 0x24
 4360 0221 34       		.uleb128 0x34
 4361 0222 00       		.byte	0
 4362 0223 03       		.uleb128 0x3
 4363 0224 0E       		.uleb128 0xe
 4364 0225 3A       		.uleb128 0x3a
 4365 0226 0B       		.uleb128 0xb
 4366 0227 3B       		.uleb128 0x3b
 4367 0228 0B       		.uleb128 0xb
 4368 0229 49       		.uleb128 0x49
 4369 022a 13       		.uleb128 0x13
 4370 022b 3F       		.uleb128 0x3f
 4371 022c 19       		.uleb128 0x19
 4372 022d 02       		.uleb128 0x2
 4373 022e 18       		.uleb128 0x18
 4374 022f 00       		.byte	0
 4375 0230 00       		.byte	0
 4376 0231 00       		.byte	0
 4377              		.section	.debug_aranges,"",%progbits
 4378 0000 A4000000 		.4byte	0xa4
 4379 0004 0200     		.2byte	0x2
 4380 0006 00000000 		.4byte	.Ldebug_info0
 4381 000a 04       		.byte	0x4
 4382 000b 00       		.byte	0
 4383 000c 0000     		.2byte	0
 4384 000e 0000     		.2byte	0
 4385 0010 00000000 		.4byte	.LFB56
 4386 0014 54000000 		.4byte	.LFE56-.LFB56
 4387 0018 00000000 		.4byte	.LFB57
 4388 001c 3C010000 		.4byte	.LFE57-.LFB57
 4389 0020 00000000 		.4byte	.LFB58
 4390 0024 6C010000 		.4byte	.LFE58-.LFB58
 4391 0028 00000000 		.4byte	.LFB59
 4392 002c E4030000 		.4byte	.LFE59-.LFB59
 4393 0030 00000000 		.4byte	.LFB60
 4394 0034 58000000 		.4byte	.LFE60-.LFB60
ARM GAS  C:\Users\plod1602\AppData\Local\Temp\cckpLv0Q.s 			page 94


 4395 0038 00000000 		.4byte	.LFB61
 4396 003c E0000000 		.4byte	.LFE61-.LFB61
 4397 0040 00000000 		.4byte	.LFB62
 4398 0044 C8010000 		.4byte	.LFE62-.LFB62
 4399 0048 00000000 		.4byte	.LFB63
 4400 004c 40000000 		.4byte	.LFE63-.LFB63
 4401 0050 00000000 		.4byte	.LFB64
 4402 0054 2C000000 		.4byte	.LFE64-.LFB64
 4403 0058 00000000 		.4byte	.LFB65
 4404 005c 98000000 		.4byte	.LFE65-.LFB65
 4405 0060 00000000 		.4byte	.LFB66
 4406 0064 40000000 		.4byte	.LFE66-.LFB66
 4407 0068 00000000 		.4byte	.LFB67
 4408 006c 64000000 		.4byte	.LFE67-.LFB67
 4409 0070 00000000 		.4byte	.LFB68
 4410 0074 84000000 		.4byte	.LFE68-.LFB68
 4411 0078 00000000 		.4byte	.LFB69
 4412 007c 40000000 		.4byte	.LFE69-.LFB69
 4413 0080 00000000 		.4byte	.LFB70
 4414 0084 64000000 		.4byte	.LFE70-.LFB70
 4415 0088 00000000 		.4byte	.LFB71
 4416 008c 88000000 		.4byte	.LFE71-.LFB71
 4417 0090 00000000 		.4byte	.LFB72
 4418 0094 5C000000 		.4byte	.LFE72-.LFB72
 4419 0098 00000000 		.4byte	.LFB73
 4420 009c A8000000 		.4byte	.LFE73-.LFB73
 4421 00a0 00000000 		.4byte	0
 4422 00a4 00000000 		.4byte	0
 4423              		.section	.debug_ranges,"",%progbits
 4424              	.Ldebug_ranges0:
 4425 0000 00000000 		.4byte	.LFB56
 4426 0004 54000000 		.4byte	.LFE56
 4427 0008 00000000 		.4byte	.LFB57
 4428 000c 3C010000 		.4byte	.LFE57
 4429 0010 00000000 		.4byte	.LFB58
 4430 0014 6C010000 		.4byte	.LFE58
 4431 0018 00000000 		.4byte	.LFB59
 4432 001c E4030000 		.4byte	.LFE59
 4433 0020 00000000 		.4byte	.LFB60
 4434 0024 58000000 		.4byte	.LFE60
 4435 0028 00000000 		.4byte	.LFB61
 4436 002c E0000000 		.4byte	.LFE61
 4437 0030 00000000 		.4byte	.LFB62
 4438 0034 C8010000 		.4byte	.LFE62
 4439 0038 00000000 		.4byte	.LFB63
 4440 003c 40000000 		.4byte	.LFE63
 4441 0040 00000000 		.4byte	.LFB64
 4442 0044 2C000000 		.4byte	.LFE64
 4443 0048 00000000 		.4byte	.LFB65
 4444 004c 98000000 		.4byte	.LFE65
 4445 0050 00000000 		.4byte	.LFB66
 4446 0054 40000000 		.4byte	.LFE66
 4447 0058 00000000 		.4byte	.LFB67
 4448 005c 64000000 		.4byte	.LFE67
 4449 0060 00000000 		.4byte	.LFB68
 4450 0064 84000000 		.4byte	.LFE68
 4451 0068 00000000 		.4byte	.LFB69
ARM GAS  C:\Users\plod1602\AppData\Local\Temp\cckpLv0Q.s 			page 95


 4452 006c 40000000 		.4byte	.LFE69
 4453 0070 00000000 		.4byte	.LFB70
 4454 0074 64000000 		.4byte	.LFE70
 4455 0078 00000000 		.4byte	.LFB71
 4456 007c 88000000 		.4byte	.LFE71
 4457 0080 00000000 		.4byte	.LFB72
 4458 0084 5C000000 		.4byte	.LFE72
 4459 0088 00000000 		.4byte	.LFB73
 4460 008c A8000000 		.4byte	.LFE73
 4461 0090 00000000 		.4byte	0
 4462 0094 00000000 		.4byte	0
 4463              		.section	.debug_line,"",%progbits
 4464              	.Ldebug_line0:
 4465 0000 FB040000 		.section	.debug_str,"MS",%progbits,1
 4465      02009501 
 4465      00000201 
 4465      FB0E0D00 
 4465      01010101 
 4466              	.LASF47:
 4467 0000 46616C73 		.ascii	"False\000"
 4467      6500
 4468              	.LASF48:
 4469 0006 54727565 		.ascii	"True\000"
 4469      00
 4470              	.LASF88:
 4471 000b 70776D50 		.ascii	"pwmPercentageBeeingSent\000"
 4471      65726365 
 4471      6E746167 
 4471      65426565 
 4471      696E6753 
 4472              	.LASF30:
 4473 0023 66616E53 		.ascii	"fanState_type\000"
 4473      74617465 
 4473      5F747970 
 4473      6500
 4474              	.LASF39:
 4475 0031 74656D70 		.ascii	"temperatureMode_type\000"
 4475      65726174 
 4475      7572654D 
 4475      6F64655F 
 4475      74797065 
 4476              	.LASF113:
 4477 0046 74656D70 		.ascii	"temperature\000"
 4477      65726174 
 4477      75726500 
 4478              	.LASF65:
 4479 0052 61676974 		.ascii	"agitatorSpeed\000"
 4479      61746F72 
 4479      53706565 
 4479      6400
 4480              	.LASF91:
 4481 0060 74656D70 		.ascii	"tempIndex\000"
 4481      496E6465 
 4481      7800
 4482              	.LASF103:
 4483 006a 70656C74 		.ascii	"peltierControl\000"
 4483      69657243 
ARM GAS  C:\Users\plod1602\AppData\Local\Temp\cckpLv0Q.s 			page 96


 4483      6F6E7472 
 4483      6F6C00
 4484              	.LASF85:
 4485 0079 70776D44 		.ascii	"pwmDCStartValue\000"
 4485      43537461 
 4485      72745661 
 4485      6C756500 
 4486              	.LASF54:
 4487 0089 6D617854 		.ascii	"maxTemperatureDeviation\000"
 4487      656D7065 
 4487      72617475 
 4487      72654465 
 4487      76696174 
 4488              	.LASF10:
 4489 00a1 756E7369 		.ascii	"unsigned int\000"
 4489      676E6564 
 4489      20696E74 
 4489      00
 4490              	.LASF121:
 4491 00ae 6368616E 		.ascii	"changeAgitatorSpeed\000"
 4491      67654167 
 4491      69746174 
 4491      6F725370 
 4491      65656400 
 4492              	.LASF71:
 4493 00c2 61726543 		.ascii	"areCalibrationValuesRetrieved\000"
 4493      616C6962 
 4493      72617469 
 4493      6F6E5661 
 4493      6C756573 
 4494              	.LASF5:
 4495 00e0 5F5F696E 		.ascii	"__int32_t\000"
 4495      7433325F 
 4495      7400
 4496              	.LASF17:
 4497 00ea 696E7431 		.ascii	"int16\000"
 4497      3600
 4498              	.LASF51:
 4499 00f0 43616C69 		.ascii	"Calibrating\000"
 4499      62726174 
 4499      696E6700 
 4500              	.LASF141:
 4501 00fc 534D3170 		.ascii	"SM1percentageValues\000"
 4501      65726365 
 4501      6E746167 
 4501      6556616C 
 4501      75657300 
 4502              	.LASF35:
 4503 0110 57616974 		.ascii	"Waiting_drop\000"
 4503      696E675F 
 4503      64726F70 
 4503      00
 4504              	.LASF120:
 4505 011d 64657369 		.ascii	"desiredFanState\000"
 4505      72656446 
 4505      616E5374 
 4505      61746500 
ARM GAS  C:\Users\plod1602\AppData\Local\Temp\cckpLv0Q.s 			page 97


 4506              	.LASF82:
 4507 012d 6954656D 		.ascii	"iTemp\000"
 4507      7000
 4508              	.LASF43:
 4509 0133 63757272 		.ascii	"currentDirection_type\000"
 4509      656E7444 
 4509      69726563 
 4509      74696F6E 
 4509      5F747970 
 4510              	.LASF59:
 4511 0149 74656D70 		.ascii	"temperatureMode\000"
 4511      65726174 
 4511      7572654D 
 4511      6F646500 
 4512              	.LASF116:
 4513 0159 746F5772 		.ascii	"toWrite\000"
 4513      69746500 
 4514              	.LASF140:
 4515 0161 534D3163 		.ascii	"SM1calibrationValues\000"
 4515      616C6962 
 4515      72617469 
 4515      6F6E5661 
 4515      6C756573 
 4516              	.LASF83:
 4517 0176 70617374 		.ascii	"pastTemp\000"
 4517      54656D70 
 4517      00
 4518              	.LASF98:
 4519 017f 73657443 		.ascii	"setCalibrationTable\000"
 4519      616C6962 
 4519      72617469 
 4519      6F6E5461 
 4519      626C6500 
 4520              	.LASF124:
 4521 0193 61676974 		.ascii	"agitatorEnableState\000"
 4521      61746F72 
 4521      456E6162 
 4521      6C655374 
 4521      61746500 
 4522              	.LASF58:
 4523 01a7 6D617854 		.ascii	"maxTargetTemperature\000"
 4523      61726765 
 4523      7454656D 
 4523      70657261 
 4523      74757265 
 4524              	.LASF19:
 4525 01bc 666C6F61 		.ascii	"float\000"
 4525      7400
 4526              	.LASF18:
 4527 01c2 696E7433 		.ascii	"int32\000"
 4527      3200
 4528              	.LASF119:
 4529 01c8 66616E45 		.ascii	"fanEnableState\000"
 4529      6E61626C 
 4529      65537461 
 4529      746500
 4530              	.LASF145:
ARM GAS  C:\Users\plod1602\AppData\Local\Temp\cckpLv0Q.s 			page 98


 4531 01d7 65657072 		.ascii	"eepromStatus\000"
 4531      6F6D5374 
 4531      61747573 
 4531      00
 4532              	.LASF137:
 4533 01e4 534D3265 		.ascii	"SM2eepromArray\000"
 4533      6570726F 
 4533      6D417272 
 4533      617900
 4534              	.LASF126:
 4535 01f3 6368616E 		.ascii	"changePeltierModuleState\000"
 4535      67655065 
 4535      6C746965 
 4535      724D6F64 
 4535      756C6553 
 4536              	.LASF9:
 4537 020c 6C6F6E67 		.ascii	"long long unsigned int\000"
 4537      206C6F6E 
 4537      6720756E 
 4537      7369676E 
 4537      65642069 
 4538              	.LASF99:
 4539 0223 636F6E74 		.ascii	"controlTemperature\000"
 4539      726F6C54 
 4539      656D7065 
 4539      72617475 
 4539      726500
 4540              	.LASF33:
 4541 0236 70656C74 		.ascii	"peltierState_type\000"
 4541      69657253 
 4541      74617465 
 4541      5F747970 
 4541      6500
 4542              	.LASF107:
 4543 0248 69567468 		.ascii	"iVtherm\000"
 4543      65726D00 
 4544              	.LASF26:
 4545 0250 61676974 		.ascii	"agitatorEnabled\000"
 4545      61746F72 
 4545      456E6162 
 4545      6C656400 
 4546              	.LASF148:
 4547 0260 433A5C55 		.ascii	"C:\\Users\\plod1602\\Desktop\\TAC_2015-09-18\\TAC_P"
 4547      73657273 
 4547      5C706C6F 
 4547      64313630 
 4547      325C4465 
 4548 028e 534F4335 		.ascii	"SOC5.cydsn\000"
 4548      2E637964 
 4548      736E00
 4549              	.LASF57:
 4550 0299 63757272 		.ascii	"currentTemperature\000"
 4550      656E7454 
 4550      656D7065 
 4550      72617475 
 4550      726500
 4551              	.LASF62:
ARM GAS  C:\Users\plod1602\AppData\Local\Temp\cckpLv0Q.s 			page 99


 4552 02ac 64657369 		.ascii	"desiredPwmPercentage\000"
 4552      72656450 
 4552      776D5065 
 4552      7263656E 
 4552      74616765 
 4553              	.LASF133:
 4554 02c1 64657369 		.ascii	"desiredPercentage\000"
 4554      72656450 
 4554      65726365 
 4554      6E746167 
 4554      6500
 4555              	.LASF128:
 4556 02d3 61637475 		.ascii	"actualCtrlRegisterValue\000"
 4556      616C4374 
 4556      726C5265 
 4556      67697374 
 4556      65725661 
 4557              	.LASF127:
 4558 02eb 70656C74 		.ascii	"peltierEnableState\000"
 4558      69657245 
 4558      6E61626C 
 4558      65537461 
 4558      746500
 4559              	.LASF31:
 4560 02fe 70656C74 		.ascii	"peltierDisabled\000"
 4560      69657244 
 4560      69736162 
 4560      6C656400 
 4561              	.LASF105:
 4562 030e 636F6E74 		.ascii	"controlValue\000"
 4562      726F6C56 
 4562      616C7565 
 4562      00
 4563              	.LASF45:
 4564 031b 5570546F 		.ascii	"UpToDate\000"
 4564      44617465 
 4564      00
 4565              	.LASF68:
 4566 0324 66616E53 		.ascii	"fanState\000"
 4566      74617465 
 4566      00
 4567              	.LASF100:
 4568 032d 61637475 		.ascii	"actualTemperature\000"
 4568      616C5465 
 4568      6D706572 
 4568      61747572 
 4568      6500
 4569              	.LASF111:
 4570 033f 6D617856 		.ascii	"maxValue\000"
 4570      616C7565 
 4570      00
 4571              	.LASF94:
 4572 0348 50656C74 		.ascii	"PeltierDirectionInversionDone\000"
 4572      69657244 
 4572      69726563 
 4572      74696F6E 
 4572      496E7665 
ARM GAS  C:\Users\plod1602\AppData\Local\Temp\cckpLv0Q.s 			page 100


 4573              	.LASF95:
 4574 0366 67657441 		.ascii	"getArrayMean\000"
 4574      72726179 
 4574      4D65616E 
 4574      00
 4575              	.LASF63:
 4576 0373 70776D50 		.ascii	"pwmPeriodValue\000"
 4576      6572696F 
 4576      6456616C 
 4576      756500
 4577              	.LASF109:
 4578 0382 69526573 		.ascii	"iRes\000"
 4578      00
 4579              	.LASF21:
 4580 0387 63686172 		.ascii	"char\000"
 4580      00
 4581              	.LASF115:
 4582 038c 70657263 		.ascii	"percentage\000"
 4582      656E7461 
 4582      676500
 4583              	.LASF90:
 4584 0397 64656C74 		.ascii	"deltaValue\000"
 4584      6156616C 
 4584      756500
 4585              	.LASF14:
 4586 03a2 75696E74 		.ascii	"uint16\000"
 4586      313600
 4587              	.LASF16:
 4588 03a9 696E7438 		.ascii	"int8\000"
 4588      00
 4589              	.LASF143:
 4590 03ae 534D3270 		.ascii	"SM2percentageValues\000"
 4590      65726365 
 4590      6E746167 
 4590      6556616C 
 4590      75657300 
 4591              	.LASF52:
 4592 03c2 63616C69 		.ascii	"calibratingStatus_type\000"
 4592      62726174 
 4592      696E6753 
 4592      74617475 
 4592      735F7479 
 4593              	.LASF11:
 4594 03d9 75696E74 		.ascii	"uint8_t\000"
 4594      385F7400 
 4595              	.LASF49:
 4596 03e1 626F6F6C 		.ascii	"boolean\000"
 4596      65616E00 
 4597              	.LASF70:
 4598 03e9 70657263 		.ascii	"percentageValuesPtr\000"
 4598      656E7461 
 4598      67655661 
 4598      6C756573 
 4598      50747200 
 4599              	.LASF86:
 4600 03fd 70776D44 		.ascii	"pwmDCEndValue\000"
 4600      43456E64 
ARM GAS  C:\Users\plod1602\AppData\Local\Temp\cckpLv0Q.s 			page 101


 4600      56616C75 
 4600      6500
 4601              	.LASF8:
 4602 040b 6C6F6E67 		.ascii	"long long int\000"
 4602      206C6F6E 
 4602      6720696E 
 4602      7400
 4603              	.LASF55:
 4604 0419 70656C74 		.ascii	"peltierState\000"
 4604      69657253 
 4604      74617465 
 4604      00
 4605              	.LASF64:
 4606 0426 70776D56 		.ascii	"pwmValueFromCalibration\000"
 4606      616C7565 
 4606      46726F6D 
 4606      43616C69 
 4606      62726174 
 4607              	.LASF122:
 4608 043e 67657441 		.ascii	"getAgitatorSpeed\000"
 4608      67697461 
 4608      746F7253 
 4608      70656564 
 4608      00
 4609              	.LASF96:
 4610 044f 73697A65 		.ascii	"size\000"
 4610      00
 4611              	.LASF15:
 4612 0454 75696E74 		.ascii	"uint32\000"
 4612      333200
 4613              	.LASF135:
 4614 045b 65657072 		.ascii	"eepromArray\000"
 4614      6F6D4172 
 4614      72617900 
 4615              	.LASF72:
 4616 0467 63616C69 		.ascii	"calibratingStatus\000"
 4616      62726174 
 4616      696E6753 
 4616      74617475 
 4616      7300
 4617              	.LASF130:
 4618 0479 6368616E 		.ascii	"changePeltierModuleCurrentDirection\000"
 4618      67655065 
 4618      6C746965 
 4618      724D6F64 
 4618      756C6543 
 4619              	.LASF36:
 4620 049d 4D61696E 		.ascii	"Maintaining_cool\000"
 4620      7461696E 
 4620      696E675F 
 4620      636F6F6C 
 4620      00
 4621              	.LASF25:
 4622 04ae 61676974 		.ascii	"agitatorDisabled\000"
 4622      61746F72 
 4622      44697361 
 4622      626C6564 
ARM GAS  C:\Users\plod1602\AppData\Local\Temp\cckpLv0Q.s 			page 102


 4622      00
 4623              	.LASF149:
 4624 04bf 76616C69 		.ascii	"validateEEPROM\000"
 4624      64617465 
 4624      45455052 
 4624      4F4D00
 4625              	.LASF29:
 4626 04ce 66616E45 		.ascii	"fanEnabled\000"
 4626      6E61626C 
 4626      656400
 4627              	.LASF24:
 4628 04d9 6C6F6E67 		.ascii	"long double\000"
 4628      20646F75 
 4628      626C6500 
 4629              	.LASF41:
 4630 04e5 436F6F6C 		.ascii	"Cooling\000"
 4630      696E6700 
 4631              	.LASF46:
 4632 04ed 70776D46 		.ascii	"pwmFromCalibrationStatus_type\000"
 4632      726F6D43 
 4632      616C6962 
 4632      72617469 
 4632      6F6E5374 
 4633              	.LASF134:
 4634 050b 7375624D 		.ascii	"subModuleID\000"
 4634      6F64756C 
 4634      65494400 
 4635              	.LASF84:
 4636 0517 6D617850 		.ascii	"maxPWMPulse\000"
 4636      574D5075 
 4636      6C736500 
 4637              	.LASF87:
 4638 0523 70776D50 		.ascii	"pwmPercentageIncrement\000"
 4638      65726365 
 4638      6E746167 
 4638      65496E63 
 4638      72656D65 
 4639              	.LASF40:
 4640 053a 4E6F7453 		.ascii	"NotSet\000"
 4640      657400
 4641              	.LASF53:
 4642 0541 7375624D 		.ascii	"subModuleId\000"
 4642      6F64756C 
 4642      65496400 
 4643              	.LASF76:
 4644 054d 74656D70 		.ascii	"tempTemperatureAndPercentageArray\000"
 4644      54656D70 
 4644      65726174 
 4644      75726541 
 4644      6E645065 
 4645              	.LASF2:
 4646 056f 73686F72 		.ascii	"short int\000"
 4646      7420696E 
 4646      7400
 4647              	.LASF67:
 4648 0579 66616E53 		.ascii	"fanSpeed\000"
 4648      70656564 
ARM GAS  C:\Users\plod1602\AppData\Local\Temp\cckpLv0Q.s 			page 103


 4648      00
 4649              	.LASF118:
 4650 0582 6368616E 		.ascii	"changeFanState\000"
 4650      67654661 
 4650      6E537461 
 4650      746500
 4651              	.LASF6:
 4652 0591 6C6F6E67 		.ascii	"long int\000"
 4652      20696E74 
 4652      00
 4653              	.LASF138:
 4654 059a 49544D5F 		.ascii	"ITM_RxBuffer\000"
 4654      52784275 
 4654      66666572 
 4654      00
 4655              	.LASF44:
 4656 05a7 4F757444 		.ascii	"OutDated\000"
 4656      61746564 
 4656      00
 4657              	.LASF89:
 4658 05b0 70776D57 		.ascii	"pwmWriteCompareValue\000"
 4658      72697465 
 4658      436F6D70 
 4658      61726556 
 4658      616C7565 
 4659              	.LASF102:
 4660 05c5 64696666 		.ascii	"diff\000"
 4660      00
 4661              	.LASF50:
 4662 05ca 4E6F7443 		.ascii	"NotCalibrating\000"
 4662      616C6962 
 4662      72617469 
 4662      6E6700
 4663              	.LASF101:
 4664 05d9 74656D70 		.ascii	"temp\000"
 4664      00
 4665              	.LASF34:
 4666 05de 4D61696E 		.ascii	"Maintaining_heat\000"
 4666      7461696E 
 4666      696E675F 
 4666      68656174 
 4666      00
 4667              	.LASF112:
 4668 05ef 70776D43 		.ascii	"pwmCompare\000"
 4668      6F6D7061 
 4668      726500
 4669              	.LASF78:
 4670 05fa 63616C69 		.ascii	"calibration\000"
 4670      62726174 
 4670      696F6E00 
 4671              	.LASF56:
 4672 0606 74617267 		.ascii	"targetTemperature\000"
 4672      65745465 
 4672      6D706572 
 4672      61747572 
 4672      6500
 4673              	.LASF4:
ARM GAS  C:\Users\plod1602\AppData\Local\Temp\cckpLv0Q.s 			page 104


 4674 0618 5F5F7569 		.ascii	"__uint8_t\000"
 4674      6E74385F 
 4674      7400
 4675              	.LASF66:
 4676 0622 61676974 		.ascii	"agitatorState\000"
 4676      61746F72 
 4676      53746174 
 4676      6500
 4677              	.LASF69:
 4678 0630 63616C69 		.ascii	"calibrationValuesPtr\000"
 4678      62726174 
 4678      696F6E56 
 4678      616C7565 
 4678      73507472 
 4679              	.LASF74:
 4680 0645 61727261 		.ascii	"array1\000"
 4680      793100
 4681              	.LASF32:
 4682 064c 70656C74 		.ascii	"peltierEnabled\000"
 4682      69657245 
 4682      6E61626C 
 4682      656400
 4683              	.LASF60:
 4684 065b 63757272 		.ascii	"currentDirection\000"
 4684      656E7444 
 4684      69726563 
 4684      74696F6E 
 4684      00
 4685              	.LASF92:
 4686 066c 74656D70 		.ascii	"tempMean\000"
 4686      4D65616E 
 4686      00
 4687              	.LASF23:
 4688 0675 73697A65 		.ascii	"sizetype\000"
 4688      74797065 
 4688      00
 4689              	.LASF7:
 4690 067e 6C6F6E67 		.ascii	"long unsigned int\000"
 4690      20756E73 
 4690      69676E65 
 4690      6420696E 
 4690      7400
 4691              	.LASF123:
 4692 0690 6368616E 		.ascii	"changeAgitatorState\000"
 4692      67654167 
 4692      69746174 
 4692      6F725374 
 4692      61746500 
 4693              	.LASF12:
 4694 06a4 696E7433 		.ascii	"int32_t\000"
 4694      325F7400 
 4695              	.LASF136:
 4696 06ac 534D3165 		.ascii	"SM1eepromArray\000"
 4696      6570726F 
 4696      6D417272 
 4696      617900
 4697              	.LASF131:
ARM GAS  C:\Users\plod1602\AppData\Local\Temp\cckpLv0Q.s 			page 105


 4698 06bb 44697265 		.ascii	"Direction\000"
 4698      6374696F 
 4698      6E00
 4699              	.LASF22:
 4700 06c5 63797374 		.ascii	"cystatus\000"
 4700      61747573 
 4700      00
 4701              	.LASF147:
 4702 06ce 2E5C5065 		.ascii	".\\PeltierCalibration.c\000"
 4702      6C746965 
 4702      7243616C 
 4702      69627261 
 4702      74696F6E 
 4703              	.LASF1:
 4704 06e5 756E7369 		.ascii	"unsigned char\000"
 4704      676E6564 
 4704      20636861 
 4704      7200
 4705              	.LASF104:
 4706 06f3 66756E63 		.ascii	"function\000"
 4706      74696F6E 
 4706      00
 4707              	.LASF79:
 4708 06fc 6D617854 		.ascii	"maxTempTarget\000"
 4708      656D7054 
 4708      61726765 
 4708      7400
 4709              	.LASF73:
 4710 070a 5461635F 		.ascii	"Tac_Submodule\000"
 4710      5375626D 
 4710      6F64756C 
 4710      6500
 4711              	.LASF37:
 4712 0718 57616974 		.ascii	"Waiting_overshoot\000"
 4712      696E675F 
 4712      6F766572 
 4712      73686F6F 
 4712      7400
 4713              	.LASF75:
 4714 072a 54414350 		.ascii	"TACPtr\000"
 4714      747200
 4715              	.LASF146:
 4716 0731 474E5520 		.ascii	"GNU C 4.8.4 20140526 (release) [ARM/embedded-4_8-br"
 4716      4320342E 
 4716      382E3420 
 4716      32303134 
 4716      30353236 
 4717 0764 616E6368 		.ascii	"anch revision 211358] -mcpu=cortex-m3 -mthumb -g -O"
 4717      20726576 
 4717      6973696F 
 4717      6E203231 
 4717      31333538 
 4718 0797 30202D66 		.ascii	"0 -ffunction-sections\000"
 4718      66756E63 
 4718      74696F6E 
 4718      2D736563 
 4718      74696F6E 
ARM GAS  C:\Users\plod1602\AppData\Local\Temp\cckpLv0Q.s 			page 106


 4719              	.LASF117:
 4720 07ad 67657446 		.ascii	"getFanSpeed\000"
 4720      616E5370 
 4720      65656400 
 4721              	.LASF129:
 4722 07b9 76616C75 		.ascii	"valueToWrite\000"
 4722      65546F57 
 4722      72697465 
 4722      00
 4723              	.LASF27:
 4724 07c6 61676974 		.ascii	"agitatorState_type\000"
 4724      61746F72 
 4724      53746174 
 4724      655F7479 
 4724      706500
 4725              	.LASF42:
 4726 07d9 48656174 		.ascii	"Heating\000"
 4726      696E6700 
 4727              	.LASF125:
 4728 07e1 64657369 		.ascii	"desiredAgitatorState\000"
 4728      72656441 
 4728      67697461 
 4728      746F7253 
 4728      74617465 
 4729              	.LASF139:
 4730 07f6 53544F50 		.ascii	"STOP_CALIBRATION_FLAG\000"
 4730      5F43414C 
 4730      49425241 
 4730      54494F4E 
 4730      5F464C41 
 4731              	.LASF144:
 4732 080c 74617267 		.ascii	"targetTemp\000"
 4732      65745465 
 4732      6D7000
 4733              	.LASF77:
 4734 0817 67657443 		.ascii	"getCalibrationTable\000"
 4734      616C6962 
 4734      72617469 
 4734      6F6E5461 
 4734      626C6500 
 4735              	.LASF93:
 4736 082b 746F6C65 		.ascii	"tolerance_hit\000"
 4736      72616E63 
 4736      655F6869 
 4736      7400
 4737              	.LASF0:
 4738 0839 7369676E 		.ascii	"signed char\000"
 4738      65642063 
 4738      68617200 
 4739              	.LASF81:
 4740 0845 63616C69 		.ascii	"calibrationPointer\000"
 4740      62726174 
 4740      696F6E50 
 4740      6F696E74 
 4740      657200
 4741              	.LASF106:
 4742 0858 67657454 		.ascii	"getThermistorTemp\000"
ARM GAS  C:\Users\plod1602\AppData\Local\Temp\cckpLv0Q.s 			page 107


 4742      6865726D 
 4742      6973746F 
 4742      7254656D 
 4742      7000
 4743              	.LASF3:
 4744 086a 73686F72 		.ascii	"short unsigned int\000"
 4744      7420756E 
 4744      7369676E 
 4744      65642069 
 4744      6E7400
 4745              	.LASF108:
 4746 087d 69567265 		.ascii	"iVref\000"
 4746      6600
 4747              	.LASF28:
 4748 0883 66616E44 		.ascii	"fanDisabled\000"
 4748      69736162 
 4748      6C656400 
 4749              	.LASF110:
 4750 088f 67657454 		.ascii	"getTemperature\000"
 4750      656D7065 
 4750      72617475 
 4750      726500
 4751              	.LASF142:
 4752 089e 534D3263 		.ascii	"SM2calibrationValues\000"
 4752      616C6962 
 4752      72617469 
 4752      6F6E5661 
 4752      6C756573 
 4753              	.LASF13:
 4754 08b3 75696E74 		.ascii	"uint8\000"
 4754      3800
 4755              	.LASF20:
 4756 08b9 646F7562 		.ascii	"double\000"
 4756      6C6500
 4757              	.LASF132:
 4758 08c0 6368616E 		.ascii	"changePeltierPWMValue\000"
 4758      67655065 
 4758      6C746965 
 4758      7250574D 
 4758      56616C75 
 4759              	.LASF61:
 4760 08d6 70776D43 		.ascii	"pwmCompareValue\000"
 4760      6F6D7061 
 4760      72655661 
 4760      6C756500 
 4761              	.LASF114:
 4762 08e6 6368616E 		.ascii	"changeFanSpeed\000"
 4762      67654661 
 4762      6E537065 
 4762      656400
 4763              	.LASF97:
 4764 08f5 6D65616E 		.ascii	"mean\000"
 4764      00
 4765              	.LASF80:
 4766 08fa 6D6F6475 		.ascii	"moduleNumber\000"
 4766      6C654E75 
 4766      6D626572 
ARM GAS  C:\Users\plod1602\AppData\Local\Temp\cckpLv0Q.s 			page 108


 4766      00
 4767              	.LASF38:
 4768 0907 57616974 		.ascii	"Waiting\000"
 4768      696E6700 
 4769              		.ident	"GCC: (GNU Tools for ARM Embedded Processors) 4.8.4 20140526 (release) [ARM/embedded-4_8-br
