ARM GAS  C:\Users\plod1602\AppData\Local\Temp\cckpLv0Q.s 			page 1


   1              		.syntax unified
   2              		.cpu cortex-m3
   3              		.fpu softvfp
   4              		.eabi_attribute 20, 1
   5              		.eabi_attribute 21, 1
   6              		.eabi_attribute 23, 3
   7              		.eabi_attribute 24, 1
   8              		.eabi_attribute 25, 1
   9              		.eabi_attribute 26, 1
  10              		.eabi_attribute 30, 6
  11              		.eabi_attribute 34, 1
  12              		.eabi_attribute 18, 4
  13              		.thumb
  14              		.file	"PeltierCalibration.c"
  15              		.text
  16              	.Ltext0:
  17              		.cfi_sections	.debug_frame
  18              		.comm	targetTemp,8,8
  19              		.comm	eepromStatus,4,4
  20              		.section	.rodata
  21              		.align	2
  22              		.type	eepromArray, %object
  23              		.size	eepromArray, 500
  24              	eepromArray:
  25 0000 00000000 		.space	500
  25      00000000 
  25      00000000 
  25      00000000 
  25      00000000 
  26              		.align	2
  27              		.type	SM1eepromArray, %object
  28              		.size	SM1eepromArray, 300
  29              	SM1eepromArray:
  30 01f4 00000000 		.space	300
  30      00000000 
  30      00000000 
  30      00000000 
  30      00000000 
  31              		.align	2
  32              		.type	SM2eepromArray, %object
  33              		.size	SM2eepromArray, 300
  34              	SM2eepromArray:
  35 0320 00000000 		.space	300
  35      00000000 
  35      00000000 
  35      00000000 
  35      00000000 
  36              		.section	.text.validateEEPROM,"ax",%progbits
  37              		.align	2
  38              		.global	validateEEPROM
  39              		.thumb
  40              		.thumb_func
  41              		.type	validateEEPROM, %function
  42              	validateEEPROM:
  43              	.LFB56:
  44              		.file 1 ".\\PeltierCalibration.c"
   1:.\PeltierCalibration.c **** /* ========================================
ARM GAS  C:\Users\plod1602\AppData\Local\Temp\cckpLv0Q.s 			page 2


   2:.\PeltierCalibration.c ****  *
   3:.\PeltierCalibration.c ****  * Copyright YOUR COMPANY, THE YEAR
   4:.\PeltierCalibration.c ****  * All Rights Reserved
   5:.\PeltierCalibration.c ****  * UNPUBLISHED, LICENSED SOFTWARE.
   6:.\PeltierCalibration.c ****  *
   7:.\PeltierCalibration.c ****  * CONFIDENTIAL AND PROPRIETARY INFORMATION
   8:.\PeltierCalibration.c ****  * WHICH IS THE PROPERTY OF your company.
   9:.\PeltierCalibration.c ****  *
  10:.\PeltierCalibration.c ****  * ========================================
  11:.\PeltierCalibration.c **** */
  12:.\PeltierCalibration.c **** #include <PeltierCalibration.h>
  13:.\PeltierCalibration.c **** double targetTemp;          // variable containing TAC target temperature
  14:.\PeltierCalibration.c **** cystatus eepromStatus;
  15:.\PeltierCalibration.c **** static const uint8 eepromArray[(5*CALIBRATION_TABLE_SIZE)] = {0};
  16:.\PeltierCalibration.c **** // The calibration tables are organized like so : LSB first -> [3*i] = LSB, [3*i+1] = MSB, [3*i+2]=
  17:.\PeltierCalibration.c **** static const uint8 SM1eepromArray[(3*CALIBRATION_TABLE_SIZE)] = {0};
  18:.\PeltierCalibration.c **** static const uint8 SM2eepromArray[(3*CALIBRATION_TABLE_SIZE)] = {0};
  19:.\PeltierCalibration.c **** 
  20:.\PeltierCalibration.c **** void validateEEPROM()
  21:.\PeltierCalibration.c **** {
  45              		.loc 1 21 0
  46              		.cfi_startproc
  47              		@ args = 0, pretend = 0, frame = 8
  48              		@ frame_needed = 1, uses_anonymous_args = 0
  49 0000 80B5     		push	{r7, lr}
  50              		.cfi_def_cfa_offset 8
  51              		.cfi_offset 7, -8
  52              		.cfi_offset 14, -4
  53 0002 82B0     		sub	sp, sp, #8
  54              		.cfi_def_cfa_offset 16
  55 0004 00AF     		add	r7, sp, #0
  56              		.cfi_def_cfa_register 7
  22:.\PeltierCalibration.c ****     int i;
  23:.\PeltierCalibration.c ****     for (i=0; i<50; i++)
  57              		.loc 1 23 0
  58 0006 0023     		movs	r3, #0
  59 0008 7B60     		str	r3, [r7, #4]
  60 000a 16E0     		b	.L2
  61              	.L4:
  24:.\PeltierCalibration.c ****     {
  25:.\PeltierCalibration.c ****         if (SM1calibrationValues[i] != 0)
  62              		.loc 1 25 0
  63 000c 104B     		ldr	r3, .L5
  64 000e 7A68     		ldr	r2, [r7, #4]
  65 0010 33F81230 		ldrh	r3, [r3, r2, lsl #1]
  66 0014 002B     		cmp	r3, #0
  67 0016 0DD0     		beq	.L3
  26:.\PeltierCalibration.c ****         {            
  27:.\PeltierCalibration.c ****             Blue_LED_Write(1u);
  68              		.loc 1 27 0
  69 0018 0120     		movs	r0, #1
  70 001a FFF7FEFF 		bl	Blue_LED_Write
  28:.\PeltierCalibration.c ****             CyDelay(300);
  71              		.loc 1 28 0
  72 001e 4FF49670 		mov	r0, #300
  73 0022 FFF7FEFF 		bl	CyDelay
  29:.\PeltierCalibration.c ****             Blue_LED_Write(0u);
ARM GAS  C:\Users\plod1602\AppData\Local\Temp\cckpLv0Q.s 			page 3


  74              		.loc 1 29 0
  75 0026 0020     		movs	r0, #0
  76 0028 FFF7FEFF 		bl	Blue_LED_Write
  30:.\PeltierCalibration.c ****             CyDelay(300); 
  77              		.loc 1 30 0
  78 002c 4FF49670 		mov	r0, #300
  79 0030 FFF7FEFF 		bl	CyDelay
  80              	.L3:
  23:.\PeltierCalibration.c ****     for (i=0; i<50; i++)
  81              		.loc 1 23 0
  82 0034 7B68     		ldr	r3, [r7, #4]
  83 0036 0133     		adds	r3, r3, #1
  84 0038 7B60     		str	r3, [r7, #4]
  85              	.L2:
  23:.\PeltierCalibration.c ****     for (i=0; i<50; i++)
  86              		.loc 1 23 0 is_stmt 0 discriminator 1
  87 003a 7B68     		ldr	r3, [r7, #4]
  88 003c 312B     		cmp	r3, #49
  89 003e E5DD     		ble	.L4
  31:.\PeltierCalibration.c ****         }
  32:.\PeltierCalibration.c ****     }
  33:.\PeltierCalibration.c ****     CyDelay(10000);
  90              		.loc 1 33 0 is_stmt 1
  91 0040 42F21070 		movw	r0, #10000
  92 0044 FFF7FEFF 		bl	CyDelay
  34:.\PeltierCalibration.c **** }
  93              		.loc 1 34 0
  94 0048 0837     		adds	r7, r7, #8
  95 004a BD46     		mov	sp, r7
  96              		@ sp needed
  97 004c 80BD     		pop	{r7, pc}
  98              	.L6:
  99 004e 00BF     		.align	2
 100              	.L5:
 101 0050 00000000 		.word	SM1calibrationValues
 102              		.cfi_endproc
 103              	.LFE56:
 104              		.size	validateEEPROM, .-validateEEPROM
 105              		.section	.text.getCalibrationTable,"ax",%progbits
 106              		.align	2
 107              		.global	getCalibrationTable
 108              		.thumb
 109              		.thumb_func
 110              		.type	getCalibrationTable, %function
 111              	getCalibrationTable:
 112              	.LFB57:
  35:.\PeltierCalibration.c **** 
  36:.\PeltierCalibration.c **** //* Used to read calibration table from EEPROM */
  37:.\PeltierCalibration.c **** //Return 1 if data is present in the calibration table in the EEPROM, 0 otherwise.
  38:.\PeltierCalibration.c **** uint8 getCalibrationTable(Tac_Submodule* TACPtr)
  39:.\PeltierCalibration.c **** {
 113              		.loc 1 39 0
 114              		.cfi_startproc
 115              		@ args = 0, pretend = 0, frame = 24
 116              		@ frame_needed = 1, uses_anonymous_args = 0
 117              		@ link register save eliminated.
 118 0000 80B4     		push	{r7}
ARM GAS  C:\Users\plod1602\AppData\Local\Temp\cckpLv0Q.s 			page 4


 119              		.cfi_def_cfa_offset 4
 120              		.cfi_offset 7, -4
 121 0002 87B0     		sub	sp, sp, #28
 122              		.cfi_def_cfa_offset 32
 123 0004 00AF     		add	r7, sp, #0
 124              		.cfi_def_cfa_register 7
 125 0006 7860     		str	r0, [r7, #4]
  40:.\PeltierCalibration.c ****     int i=0;
 126              		.loc 1 40 0
 127 0008 0023     		movs	r3, #0
 128 000a 7B61     		str	r3, [r7, #20]
  41:.\PeltierCalibration.c ****     
  42:.\PeltierCalibration.c ****     if (TACPtr->subModuleId == SubModule1_ID)
 129              		.loc 1 42 0
 130 000c 7B68     		ldr	r3, [r7, #4]
 131 000e 1B88     		ldrh	r3, [r3]
 132 0010 012B     		cmp	r3, #1
 133 0012 32D1     		bne	.L8
 134              	.LBB2:
  43:.\PeltierCalibration.c ****     {
  44:.\PeltierCalibration.c ****         volatile const uint8* array1 = (volatile uint8 *) &SM1eepromArray[0]; // array1 devrait poi
 135              		.loc 1 44 0
 136 0014 434B     		ldr	r3, .L16
 137 0016 3B61     		str	r3, [r7, #16]
  45:.\PeltierCalibration.c ****         for(i = 0; i<CALIBRATION_TABLE_SIZE; i++)
 138              		.loc 1 45 0
 139 0018 0023     		movs	r3, #0
 140 001a 7B61     		str	r3, [r7, #20]
 141 001c 29E0     		b	.L9
 142              	.L10:
  46:.\PeltierCalibration.c ****         {
  47:.\PeltierCalibration.c ****             SM1calibrationValues[i] = (int16)((array1[(3*i)+1] << 8) | array1[(3*i)]); 
 143              		.loc 1 47 0 discriminator 2
 144 001e 7A69     		ldr	r2, [r7, #20]
 145 0020 1346     		mov	r3, r2
 146 0022 5B00     		lsls	r3, r3, #1
 147 0024 1344     		add	r3, r3, r2
 148 0026 0133     		adds	r3, r3, #1
 149 0028 3A69     		ldr	r2, [r7, #16]
 150 002a 1344     		add	r3, r3, r2
 151 002c 1B78     		ldrb	r3, [r3]
 152 002e DBB2     		uxtb	r3, r3
 153 0030 1B02     		lsls	r3, r3, #8
 154 0032 99B2     		uxth	r1, r3
 155 0034 7A69     		ldr	r2, [r7, #20]
 156 0036 1346     		mov	r3, r2
 157 0038 5B00     		lsls	r3, r3, #1
 158 003a 1344     		add	r3, r3, r2
 159 003c 3A69     		ldr	r2, [r7, #16]
 160 003e 1344     		add	r3, r3, r2
 161 0040 1B78     		ldrb	r3, [r3]
 162 0042 DBB2     		uxtb	r3, r3
 163 0044 0A46     		mov	r2, r1	@ movhi
 164 0046 1343     		orrs	r3, r3, r2
 165 0048 99B2     		uxth	r1, r3
 166 004a 374B     		ldr	r3, .L16+4
 167 004c 7A69     		ldr	r2, [r7, #20]
ARM GAS  C:\Users\plod1602\AppData\Local\Temp\cckpLv0Q.s 			page 5


 168 004e 23F81210 		strh	r1, [r3, r2, lsl #1]	@ movhi
  48:.\PeltierCalibration.c ****             SM1percentageValues[i] = (int8)array1[3*i+2]; 
 169              		.loc 1 48 0 discriminator 2
 170 0052 7A69     		ldr	r2, [r7, #20]
 171 0054 1346     		mov	r3, r2
 172 0056 5B00     		lsls	r3, r3, #1
 173 0058 1344     		add	r3, r3, r2
 174 005a 0233     		adds	r3, r3, #2
 175 005c 3A69     		ldr	r2, [r7, #16]
 176 005e 1344     		add	r3, r3, r2
 177 0060 1B78     		ldrb	r3, [r3]
 178 0062 DAB2     		uxtb	r2, r3
 179 0064 3149     		ldr	r1, .L16+8
 180 0066 7B69     		ldr	r3, [r7, #20]
 181 0068 0B44     		add	r3, r3, r1
 182 006a 1A70     		strb	r2, [r3]
  45:.\PeltierCalibration.c ****         for(i = 0; i<CALIBRATION_TABLE_SIZE; i++)
 183              		.loc 1 45 0 discriminator 2
 184 006c 7B69     		ldr	r3, [r7, #20]
 185 006e 0133     		adds	r3, r3, #1
 186 0070 7B61     		str	r3, [r7, #20]
 187              	.L9:
  45:.\PeltierCalibration.c ****         for(i = 0; i<CALIBRATION_TABLE_SIZE; i++)
 188              		.loc 1 45 0 is_stmt 0 discriminator 1
 189 0072 7B69     		ldr	r3, [r7, #20]
 190 0074 632B     		cmp	r3, #99
 191 0076 D2DD     		ble	.L10
 192              	.LBE2:
 193 0078 35E0     		b	.L11
 194              	.L8:
  49:.\PeltierCalibration.c ****         }
  50:.\PeltierCalibration.c ****     }
  51:.\PeltierCalibration.c ****     else if (TACPtr->subModuleId == SubModule2_ID)
 195              		.loc 1 51 0 is_stmt 1
 196 007a 7B68     		ldr	r3, [r7, #4]
 197 007c 1B88     		ldrh	r3, [r3]
 198 007e 022B     		cmp	r3, #2
 199 0080 31D1     		bne	.L11
 200              	.LBB3:
  52:.\PeltierCalibration.c ****     {
  53:.\PeltierCalibration.c ****         volatile const uint8* array1 = (volatile uint8 *) &SM2eepromArray[0]; // array1 devrait poi
 201              		.loc 1 53 0
 202 0082 2B4B     		ldr	r3, .L16+12
 203 0084 FB60     		str	r3, [r7, #12]
  54:.\PeltierCalibration.c ****         for(i = 0; i<CALIBRATION_TABLE_SIZE; i++)
 204              		.loc 1 54 0
 205 0086 0023     		movs	r3, #0
 206 0088 7B61     		str	r3, [r7, #20]
 207 008a 29E0     		b	.L12
 208              	.L13:
  55:.\PeltierCalibration.c ****         {
  56:.\PeltierCalibration.c ****             SM2calibrationValues[i] = (int16)((array1[(3*i)+1] << 8) | array1[(3*i)]);
 209              		.loc 1 56 0 discriminator 2
 210 008c 7A69     		ldr	r2, [r7, #20]
 211 008e 1346     		mov	r3, r2
 212 0090 5B00     		lsls	r3, r3, #1
 213 0092 1344     		add	r3, r3, r2
ARM GAS  C:\Users\plod1602\AppData\Local\Temp\cckpLv0Q.s 			page 6


 214 0094 0133     		adds	r3, r3, #1
 215 0096 FA68     		ldr	r2, [r7, #12]
 216 0098 1344     		add	r3, r3, r2
 217 009a 1B78     		ldrb	r3, [r3]
 218 009c DBB2     		uxtb	r3, r3
 219 009e 1B02     		lsls	r3, r3, #8
 220 00a0 99B2     		uxth	r1, r3
 221 00a2 7A69     		ldr	r2, [r7, #20]
 222 00a4 1346     		mov	r3, r2
 223 00a6 5B00     		lsls	r3, r3, #1
 224 00a8 1344     		add	r3, r3, r2
 225 00aa FA68     		ldr	r2, [r7, #12]
 226 00ac 1344     		add	r3, r3, r2
 227 00ae 1B78     		ldrb	r3, [r3]
 228 00b0 DBB2     		uxtb	r3, r3
 229 00b2 0A46     		mov	r2, r1	@ movhi
 230 00b4 1343     		orrs	r3, r3, r2
 231 00b6 99B2     		uxth	r1, r3
 232 00b8 1E4B     		ldr	r3, .L16+16
 233 00ba 7A69     		ldr	r2, [r7, #20]
 234 00bc 23F81210 		strh	r1, [r3, r2, lsl #1]	@ movhi
  57:.\PeltierCalibration.c ****             SM2percentageValues[i] = (int8)array1[3*i+2]; 
 235              		.loc 1 57 0 discriminator 2
 236 00c0 7A69     		ldr	r2, [r7, #20]
 237 00c2 1346     		mov	r3, r2
 238 00c4 5B00     		lsls	r3, r3, #1
 239 00c6 1344     		add	r3, r3, r2
 240 00c8 0233     		adds	r3, r3, #2
 241 00ca FA68     		ldr	r2, [r7, #12]
 242 00cc 1344     		add	r3, r3, r2
 243 00ce 1B78     		ldrb	r3, [r3]
 244 00d0 DAB2     		uxtb	r2, r3
 245 00d2 1949     		ldr	r1, .L16+20
 246 00d4 7B69     		ldr	r3, [r7, #20]
 247 00d6 0B44     		add	r3, r3, r1
 248 00d8 1A70     		strb	r2, [r3]
  54:.\PeltierCalibration.c ****         for(i = 0; i<CALIBRATION_TABLE_SIZE; i++)
 249              		.loc 1 54 0 discriminator 2
 250 00da 7B69     		ldr	r3, [r7, #20]
 251 00dc 0133     		adds	r3, r3, #1
 252 00de 7B61     		str	r3, [r7, #20]
 253              	.L12:
  54:.\PeltierCalibration.c ****         for(i = 0; i<CALIBRATION_TABLE_SIZE; i++)
 254              		.loc 1 54 0 is_stmt 0 discriminator 1
 255 00e0 7B69     		ldr	r3, [r7, #20]
 256 00e2 632B     		cmp	r3, #99
 257 00e4 D2DD     		ble	.L13
 258              	.L11:
 259              	.LBE3:
  58:.\PeltierCalibration.c ****         }   
  59:.\PeltierCalibration.c ****     }  
  60:.\PeltierCalibration.c ****     // If the two first values from the EEPROM are null, the calibration was never done.
  61:.\PeltierCalibration.c ****     if ((TACPtr->calibrationValuesPtr[0] == 0) && (TACPtr->calibrationValuesPtr[1] == 0) && (TACPtr
 260              		.loc 1 61 0 is_stmt 1
 261 00e6 7B68     		ldr	r3, [r7, #4]
 262 00e8 9B69     		ldr	r3, [r3, #24]
 263 00ea 1B88     		ldrh	r3, [r3]
ARM GAS  C:\Users\plod1602\AppData\Local\Temp\cckpLv0Q.s 			page 7


 264 00ec 002B     		cmp	r3, #0
 265 00ee 0DD1     		bne	.L14
 266              		.loc 1 61 0 is_stmt 0 discriminator 1
 267 00f0 7B68     		ldr	r3, [r7, #4]
 268 00f2 9B69     		ldr	r3, [r3, #24]
 269 00f4 0233     		adds	r3, r3, #2
 270 00f6 1B88     		ldrh	r3, [r3]
 271 00f8 002B     		cmp	r3, #0
 272 00fa 07D1     		bne	.L14
 273 00fc 7B68     		ldr	r3, [r7, #4]
 274 00fe 9B69     		ldr	r3, [r3, #24]
 275 0100 0433     		adds	r3, r3, #4
 276 0102 1B88     		ldrh	r3, [r3]
 277 0104 002B     		cmp	r3, #0
 278 0106 01D1     		bne	.L14
  62:.\PeltierCalibration.c ****     {
  63:.\PeltierCalibration.c ****         return 0;
 279              		.loc 1 63 0 is_stmt 1
 280 0108 0023     		movs	r3, #0
 281 010a 04E0     		b	.L15
 282              	.L14:
  64:.\PeltierCalibration.c ****     }
  65:.\PeltierCalibration.c ****     else
  66:.\PeltierCalibration.c ****     {
  67:.\PeltierCalibration.c ****         TACPtr->areCalibrationValuesRetrieved = True;
 283              		.loc 1 67 0
 284 010c 7B68     		ldr	r3, [r7, #4]
 285 010e 0122     		movs	r2, #1
 286 0110 83F82020 		strb	r2, [r3, #32]
  68:.\PeltierCalibration.c ****         return 1;
 287              		.loc 1 68 0
 288 0114 0123     		movs	r3, #1
 289              	.L15:
  69:.\PeltierCalibration.c ****     }
  70:.\PeltierCalibration.c ****     /*
  71:.\PeltierCalibration.c ****     volatile const uint8* array1 = (volatile uint8 *) &eepromArray[0]; // array1 devrait pointer ve
  72:.\PeltierCalibration.c ****    
  73:.\PeltierCalibration.c ****     int i=0;
  74:.\PeltierCalibration.c ****     for(i = 0; i<CALIBRATION_TABLE_SIZE; i++)
  75:.\PeltierCalibration.c ****     {       
  76:.\PeltierCalibration.c ****         SM1calibrationValues[i] = (int)(array1[(5*i)+3] << 24) | (array1[(5*i)+2] << 16) | (array1[
  77:.\PeltierCalibration.c ****         SM1percentageValues[i] = (int8)array1[5*i+4];
  78:.\PeltierCalibration.c ****     }
  79:.\PeltierCalibration.c ****     
  80:.\PeltierCalibration.c ****     // If the two first values from the EEPROM are null, the calibration was never done.
  81:.\PeltierCalibration.c ****     if ((SM1calibrationValues[0] == 0) & (SM1calibrationValues[1] == 0))
  82:.\PeltierCalibration.c ****         return 0;
  83:.\PeltierCalibration.c ****     else
  84:.\PeltierCalibration.c ****         return 1;  
  85:.\PeltierCalibration.c ****     */
  86:.\PeltierCalibration.c **** }
 290              		.loc 1 86 0
 291 0116 1846     		mov	r0, r3
 292 0118 1C37     		adds	r7, r7, #28
 293 011a BD46     		mov	sp, r7
 294              		@ sp needed
 295 011c 5DF8047B 		ldr	r7, [sp], #4
ARM GAS  C:\Users\plod1602\AppData\Local\Temp\cckpLv0Q.s 			page 8


 296 0120 7047     		bx	lr
 297              	.L17:
 298 0122 00BF     		.align	2
 299              	.L16:
 300 0124 F4010000 		.word	SM1eepromArray
 301 0128 00000000 		.word	SM1calibrationValues
 302 012c 00000000 		.word	SM1percentageValues
 303 0130 20030000 		.word	SM2eepromArray
 304 0134 00000000 		.word	SM2calibrationValues
 305 0138 00000000 		.word	SM2percentageValues
 306              		.cfi_endproc
 307              	.LFE57:
 308              		.size	getCalibrationTable, .-getCalibrationTable
 309              		.section	.text.setCalibrationTable,"ax",%progbits
 310              		.align	2
 311              		.global	setCalibrationTable
 312              		.thumb
 313              		.thumb_func
 314              		.type	setCalibrationTable, %function
 315              	setCalibrationTable:
 316              	.LFB58:
  87:.\PeltierCalibration.c **** //* Used to set calibration table from EEPROM */
  88:.\PeltierCalibration.c **** void setCalibrationTable(Tac_Submodule* TACPtr)
  89:.\PeltierCalibration.c **** {    
 317              		.loc 1 89 0
 318              		.cfi_startproc
 319              		@ args = 0, pretend = 0, frame = 320
 320              		@ frame_needed = 1, uses_anonymous_args = 0
 321 0000 80B5     		push	{r7, lr}
 322              		.cfi_def_cfa_offset 8
 323              		.cfi_offset 7, -8
 324              		.cfi_offset 14, -4
 325 0002 D0B0     		sub	sp, sp, #320
 326              		.cfi_def_cfa_offset 328
 327 0004 00AF     		add	r7, sp, #0
 328              		.cfi_def_cfa_register 7
 329 0006 3B1D     		adds	r3, r7, #4
 330 0008 1860     		str	r0, [r3]
  90:.\PeltierCalibration.c ****     int i = 0;
 331              		.loc 1 90 0
 332 000a 0023     		movs	r3, #0
 333 000c C7F83C31 		str	r3, [r7, #316]
  91:.\PeltierCalibration.c ****     uint8_t *array1;
  92:.\PeltierCalibration.c ****     
  93:.\PeltierCalibration.c ****     uint8 tempTemperatureAndPercentageArray[3*CALIBRATION_TABLE_SIZE] = {0}; // 4 bytes of temperat
 334              		.loc 1 93 0
 335 0010 07F10C03 		add	r3, r7, #12
 336 0014 1A46     		mov	r2, r3
 337 0016 4FF49673 		mov	r3, #300
 338 001a 1046     		mov	r0, r2
 339 001c 0021     		movs	r1, #0
 340 001e 1A46     		mov	r2, r3
 341 0020 FFF7FEFF 		bl	memset
  94:.\PeltierCalibration.c ****     
  95:.\PeltierCalibration.c ****     if (TACPtr->subModuleId == SubModule1_ID)
 342              		.loc 1 95 0
 343 0024 3B1D     		adds	r3, r7, #4
ARM GAS  C:\Users\plod1602\AppData\Local\Temp\cckpLv0Q.s 			page 9


 344 0026 1B68     		ldr	r3, [r3]
 345 0028 1B88     		ldrh	r3, [r3]
 346 002a 012B     		cmp	r3, #1
 347 002c 44D1     		bne	.L19
  96:.\PeltierCalibration.c ****     {
  97:.\PeltierCalibration.c ****         for(i=0; i<CALIBRATION_TABLE_SIZE; i++)
 348              		.loc 1 97 0
 349 002e 0023     		movs	r3, #0
 350 0030 C7F83C31 		str	r3, [r7, #316]
 351 0034 30E0     		b	.L20
 352              	.L21:
  98:.\PeltierCalibration.c ****         {
  99:.\PeltierCalibration.c ****             array1 = (uint8_t*)(&SM1calibrationValues[i]);
 353              		.loc 1 99 0 discriminator 2
 354 0036 D7F83C31 		ldr	r3, [r7, #316]
 355 003a 5A00     		lsls	r2, r3, #1
 356 003c 454B     		ldr	r3, .L25
 357 003e 1344     		add	r3, r3, r2
 358 0040 C7F83831 		str	r3, [r7, #312]
 100:.\PeltierCalibration.c ****             tempTemperatureAndPercentageArray[3*i] = array1[0];     // LSB
 359              		.loc 1 100 0 discriminator 2
 360 0044 D7F83C21 		ldr	r2, [r7, #316]
 361 0048 1346     		mov	r3, r2
 362 004a 5B00     		lsls	r3, r3, #1
 363 004c 1344     		add	r3, r3, r2
 364 004e D7F83821 		ldr	r2, [r7, #312]
 365 0052 1178     		ldrb	r1, [r2]	@ zero_extendqisi2
 366 0054 07F10C02 		add	r2, r7, #12
 367 0058 D154     		strb	r1, [r2, r3]
 101:.\PeltierCalibration.c ****             tempTemperatureAndPercentageArray[(3*i)+1] = array1[1]; // MSB
 368              		.loc 1 101 0 discriminator 2
 369 005a D7F83C21 		ldr	r2, [r7, #316]
 370 005e 1346     		mov	r3, r2
 371 0060 5B00     		lsls	r3, r3, #1
 372 0062 1344     		add	r3, r3, r2
 373 0064 0133     		adds	r3, r3, #1
 374 0066 D7F83821 		ldr	r2, [r7, #312]
 375 006a 5178     		ldrb	r1, [r2, #1]	@ zero_extendqisi2
 376 006c 07F10C02 		add	r2, r7, #12
 377 0070 D154     		strb	r1, [r2, r3]
 102:.\PeltierCalibration.c ****             tempTemperatureAndPercentageArray[(3*i)+2] = (uint8)SM1percentageValues[i]; // Storing 
 378              		.loc 1 102 0 discriminator 2
 379 0072 D7F83C21 		ldr	r2, [r7, #316]
 380 0076 1346     		mov	r3, r2
 381 0078 5B00     		lsls	r3, r3, #1
 382 007a 1344     		add	r3, r3, r2
 383 007c 0233     		adds	r3, r3, #2
 384 007e 3649     		ldr	r1, .L25+4
 385 0080 D7F83C21 		ldr	r2, [r7, #316]
 386 0084 0A44     		add	r2, r2, r1
 387 0086 1178     		ldrb	r1, [r2]	@ zero_extendqisi2
 388 0088 07F10C02 		add	r2, r7, #12
 389 008c D154     		strb	r1, [r2, r3]
  97:.\PeltierCalibration.c ****         for(i=0; i<CALIBRATION_TABLE_SIZE; i++)
 390              		.loc 1 97 0 discriminator 2
 391 008e D7F83C31 		ldr	r3, [r7, #316]
 392 0092 0133     		adds	r3, r3, #1
ARM GAS  C:\Users\plod1602\AppData\Local\Temp\cckpLv0Q.s 			page 10


 393 0094 C7F83C31 		str	r3, [r7, #316]
 394              	.L20:
  97:.\PeltierCalibration.c ****         for(i=0; i<CALIBRATION_TABLE_SIZE; i++)
 395              		.loc 1 97 0 is_stmt 0 discriminator 1
 396 0098 D7F83C31 		ldr	r3, [r7, #316]
 397 009c 632B     		cmp	r3, #99
 398 009e CADD     		ble	.L21
 103:.\PeltierCalibration.c ****         }
 104:.\PeltierCalibration.c ****         eepromStatus = Em_EEPROM_Write(&tempTemperatureAndPercentageArray[0], &SM1eepromArray[0], 3
 399              		.loc 1 104 0 is_stmt 1
 400 00a0 07F10C03 		add	r3, r7, #12
 401 00a4 1846     		mov	r0, r3
 402 00a6 2D49     		ldr	r1, .L25+8
 403 00a8 4FF49672 		mov	r2, #300
 404 00ac FFF7FEFF 		bl	Em_EEPROM_Write
 405 00b0 0246     		mov	r2, r0
 406 00b2 2B4B     		ldr	r3, .L25+12
 407 00b4 1A60     		str	r2, [r3]
 408 00b6 48E0     		b	.L18
 409              	.L19:
 105:.\PeltierCalibration.c ****     }
 106:.\PeltierCalibration.c ****     else if (TACPtr->subModuleId == SubModule2_ID)
 410              		.loc 1 106 0
 411 00b8 3B1D     		adds	r3, r7, #4
 412 00ba 1B68     		ldr	r3, [r3]
 413 00bc 1B88     		ldrh	r3, [r3]
 414 00be 022B     		cmp	r3, #2
 415 00c0 43D1     		bne	.L18
 107:.\PeltierCalibration.c ****     {
 108:.\PeltierCalibration.c ****         for(i=0; i<CALIBRATION_TABLE_SIZE; i++)
 416              		.loc 1 108 0
 417 00c2 0023     		movs	r3, #0
 418 00c4 C7F83C31 		str	r3, [r7, #316]
 419 00c8 30E0     		b	.L23
 420              	.L24:
 109:.\PeltierCalibration.c ****         {
 110:.\PeltierCalibration.c ****             array1 = (uint8_t*)(&SM2calibrationValues[i]);
 421              		.loc 1 110 0 discriminator 2
 422 00ca D7F83C31 		ldr	r3, [r7, #316]
 423 00ce 5A00     		lsls	r2, r3, #1
 424 00d0 244B     		ldr	r3, .L25+16
 425 00d2 1344     		add	r3, r3, r2
 426 00d4 C7F83831 		str	r3, [r7, #312]
 111:.\PeltierCalibration.c ****             tempTemperatureAndPercentageArray[3*i] = array1[0];     // LSB
 427              		.loc 1 111 0 discriminator 2
 428 00d8 D7F83C21 		ldr	r2, [r7, #316]
 429 00dc 1346     		mov	r3, r2
 430 00de 5B00     		lsls	r3, r3, #1
 431 00e0 1344     		add	r3, r3, r2
 432 00e2 D7F83821 		ldr	r2, [r7, #312]
 433 00e6 1178     		ldrb	r1, [r2]	@ zero_extendqisi2
 434 00e8 07F10C02 		add	r2, r7, #12
 435 00ec D154     		strb	r1, [r2, r3]
 112:.\PeltierCalibration.c ****             tempTemperatureAndPercentageArray[(3*i)+1] = array1[1]; // MSB
 436              		.loc 1 112 0 discriminator 2
 437 00ee D7F83C21 		ldr	r2, [r7, #316]
 438 00f2 1346     		mov	r3, r2
ARM GAS  C:\Users\plod1602\AppData\Local\Temp\cckpLv0Q.s 			page 11


 439 00f4 5B00     		lsls	r3, r3, #1
 440 00f6 1344     		add	r3, r3, r2
 441 00f8 0133     		adds	r3, r3, #1
 442 00fa D7F83821 		ldr	r2, [r7, #312]
 443 00fe 5178     		ldrb	r1, [r2, #1]	@ zero_extendqisi2
 444 0100 07F10C02 		add	r2, r7, #12
 445 0104 D154     		strb	r1, [r2, r3]
 113:.\PeltierCalibration.c ****             tempTemperatureAndPercentageArray[(3*i)+2] = (uint8)SM1percentageValues[i]; // Storing 
 446              		.loc 1 113 0 discriminator 2
 447 0106 D7F83C21 		ldr	r2, [r7, #316]
 448 010a 1346     		mov	r3, r2
 449 010c 5B00     		lsls	r3, r3, #1
 450 010e 1344     		add	r3, r3, r2
 451 0110 0233     		adds	r3, r3, #2
 452 0112 1149     		ldr	r1, .L25+4
 453 0114 D7F83C21 		ldr	r2, [r7, #316]
 454 0118 0A44     		add	r2, r2, r1
 455 011a 1178     		ldrb	r1, [r2]	@ zero_extendqisi2
 456 011c 07F10C02 		add	r2, r7, #12
 457 0120 D154     		strb	r1, [r2, r3]
 108:.\PeltierCalibration.c ****         for(i=0; i<CALIBRATION_TABLE_SIZE; i++)
 458              		.loc 1 108 0 discriminator 2
 459 0122 D7F83C31 		ldr	r3, [r7, #316]
 460 0126 0133     		adds	r3, r3, #1
 461 0128 C7F83C31 		str	r3, [r7, #316]
 462              	.L23:
 108:.\PeltierCalibration.c ****         for(i=0; i<CALIBRATION_TABLE_SIZE; i++)
 463              		.loc 1 108 0 is_stmt 0 discriminator 1
 464 012c D7F83C31 		ldr	r3, [r7, #316]
 465 0130 632B     		cmp	r3, #99
 466 0132 CADD     		ble	.L24
 114:.\PeltierCalibration.c ****         } 
 115:.\PeltierCalibration.c ****         eepromStatus = Em_EEPROM_Write(&tempTemperatureAndPercentageArray[0], &SM2eepromArray[0], 3
 467              		.loc 1 115 0 is_stmt 1
 468 0134 07F10C03 		add	r3, r7, #12
 469 0138 1846     		mov	r0, r3
 470 013a 0B49     		ldr	r1, .L25+20
 471 013c 4FF49672 		mov	r2, #300
 472 0140 FFF7FEFF 		bl	Em_EEPROM_Write
 473 0144 0246     		mov	r2, r0
 474 0146 064B     		ldr	r3, .L25+12
 475 0148 1A60     		str	r2, [r3]
 476              	.L18:
 116:.\PeltierCalibration.c ****     }
 117:.\PeltierCalibration.c ****    
 118:.\PeltierCalibration.c ****     /*
 119:.\PeltierCalibration.c ****     int i = 0;
 120:.\PeltierCalibration.c ****     uint8_t *array1;
 121:.\PeltierCalibration.c ****     
 122:.\PeltierCalibration.c ****     uint8 tempTemperatureAndPercentageArray[5*CALIBRATION_TABLE_SIZE] = {0}; // 4 bytes of temperat
 123:.\PeltierCalibration.c ****     
 124:.\PeltierCalibration.c ****     for(i=0; i<CALIBRATION_TABLE_SIZE; i++)
 125:.\PeltierCalibration.c ****     {
 126:.\PeltierCalibration.c ****         array1 = (uint8_t*)(&SM1calibrationValues[i]);
 127:.\PeltierCalibration.c ****         tempTemperatureAndPercentageArray[5*i] = array1[0];     // LSB
 128:.\PeltierCalibration.c ****         tempTemperatureAndPercentageArray[(5*i)+1] = array1[1]; 
 129:.\PeltierCalibration.c ****         tempTemperatureAndPercentageArray[(5*i)+2] = array1[2];
ARM GAS  C:\Users\plod1602\AppData\Local\Temp\cckpLv0Q.s 			page 12


 130:.\PeltierCalibration.c ****         tempTemperatureAndPercentageArray[(5*i)+3] = array1[3]; // MSB
 131:.\PeltierCalibration.c ****         tempTemperatureAndPercentageArray[(5*i)+4] = (uint8)SM1percentageValues[i]; // Storing a by
 132:.\PeltierCalibration.c ****     }	
 133:.\PeltierCalibration.c **** 	eepromStatus = Em_EEPROM_Write(&tempTemperatureAndPercentageArray[0], &eepromArray[0], 5*CALIBRATI
 134:.\PeltierCalibration.c ****     */
 135:.\PeltierCalibration.c **** }
 477              		.loc 1 135 0
 478 014a 07F5A077 		add	r7, r7, #320
 479 014e BD46     		mov	sp, r7
 480              		@ sp needed
 481 0150 80BD     		pop	{r7, pc}
 482              	.L26:
 483 0152 00BF     		.align	2
 484              	.L25:
 485 0154 00000000 		.word	SM1calibrationValues
 486 0158 00000000 		.word	SM1percentageValues
 487 015c F4010000 		.word	SM1eepromArray
 488 0160 00000000 		.word	eepromStatus
 489 0164 00000000 		.word	SM2calibrationValues
 490 0168 20030000 		.word	SM2eepromArray
 491              		.cfi_endproc
 492              	.LFE58:
 493              		.size	setCalibrationTable, .-setCalibrationTable
 494              		.section	.text.calibration,"ax",%progbits
 495              		.align	2
 496              		.global	calibration
 497              		.thumb
 498              		.thumb_func
 499              		.type	calibration, %function
 500              	calibration:
 501              	.LFB59:
 136:.\PeltierCalibration.c **** 
 137:.\PeltierCalibration.c **** // Calibration is done on one submodule at a time.
 138:.\PeltierCalibration.c **** uint8 calibration(int maxTempTarget, uint8 moduleNumber)
 139:.\PeltierCalibration.c **** {
 502              		.loc 1 139 0
 503              		.cfi_startproc
 504              		@ args = 0, pretend = 0, frame = 88
 505              		@ frame_needed = 1, uses_anonymous_args = 0
 506 0000 90B5     		push	{r4, r7, lr}
 507              		.cfi_def_cfa_offset 12
 508              		.cfi_offset 4, -12
 509              		.cfi_offset 7, -8
 510              		.cfi_offset 14, -4
 511 0002 97B0     		sub	sp, sp, #92
 512              		.cfi_def_cfa_offset 104
 513 0004 00AF     		add	r7, sp, #0
 514              		.cfi_def_cfa_register 7
 515 0006 7860     		str	r0, [r7, #4]
 516 0008 0B46     		mov	r3, r1
 517 000a FB70     		strb	r3, [r7, #3]
 140:.\PeltierCalibration.c ****     if (moduleNumber==SubModule1_ID || moduleNumber==SubModule2_ID)
 518              		.loc 1 140 0
 519 000c FB78     		ldrb	r3, [r7, #3]	@ zero_extendqisi2
 520 000e 012B     		cmp	r3, #1
 521 0010 03D0     		beq	.L28
 522              		.loc 1 140 0 is_stmt 0 discriminator 1
ARM GAS  C:\Users\plod1602\AppData\Local\Temp\cckpLv0Q.s 			page 13


 523 0012 FB78     		ldrb	r3, [r7, #3]	@ zero_extendqisi2
 524 0014 022B     		cmp	r3, #2
 525 0016 40F0D581 		bne	.L29
 526              	.L28:
 527              	.LBB4:
 141:.\PeltierCalibration.c ****     {
 142:.\PeltierCalibration.c ****         // Set the desired fan to 100% speed
 143:.\PeltierCalibration.c ****         changeFanSpeed(100,moduleNumber);
 528              		.loc 1 143 0 is_stmt 1
 529 001a FB78     		ldrb	r3, [r7, #3]	@ zero_extendqisi2
 530 001c 6420     		movs	r0, #100
 531 001e 1946     		mov	r1, r3
 532 0020 FFF7FEFF 		bl	changeFanSpeed
 144:.\PeltierCalibration.c ****         int32 calibrationPointer = 0;
 533              		.loc 1 144 0
 534 0024 0023     		movs	r3, #0
 535 0026 7B65     		str	r3, [r7, #84]
 145:.\PeltierCalibration.c ****         
 146:.\PeltierCalibration.c ****     	/* Temperature value in 100ths of degree C */
 147:.\PeltierCalibration.c ****     	//int32 tempSum=0; 
 148:.\PeltierCalibration.c ****         int16 iTemp = 0;
 536              		.loc 1 148 0
 537 0028 0023     		movs	r3, #0
 538 002a A7F85230 		strh	r3, [r7, #82]	@ movhi
 149:.\PeltierCalibration.c ****         int16 pastTemp[20] = {0};
 539              		.loc 1 149 0
 540 002e 07F10C03 		add	r3, r7, #12
 541 0032 0022     		movs	r2, #0
 542 0034 1A60     		str	r2, [r3]
 543 0036 0433     		adds	r3, r3, #4
 544 0038 0022     		movs	r2, #0
 545 003a 1A60     		str	r2, [r3]
 546 003c 0433     		adds	r3, r3, #4
 547 003e 0022     		movs	r2, #0
 548 0040 1A60     		str	r2, [r3]
 549 0042 0433     		adds	r3, r3, #4
 550 0044 0022     		movs	r2, #0
 551 0046 1A60     		str	r2, [r3]
 552 0048 0433     		adds	r3, r3, #4
 553 004a 0022     		movs	r2, #0
 554 004c 1A60     		str	r2, [r3]
 555 004e 0433     		adds	r3, r3, #4
 556 0050 0022     		movs	r2, #0
 557 0052 1A60     		str	r2, [r3]
 558 0054 0433     		adds	r3, r3, #4
 559 0056 0022     		movs	r2, #0
 560 0058 1A60     		str	r2, [r3]
 561 005a 0433     		adds	r3, r3, #4
 562 005c 0022     		movs	r2, #0
 563 005e 1A60     		str	r2, [r3]
 564 0060 0433     		adds	r3, r3, #4
 565 0062 0022     		movs	r2, #0
 566 0064 1A60     		str	r2, [r3]
 567 0066 0433     		adds	r3, r3, #4
 568 0068 0022     		movs	r2, #0
 569 006a 1A60     		str	r2, [r3]
 570 006c 0433     		adds	r3, r3, #4
ARM GAS  C:\Users\plod1602\AppData\Local\Temp\cckpLv0Q.s 			page 14


 150:.\PeltierCalibration.c ****         
 151:.\PeltierCalibration.c ****         // Paramètrage     
 152:.\PeltierCalibration.c ****         int maxPWMPulse; // Longueur de notre PWM
 153:.\PeltierCalibration.c ****         
 154:.\PeltierCalibration.c ****         if (moduleNumber == SubModule1_ID)
 571              		.loc 1 154 0
 572 006e FB78     		ldrb	r3, [r7, #3]	@ zero_extendqisi2
 573 0070 012B     		cmp	r3, #1
 574 0072 04D1     		bne	.L30
 155:.\PeltierCalibration.c ****         {
 156:.\PeltierCalibration.c ****             maxPWMPulse = Peltier1_PWM_Ctrl_ReadPeriod();               
 575              		.loc 1 156 0
 576 0074 FFF7FEFF 		bl	Peltier1_PWM_Ctrl_ReadPeriod
 577 0078 0346     		mov	r3, r0
 578 007a FB64     		str	r3, [r7, #76]
 579 007c 06E0     		b	.L31
 580              	.L30:
 157:.\PeltierCalibration.c ****         }
 158:.\PeltierCalibration.c ****         else if(moduleNumber == SubModule2_ID)
 581              		.loc 1 158 0
 582 007e FB78     		ldrb	r3, [r7, #3]	@ zero_extendqisi2
 583 0080 022B     		cmp	r3, #2
 584 0082 03D1     		bne	.L31
 159:.\PeltierCalibration.c ****         {
 160:.\PeltierCalibration.c ****             maxPWMPulse = Peltier2_PWM_Ctrl_ReadPeriod();
 585              		.loc 1 160 0
 586 0084 FFF7FEFF 		bl	Peltier2_PWM_Ctrl_ReadPeriod
 587 0088 0346     		mov	r3, r0
 588 008a FB64     		str	r3, [r7, #76]
 589              	.L31:
 161:.\PeltierCalibration.c ****         } 
 162:.\PeltierCalibration.c ****         
 163:.\PeltierCalibration.c ****         int8 pwmDCStartValue = (int8)PELTIER_PWM_START_VALUE;   // Value in % representing the star
 590              		.loc 1 163 0
 591 008c EC23     		movs	r3, #236
 592 008e 87F83930 		strb	r3, [r7, #57]
 164:.\PeltierCalibration.c ****         int8 pwmDCEndValue = (int8)PELTIER_PWM_END_VALUE;      // Value in % of PWM end duty cycle 
 593              		.loc 1 164 0
 594 0092 5023     		movs	r3, #80
 595 0094 87F83830 		strb	r3, [r7, #56]
 165:.\PeltierCalibration.c ****     	int pwmPercentageIncrement = (int)PELTIER_PWM_INCREMENT_VALUE; // Precision in % required betw
 596              		.loc 1 165 0
 597 0098 0523     		movs	r3, #5
 598 009a 7B63     		str	r3, [r7, #52]
 166:.\PeltierCalibration.c ****       
 167:.\PeltierCalibration.c ****         int pwmPercentageBeeingSent = pwmDCStartValue;							  
 599              		.loc 1 167 0
 600 009c 97F93930 		ldrsb	r3, [r7, #57]
 601 00a0 BB64     		str	r3, [r7, #72]
 168:.\PeltierCalibration.c ****     	// Calcul du pwmStart et du pwmFin	
 169:.\PeltierCalibration.c ****         //double pwmIncrement = (double)(maxPWMPulse*precision)/100; // Calcul de la longueur PWM p
 170:.\PeltierCalibration.c ****         int pwmWriteCompareValue = pwmDCStartValue*maxPWMPulse/100; // Calcul de la longueur PWM co
 602              		.loc 1 170 0
 603 00a2 97F93930 		ldrsb	r3, [r7, #57]
 604 00a6 FA6C     		ldr	r2, [r7, #76]
 605 00a8 02FB03F3 		mul	r3, r2, r3
 606 00ac 684A     		ldr	r2, .L56
ARM GAS  C:\Users\plod1602\AppData\Local\Temp\cckpLv0Q.s 			page 15


 607 00ae 82FB0302 		smull	r0, r2, r2, r3
 608 00b2 5211     		asrs	r2, r2, #5
 609 00b4 DB17     		asrs	r3, r3, #31
 610 00b6 D31A     		subs	r3, r2, r3
 611 00b8 7B64     		str	r3, [r7, #68]
 171:.\PeltierCalibration.c ****         
 172:.\PeltierCalibration.c ****         int32 deltaValue = 0;
 612              		.loc 1 172 0
 613 00ba 0023     		movs	r3, #0
 614 00bc 3B64     		str	r3, [r7, #64]
 173:.\PeltierCalibration.c ****         int16 tempIndex = 0;
 615              		.loc 1 173 0
 616 00be 0023     		movs	r3, #0
 617 00c0 FB87     		strh	r3, [r7, #62]	@ movhi
 174:.\PeltierCalibration.c ****         int16 tempMean = 0;
 618              		.loc 1 174 0
 619 00c2 0023     		movs	r3, #0
 620 00c4 BB87     		strh	r3, [r7, #60]	@ movhi
 175:.\PeltierCalibration.c ****      
 176:.\PeltierCalibration.c ****         int8 tolerance_hit = 0; // Ajout Kevin
 621              		.loc 1 176 0
 622 00c6 0023     		movs	r3, #0
 623 00c8 87F83B30 		strb	r3, [r7, #59]
 177:.\PeltierCalibration.c ****         
 178:.\PeltierCalibration.c ****         //init the pastTemp array with a mean temperature over 20 seconds.
 179:.\PeltierCalibration.c ****         for(tempIndex = 0; tempIndex < 20; tempIndex++)
 624              		.loc 1 179 0
 625 00cc 0023     		movs	r3, #0
 626 00ce FB87     		strh	r3, [r7, #62]	@ movhi
 627 00d0 3BE0     		b	.L32
 628              	.L35:
 180:.\PeltierCalibration.c ****         {
 181:.\PeltierCalibration.c ****             if (STOP_CALIBRATION_FLAG != 0)
 629              		.loc 1 181 0
 630 00d2 604B     		ldr	r3, .L56+4
 631 00d4 1B78     		ldrb	r3, [r3]	@ zero_extendqisi2
 632 00d6 002B     		cmp	r3, #0
 633 00d8 04D0     		beq	.L33
 182:.\PeltierCalibration.c ****             {
 183:.\PeltierCalibration.c ****                 STOP_CALIBRATION_FLAG = 0;
 634              		.loc 1 183 0
 635 00da 5E4B     		ldr	r3, .L56+4
 636 00dc 0022     		movs	r2, #0
 637 00de 1A70     		strb	r2, [r3]
 184:.\PeltierCalibration.c ****                 return CALIBRATION_STOPPED;
 638              		.loc 1 184 0
 639 00e0 1323     		movs	r3, #19
 640 00e2 70E1     		b	.L55
 641              	.L33:
 185:.\PeltierCalibration.c ****             } 
 186:.\PeltierCalibration.c ****             
 187:.\PeltierCalibration.c ****             pastTemp[tempIndex] =  getThermistorTemp(1)/10;
 642              		.loc 1 187 0
 643 00e4 B7F93E40 		ldrsh	r4, [r7, #62]
 644 00e8 0120     		movs	r0, #1
 645 00ea FFF7FEFF 		bl	getThermistorTemp
 646 00ee 0346     		mov	r3, r0
ARM GAS  C:\Users\plod1602\AppData\Local\Temp\cckpLv0Q.s 			page 16


 647 00f0 594A     		ldr	r2, .L56+8
 648 00f2 82FB0312 		smull	r1, r2, r2, r3
 649 00f6 9210     		asrs	r2, r2, #2
 650 00f8 DB17     		asrs	r3, r3, #31
 651 00fa D31A     		subs	r3, r2, r3
 652 00fc 9AB2     		uxth	r2, r3
 653 00fe 6300     		lsls	r3, r4, #1
 654 0100 07F15800 		add	r0, r7, #88
 655 0104 0344     		add	r3, r3, r0
 656 0106 23F84C2C 		strh	r2, [r3, #-76]	@ movhi
 188:.\PeltierCalibration.c ****             sendDebugTemperature(pastTemp[tempIndex]);
 657              		.loc 1 188 0
 658 010a B7F93E30 		ldrsh	r3, [r7, #62]
 659 010e 5B00     		lsls	r3, r3, #1
 660 0110 07F15801 		add	r1, r7, #88
 661 0114 0B44     		add	r3, r3, r1
 662 0116 33F84C3C 		ldrh	r3, [r3, #-76]
 663 011a 1BB2     		sxth	r3, r3
 664 011c 1846     		mov	r0, r3
 665 011e FFF7FEFF 		bl	sendDebugTemperature
 189:.\PeltierCalibration.c ****             tempMean += pastTemp[tempIndex];
 666              		.loc 1 189 0
 667 0122 B7F93E30 		ldrsh	r3, [r7, #62]
 668 0126 5B00     		lsls	r3, r3, #1
 669 0128 07F15802 		add	r2, r7, #88
 670 012c 1344     		add	r3, r3, r2
 671 012e 33F84C3C 		ldrh	r3, [r3, #-76]
 672 0132 9AB2     		uxth	r2, r3
 673 0134 BB8F     		ldrh	r3, [r7, #60]
 674 0136 1344     		add	r3, r3, r2
 675 0138 9BB2     		uxth	r3, r3
 676 013a BB87     		strh	r3, [r7, #60]	@ movhi
 190:.\PeltierCalibration.c ****             
 191:.\PeltierCalibration.c ****             CyDelay(1000);
 677              		.loc 1 191 0
 678 013c 4FF47A70 		mov	r0, #1000
 679 0140 FFF7FEFF 		bl	CyDelay
 179:.\PeltierCalibration.c ****         for(tempIndex = 0; tempIndex < 20; tempIndex++)
 680              		.loc 1 179 0
 681 0144 FB8F     		ldrh	r3, [r7, #62]
 682 0146 0133     		adds	r3, r3, #1
 683 0148 FB87     		strh	r3, [r7, #62]	@ movhi
 684              	.L32:
 179:.\PeltierCalibration.c ****         for(tempIndex = 0; tempIndex < 20; tempIndex++)
 685              		.loc 1 179 0 is_stmt 0 discriminator 1
 686 014a B7F93E30 		ldrsh	r3, [r7, #62]
 687 014e 132B     		cmp	r3, #19
 688 0150 BFDD     		ble	.L35
 192:.\PeltierCalibration.c ****         }
 193:.\PeltierCalibration.c ****         tempIndex = 0;
 689              		.loc 1 193 0 is_stmt 1
 690 0152 0023     		movs	r3, #0
 691 0154 FB87     		strh	r3, [r7, #62]	@ movhi
 194:.\PeltierCalibration.c ****         tempMean = (tempMean/20)*10; // La division est faite pour ne pas depasser la limite du int
 692              		.loc 1 194 0
 693 0156 B7F93C30 		ldrsh	r3, [r7, #60]
 694 015a 3F4A     		ldr	r2, .L56+8
ARM GAS  C:\Users\plod1602\AppData\Local\Temp\cckpLv0Q.s 			page 17


 695 015c 82FB0302 		smull	r0, r2, r2, r3
 696 0160 D210     		asrs	r2, r2, #3
 697 0162 DB17     		asrs	r3, r3, #31
 698 0164 D31A     		subs	r3, r2, r3
 699 0166 9BB2     		uxth	r3, r3
 700 0168 9BB2     		uxth	r3, r3
 701 016a 1A46     		mov	r2, r3	@ movhi
 702 016c 9200     		lsls	r2, r2, #2
 703 016e 1344     		add	r3, r3, r2
 704 0170 5B00     		lsls	r3, r3, #1
 705 0172 9BB2     		uxth	r3, r3
 706 0174 BB87     		strh	r3, [r7, #60]	@ movhi
 195:.\PeltierCalibration.c **** 
 196:.\PeltierCalibration.c ****         changePeltierModuleState(peltierEnabled,moduleNumber); // Signal inH_1 and inH_2 high to en
 707              		.loc 1 196 0
 708 0176 FB78     		ldrb	r3, [r7, #3]	@ zero_extendqisi2
 709 0178 0120     		movs	r0, #1
 710 017a 1946     		mov	r1, r3
 711 017c FFF7FEFF 		bl	changePeltierModuleState
 197:.\PeltierCalibration.c ****        
 198:.\PeltierCalibration.c ****          // Partie température
 199:.\PeltierCalibration.c ****         iTemp = getThermistorTemp(moduleNumber);
 712              		.loc 1 199 0
 713 0180 FB78     		ldrb	r3, [r7, #3]	@ zero_extendqisi2
 714 0182 1846     		mov	r0, r3
 715 0184 FFF7FEFF 		bl	getThermistorTemp
 716 0188 0346     		mov	r3, r0
 717 018a A7F85230 		strh	r3, [r7, #82]	@ movhi
 200:.\PeltierCalibration.c ****         deltaValue = tempMean - iTemp;
 718              		.loc 1 200 0
 719 018e B7F93C20 		ldrsh	r2, [r7, #60]
 720 0192 B7F95230 		ldrsh	r3, [r7, #82]
 721 0196 D31A     		subs	r3, r2, r3
 722 0198 3B64     		str	r3, [r7, #64]
 201:.\PeltierCalibration.c **** 
 202:.\PeltierCalibration.c ****         //abs value
 203:.\PeltierCalibration.c ****         if(deltaValue < 0)
 723              		.loc 1 203 0
 724 019a 3B6C     		ldr	r3, [r7, #64]
 725 019c 002B     		cmp	r3, #0
 726 019e 02DA     		bge	.L36
 204:.\PeltierCalibration.c ****         {
 205:.\PeltierCalibration.c ****             deltaValue *= -1;
 727              		.loc 1 205 0
 728 01a0 3B6C     		ldr	r3, [r7, #64]
 729 01a2 5B42     		negs	r3, r3
 730 01a4 3B64     		str	r3, [r7, #64]
 731              	.L36:
 206:.\PeltierCalibration.c ****         }   
 207:.\PeltierCalibration.c ****         
 208:.\PeltierCalibration.c ****         // Setting the Peltier in cooling mode at first and creating a boolean to know when to chan
 209:.\PeltierCalibration.c ****         uint8 PeltierDirectionInversionDone = 0;
 732              		.loc 1 209 0
 733 01a6 0023     		movs	r3, #0
 734 01a8 87F83A30 		strb	r3, [r7, #58]
 210:.\PeltierCalibration.c ****         
 211:.\PeltierCalibration.c ****         if (moduleNumber == SubModule1_ID)
ARM GAS  C:\Users\plod1602\AppData\Local\Temp\cckpLv0Q.s 			page 18


 735              		.loc 1 211 0
 736 01ac FB78     		ldrb	r3, [r7, #3]	@ zero_extendqisi2
 737 01ae 012B     		cmp	r3, #1
 738 01b0 03D1     		bne	.L37
 212:.\PeltierCalibration.c ****         {
 213:.\PeltierCalibration.c ****             Peltier1_Ctrl_Write(PELTIER_COOL);                
 739              		.loc 1 213 0
 740 01b2 0120     		movs	r0, #1
 741 01b4 FFF7FEFF 		bl	Peltier1_Ctrl_Write
 742 01b8 06E0     		b	.L38
 743              	.L37:
 214:.\PeltierCalibration.c ****         }
 215:.\PeltierCalibration.c ****         else if(moduleNumber == SubModule2_ID)
 744              		.loc 1 215 0
 745 01ba FB78     		ldrb	r3, [r7, #3]	@ zero_extendqisi2
 746 01bc 022B     		cmp	r3, #2
 747 01be 03D1     		bne	.L38
 216:.\PeltierCalibration.c ****         {
 217:.\PeltierCalibration.c ****             Peltier2_Ctrl_Write(PELTIER_COOL);
 748              		.loc 1 217 0
 749 01c0 0120     		movs	r0, #1
 750 01c2 FFF7FEFF 		bl	Peltier2_Ctrl_Write
 218:.\PeltierCalibration.c ****         } 
 219:.\PeltierCalibration.c ****         
 220:.\PeltierCalibration.c ****         //TODO: Add comment here to describe loop's utility
 221:.\PeltierCalibration.c ****         while(pwmPercentageBeeingSent <= pwmDCEndValue && tempMean/100 <= maxTempTarget)
 751              		.loc 1 221 0
 752 01c6 E0E0     		b	.L39
 753              	.L38:
 754 01c8 DFE0     		b	.L39
 755              	.L54:
 222:.\PeltierCalibration.c ****         {
 223:.\PeltierCalibration.c ****             if (STOP_CALIBRATION_FLAG != 0)
 756              		.loc 1 223 0
 757 01ca 224B     		ldr	r3, .L56+4
 758 01cc 1B78     		ldrb	r3, [r3]	@ zero_extendqisi2
 759 01ce 002B     		cmp	r3, #0
 760 01d0 04D0     		beq	.L40
 224:.\PeltierCalibration.c ****             {
 225:.\PeltierCalibration.c ****                 STOP_CALIBRATION_FLAG = 0;
 761              		.loc 1 225 0
 762 01d2 204B     		ldr	r3, .L56+4
 763 01d4 0022     		movs	r2, #0
 764 01d6 1A70     		strb	r2, [r3]
 226:.\PeltierCalibration.c ****                 return CALIBRATION_STOPPED;
 765              		.loc 1 226 0
 766 01d8 1323     		movs	r3, #19
 767 01da F4E0     		b	.L55
 768              	.L40:
 227:.\PeltierCalibration.c ****             } 
 228:.\PeltierCalibration.c ****             
 229:.\PeltierCalibration.c ****             // If the pwmWriteCompareValue is negative & the Peltier direction has never been rever
 230:.\PeltierCalibration.c ****             if(pwmPercentageBeeingSent >=0 && PeltierDirectionInversionDone == 0)
 769              		.loc 1 230 0
 770 01dc BB6C     		ldr	r3, [r7, #72]
 771 01de 002B     		cmp	r3, #0
 772 01e0 13DB     		blt	.L41
ARM GAS  C:\Users\plod1602\AppData\Local\Temp\cckpLv0Q.s 			page 19


 773              		.loc 1 230 0 is_stmt 0 discriminator 1
 774 01e2 97F83A30 		ldrb	r3, [r7, #58]	@ zero_extendqisi2
 775 01e6 002B     		cmp	r3, #0
 776 01e8 0FD1     		bne	.L41
 231:.\PeltierCalibration.c ****             {
 232:.\PeltierCalibration.c ****                 // Inverser le sens du Peltier pour qu'il chauffe.
 233:.\PeltierCalibration.c ****                 if (moduleNumber == SubModule1_ID)
 777              		.loc 1 233 0 is_stmt 1
 778 01ea FB78     		ldrb	r3, [r7, #3]	@ zero_extendqisi2
 779 01ec 012B     		cmp	r3, #1
 780 01ee 03D1     		bne	.L42
 234:.\PeltierCalibration.c ****                 {
 235:.\PeltierCalibration.c ****                     Peltier1_Ctrl_Write(PELTIER_HEAT);                
 781              		.loc 1 235 0
 782 01f0 0220     		movs	r0, #2
 783 01f2 FFF7FEFF 		bl	Peltier1_Ctrl_Write
 784 01f6 05E0     		b	.L43
 785              	.L42:
 236:.\PeltierCalibration.c ****                 }
 237:.\PeltierCalibration.c ****                 else if(moduleNumber == SubModule2_ID)
 786              		.loc 1 237 0
 787 01f8 FB78     		ldrb	r3, [r7, #3]	@ zero_extendqisi2
 788 01fa 022B     		cmp	r3, #2
 789 01fc 02D1     		bne	.L43
 238:.\PeltierCalibration.c ****                 {
 239:.\PeltierCalibration.c ****                     Peltier2_Ctrl_Write(PELTIER_HEAT);
 790              		.loc 1 239 0
 791 01fe 0220     		movs	r0, #2
 792 0200 FFF7FEFF 		bl	Peltier2_Ctrl_Write
 793              	.L43:
 240:.\PeltierCalibration.c ****                 }                
 241:.\PeltierCalibration.c ****                 PeltierDirectionInversionDone = 1;            
 794              		.loc 1 241 0
 795 0204 0123     		movs	r3, #1
 796 0206 87F83A30 		strb	r3, [r7, #58]
 797              	.L41:
 242:.\PeltierCalibration.c ****             }            
 243:.\PeltierCalibration.c ****             
 244:.\PeltierCalibration.c ****             if (moduleNumber == SubModule1_ID)
 798              		.loc 1 244 0
 799 020a FB78     		ldrb	r3, [r7, #3]	@ zero_extendqisi2
 800 020c 012B     		cmp	r3, #1
 801 020e 08D1     		bne	.L44
 245:.\PeltierCalibration.c ****             {
 246:.\PeltierCalibration.c ****                 Peltier1_PWM_Ctrl_WriteCompare((pwmWriteCompareValue<0?-pwmWriteCompareValue:pwmWri
 802              		.loc 1 246 0
 803 0210 7B6C     		ldr	r3, [r7, #68]
 804 0212 002B     		cmp	r3, #0
 805 0214 B8BF     		it	lt
 806 0216 5B42     		rsblt	r3, r3, #0
 807 0218 DBB2     		uxtb	r3, r3
 808 021a 1846     		mov	r0, r3
 809 021c FFF7FEFF 		bl	Peltier1_PWM_Ctrl_WriteCompare
 810 0220 0BE0     		b	.L45
 811              	.L44:
 247:.\PeltierCalibration.c ****             }
 248:.\PeltierCalibration.c ****             else if(moduleNumber == SubModule2_ID)
ARM GAS  C:\Users\plod1602\AppData\Local\Temp\cckpLv0Q.s 			page 20


 812              		.loc 1 248 0
 813 0222 FB78     		ldrb	r3, [r7, #3]	@ zero_extendqisi2
 814 0224 022B     		cmp	r3, #2
 815 0226 08D1     		bne	.L45
 249:.\PeltierCalibration.c ****             {
 250:.\PeltierCalibration.c ****                 Peltier2_PWM_Ctrl_WriteCompare((pwmWriteCompareValue<0?-pwmWriteCompareValue:pwmWri
 816              		.loc 1 250 0
 817 0228 7B6C     		ldr	r3, [r7, #68]
 818 022a 002B     		cmp	r3, #0
 819 022c B8BF     		it	lt
 820 022e 5B42     		rsblt	r3, r3, #0
 821 0230 DBB2     		uxtb	r3, r3
 822 0232 1846     		mov	r0, r3
 823 0234 FFF7FEFF 		bl	Peltier2_PWM_Ctrl_WriteCompare
 251:.\PeltierCalibration.c ****             }
 252:.\PeltierCalibration.c ****             
 253:.\PeltierCalibration.c ****             while(tolerance_hit < NB_HIT && tempMean/100 <= maxTempTarget) // modification Kevin au
 824              		.loc 1 253 0
 825 0238 6EE0     		b	.L46
 826              	.L45:
 827 023a 6DE0     		b	.L46
 828              	.L52:
 254:.\PeltierCalibration.c ****             {                
 255:.\PeltierCalibration.c ****                 if (STOP_CALIBRATION_FLAG != 0)
 829              		.loc 1 255 0
 830 023c 054B     		ldr	r3, .L56+4
 831 023e 1B78     		ldrb	r3, [r3]	@ zero_extendqisi2
 832 0240 002B     		cmp	r3, #0
 833 0242 0BD0     		beq	.L47
 256:.\PeltierCalibration.c ****                 {
 257:.\PeltierCalibration.c ****                     STOP_CALIBRATION_FLAG = 0;
 834              		.loc 1 257 0
 835 0244 034B     		ldr	r3, .L56+4
 836 0246 0022     		movs	r2, #0
 837 0248 1A70     		strb	r2, [r3]
 258:.\PeltierCalibration.c ****                     return CALIBRATION_STOPPED;
 838              		.loc 1 258 0
 839 024a 1323     		movs	r3, #19
 840 024c BBE0     		b	.L55
 841              	.L57:
 842 024e 00BF     		.align	2
 843              	.L56:
 844 0250 1F85EB51 		.word	1374389535
 845 0254 00000000 		.word	STOP_CALIBRATION_FLAG
 846 0258 67666666 		.word	1717986919
 847              	.L47:
 259:.\PeltierCalibration.c ****                 }   
 260:.\PeltierCalibration.c ****                 
 261:.\PeltierCalibration.c ****                  // Partie température
 262:.\PeltierCalibration.c ****                 iTemp = getThermistorTemp(1);
 848              		.loc 1 262 0
 849 025c 0120     		movs	r0, #1
 850 025e FFF7FEFF 		bl	getThermistorTemp
 851 0262 0346     		mov	r3, r0
 852 0264 A7F85230 		strh	r3, [r7, #82]	@ movhi
 263:.\PeltierCalibration.c ****                 deltaValue = tempMean - iTemp;
 853              		.loc 1 263 0
ARM GAS  C:\Users\plod1602\AppData\Local\Temp\cckpLv0Q.s 			page 21


 854 0268 B7F93C20 		ldrsh	r2, [r7, #60]
 855 026c B7F95230 		ldrsh	r3, [r7, #82]
 856 0270 D31A     		subs	r3, r2, r3
 857 0272 3B64     		str	r3, [r7, #64]
 264:.\PeltierCalibration.c ****                 //abs value
 265:.\PeltierCalibration.c ****                 if(deltaValue < 0)
 858              		.loc 1 265 0
 859 0274 3B6C     		ldr	r3, [r7, #64]
 860 0276 002B     		cmp	r3, #0
 861 0278 02DA     		bge	.L48
 266:.\PeltierCalibration.c ****                 {
 267:.\PeltierCalibration.c ****                     deltaValue *= -1;
 862              		.loc 1 267 0
 863 027a 3B6C     		ldr	r3, [r7, #64]
 864 027c 5B42     		negs	r3, r3
 865 027e 3B64     		str	r3, [r7, #64]
 866              	.L48:
 268:.\PeltierCalibration.c ****                 }
 269:.\PeltierCalibration.c ****                 
 270:.\PeltierCalibration.c ****                 // Ajout Kevin
 271:.\PeltierCalibration.c ****                 if (deltaValue < TEMP_TOLERANCE)
 867              		.loc 1 271 0
 868 0280 3B6C     		ldr	r3, [r7, #64]
 869 0282 092B     		cmp	r3, #9
 870 0284 08DC     		bgt	.L50
 272:.\PeltierCalibration.c ****                 {
 273:.\PeltierCalibration.c ****                     tolerance_hit ++;
 871              		.loc 1 273 0
 872 0286 97F83B30 		ldrb	r3, [r7, #59]	@ zero_extendqisi2
 873 028a 0133     		adds	r3, r3, #1
 874 028c 87F83B30 		strb	r3, [r7, #59]
 274:.\PeltierCalibration.c ****                     sendDebugTemperature(1234);	// TODO remove when done testing (sending 12.34)
 875              		.loc 1 274 0
 876 0290 40F2D240 		movw	r0, #1234
 877 0294 FFF7FEFF 		bl	sendDebugTemperature
 878              	.L50:
 275:.\PeltierCalibration.c ****                 }
 276:.\PeltierCalibration.c ****                 else
 277:.\PeltierCalibration.c ****                 {
 278:.\PeltierCalibration.c ****                     tolerance_hit = tolerance_hit;
 279:.\PeltierCalibration.c ****                 }
 280:.\PeltierCalibration.c ****                 // Fin Ajout Kevin
 281:.\PeltierCalibration.c ****                 sendDebugTemperature(000);
 879              		.loc 1 281 0
 880 0298 0020     		movs	r0, #0
 881 029a FFF7FEFF 		bl	sendDebugTemperature
 282:.\PeltierCalibration.c ****                 sendDebugTemperature(iTemp);
 882              		.loc 1 282 0
 883 029e B7F95230 		ldrsh	r3, [r7, #82]
 884 02a2 1846     		mov	r0, r3
 885 02a4 FFF7FEFF 		bl	sendDebugTemperature
 283:.\PeltierCalibration.c ****                 sendDebugTemperature(tempMean);
 886              		.loc 1 283 0
 887 02a8 B7F93C30 		ldrsh	r3, [r7, #60]
 888 02ac 1846     		mov	r0, r3
 889 02ae FFF7FEFF 		bl	sendDebugTemperature
 284:.\PeltierCalibration.c ****                 sendDebugTemperature(deltaValue);
ARM GAS  C:\Users\plod1602\AppData\Local\Temp\cckpLv0Q.s 			page 22


 890              		.loc 1 284 0
 891 02b2 386C     		ldr	r0, [r7, #64]
 892 02b4 FFF7FEFF 		bl	sendDebugTemperature
 285:.\PeltierCalibration.c ****                 sendDebugTemperature(TEMP_TOLERANCE);
 893              		.loc 1 285 0
 894 02b8 0A20     		movs	r0, #10
 895 02ba FFF7FEFF 		bl	sendDebugTemperature
 286:.\PeltierCalibration.c ****                 CyDelay(1000);  
 896              		.loc 1 286 0
 897 02be 4FF47A70 		mov	r0, #1000
 898 02c2 FFF7FEFF 		bl	CyDelay
 287:.\PeltierCalibration.c ****                 tempIndex = (tempIndex + 1)%20;
 899              		.loc 1 287 0
 900 02c6 B7F93E30 		ldrsh	r3, [r7, #62]
 901 02ca 591C     		adds	r1, r3, #1
 902 02cc 404B     		ldr	r3, .L58
 903 02ce 83FB0123 		smull	r2, r3, r3, r1
 904 02d2 DA10     		asrs	r2, r3, #3
 905 02d4 CB17     		asrs	r3, r1, #31
 906 02d6 D21A     		subs	r2, r2, r3
 907 02d8 1346     		mov	r3, r2
 908 02da 9B00     		lsls	r3, r3, #2
 909 02dc 1344     		add	r3, r3, r2
 910 02de 9B00     		lsls	r3, r3, #2
 911 02e0 CA1A     		subs	r2, r1, r3
 912 02e2 1346     		mov	r3, r2	@ movhi
 913 02e4 FB87     		strh	r3, [r7, #62]	@ movhi
 288:.\PeltierCalibration.c ****                 pastTemp[tempIndex] = iTemp/10; // Division par 10 pour ne pas dépasser les limite
 914              		.loc 1 288 0
 915 02e6 B7F93E10 		ldrsh	r1, [r7, #62]
 916 02ea B7F95230 		ldrsh	r3, [r7, #82]
 917 02ee 384A     		ldr	r2, .L58
 918 02f0 82FB0302 		smull	r0, r2, r2, r3
 919 02f4 9210     		asrs	r2, r2, #2
 920 02f6 DB17     		asrs	r3, r3, #31
 921 02f8 D31A     		subs	r3, r2, r3
 922 02fa 9AB2     		uxth	r2, r3
 923 02fc 4B00     		lsls	r3, r1, #1
 924 02fe 07F15801 		add	r1, r7, #88
 925 0302 0B44     		add	r3, r3, r1
 926 0304 23F84C2C 		strh	r2, [r3, #-76]	@ movhi
 289:.\PeltierCalibration.c ****                 tempMean = getArrayMean(pastTemp, 20);            
 927              		.loc 1 289 0
 928 0308 07F10C03 		add	r3, r7, #12
 929 030c 1846     		mov	r0, r3
 930 030e 1421     		movs	r1, #20
 931 0310 FFF7FEFF 		bl	getArrayMean
 932 0314 0346     		mov	r3, r0
 933 0316 BB87     		strh	r3, [r7, #60]	@ movhi
 934              	.L46:
 253:.\PeltierCalibration.c ****             while(tolerance_hit < NB_HIT && tempMean/100 <= maxTempTarget) // modification Kevin au
 935              		.loc 1 253 0 discriminator 1
 936 0318 97F93B30 		ldrsb	r3, [r7, #59]
 937 031c 092B     		cmp	r3, #9
 938 031e 0CDC     		bgt	.L51
 253:.\PeltierCalibration.c ****             while(tolerance_hit < NB_HIT && tempMean/100 <= maxTempTarget) // modification Kevin au
 939              		.loc 1 253 0 is_stmt 0 discriminator 2
ARM GAS  C:\Users\plod1602\AppData\Local\Temp\cckpLv0Q.s 			page 23


 940 0320 B7F93C30 		ldrsh	r3, [r7, #60]
 941 0324 2B4A     		ldr	r2, .L58+4
 942 0326 82FB0302 		smull	r0, r2, r2, r3
 943 032a 5211     		asrs	r2, r2, #5
 944 032c DB17     		asrs	r3, r3, #31
 945 032e D31A     		subs	r3, r2, r3
 946 0330 9BB2     		uxth	r3, r3
 947 0332 1AB2     		sxth	r2, r3
 948 0334 7B68     		ldr	r3, [r7, #4]
 949 0336 9A42     		cmp	r2, r3
 950 0338 80DD     		ble	.L52
 951              	.L51:
 290:.\PeltierCalibration.c ****             }
 291:.\PeltierCalibration.c **** 
 292:.\PeltierCalibration.c ****             // Reset values for next temperature entry.
 293:.\PeltierCalibration.c ****             deltaValue = 2 * TEMP_TOLERANCE;
 952              		.loc 1 293 0 is_stmt 1
 953 033a 1423     		movs	r3, #20
 954 033c 3B64     		str	r3, [r7, #64]
 294:.\PeltierCalibration.c ****             tolerance_hit = 0;        
 955              		.loc 1 294 0
 956 033e 0023     		movs	r3, #0
 957 0340 87F83B30 		strb	r3, [r7, #59]
 295:.\PeltierCalibration.c ****             // Save calibration values in table.
 296:.\PeltierCalibration.c ****             SM1calibrationValues[calibrationPointer] = iTemp;
 958              		.loc 1 296 0
 959 0344 244B     		ldr	r3, .L58+8
 960 0346 7A6D     		ldr	r2, [r7, #84]
 961 0348 B7F85210 		ldrh	r1, [r7, #82]	@ movhi
 962 034c 23F81210 		strh	r1, [r3, r2, lsl #1]	@ movhi
 297:.\PeltierCalibration.c ****             SM1percentageValues[calibrationPointer] = pwmPercentageBeeingSent;
 963              		.loc 1 297 0
 964 0350 BB6C     		ldr	r3, [r7, #72]
 965 0352 DAB2     		uxtb	r2, r3
 966 0354 2149     		ldr	r1, .L58+12
 967 0356 7B6D     		ldr	r3, [r7, #84]
 968 0358 0B44     		add	r3, r3, r1
 969 035a 1A70     		strb	r2, [r3]
 298:.\PeltierCalibration.c ****             calibrationPointer++;
 970              		.loc 1 298 0
 971 035c 7B6D     		ldr	r3, [r7, #84]
 972 035e 0133     		adds	r3, r3, #1
 973 0360 7B65     		str	r3, [r7, #84]
 299:.\PeltierCalibration.c ****             sendDebugTemperature(iTemp);  
 974              		.loc 1 299 0
 975 0362 B7F95230 		ldrsh	r3, [r7, #82]
 976 0366 1846     		mov	r0, r3
 977 0368 FFF7FEFF 		bl	sendDebugTemperature
 300:.\PeltierCalibration.c **** 
 301:.\PeltierCalibration.c ****     		//Preparing the next value to send to the PWM to respect the % increment.
 302:.\PeltierCalibration.c ****     		pwmPercentageBeeingSent += pwmPercentageIncrement;
 978              		.loc 1 302 0
 979 036c BA6C     		ldr	r2, [r7, #72]
 980 036e 7B6B     		ldr	r3, [r7, #52]
 981 0370 1344     		add	r3, r3, r2
 982 0372 BB64     		str	r3, [r7, #72]
 303:.\PeltierCalibration.c ****             pwmWriteCompareValue = pwmPercentageBeeingSent*maxPWMPulse/100;		
ARM GAS  C:\Users\plod1602\AppData\Local\Temp\cckpLv0Q.s 			page 24


 983              		.loc 1 303 0
 984 0374 BB6C     		ldr	r3, [r7, #72]
 985 0376 FA6C     		ldr	r2, [r7, #76]
 986 0378 02FB03F3 		mul	r3, r2, r3
 987 037c 154A     		ldr	r2, .L58+4
 988 037e 82FB0312 		smull	r1, r2, r2, r3
 989 0382 5211     		asrs	r2, r2, #5
 990 0384 DB17     		asrs	r3, r3, #31
 991 0386 D31A     		subs	r3, r2, r3
 992 0388 7B64     		str	r3, [r7, #68]
 993              	.L39:
 221:.\PeltierCalibration.c ****         while(pwmPercentageBeeingSent <= pwmDCEndValue && tempMean/100 <= maxTempTarget)
 994              		.loc 1 221 0 discriminator 1
 995 038a 97F93820 		ldrsb	r2, [r7, #56]
 996 038e BB6C     		ldr	r3, [r7, #72]
 997 0390 9A42     		cmp	r2, r3
 998 0392 0DDB     		blt	.L53
 221:.\PeltierCalibration.c ****         while(pwmPercentageBeeingSent <= pwmDCEndValue && tempMean/100 <= maxTempTarget)
 999              		.loc 1 221 0 is_stmt 0 discriminator 2
 1000 0394 B7F93C30 		ldrsh	r3, [r7, #60]
 1001 0398 0E4A     		ldr	r2, .L58+4
 1002 039a 82FB0302 		smull	r0, r2, r2, r3
 1003 039e 5211     		asrs	r2, r2, #5
 1004 03a0 DB17     		asrs	r3, r3, #31
 1005 03a2 D31A     		subs	r3, r2, r3
 1006 03a4 9BB2     		uxth	r3, r3
 1007 03a6 1AB2     		sxth	r2, r3
 1008 03a8 7B68     		ldr	r3, [r7, #4]
 1009 03aa 9A42     		cmp	r2, r3
 1010 03ac 7FF70DAF 		ble	.L54
 1011              	.L53:
 304:.\PeltierCalibration.c ****         }
 305:.\PeltierCalibration.c ****         changePeltierModuleState(peltierDisabled,moduleNumber); // Sets Signal inH_1 and inH_2 of P
 1012              		.loc 1 305 0 is_stmt 1
 1013 03b0 FB78     		ldrb	r3, [r7, #3]	@ zero_extendqisi2
 1014 03b2 0020     		movs	r0, #0
 1015 03b4 1946     		mov	r1, r3
 1016 03b6 FFF7FEFF 		bl	changePeltierModuleState
 306:.\PeltierCalibration.c ****         setCalibrationTable(&SM1);
 1017              		.loc 1 306 0
 1018 03ba 0948     		ldr	r0, .L58+16
 1019 03bc FFF7FEFF 		bl	setCalibrationTable
 307:.\PeltierCalibration.c ****         return 1;        
 1020              		.loc 1 307 0
 1021 03c0 0123     		movs	r3, #1
 1022 03c2 00E0     		b	.L55
 1023              	.L29:
 1024              	.LBE4:
 308:.\PeltierCalibration.c ****     }
 309:.\PeltierCalibration.c ****     else
 310:.\PeltierCalibration.c ****     {
 311:.\PeltierCalibration.c ****         // If not using the sub module 1 nor 2, tell it to the master as I don't know where we are 
 312:.\PeltierCalibration.c ****         return BAD_SUBMODULE_NUMBER;
 1025              		.loc 1 312 0
 1026 03c4 1723     		movs	r3, #23
 1027              	.L55:
 313:.\PeltierCalibration.c ****     }
ARM GAS  C:\Users\plod1602\AppData\Local\Temp\cckpLv0Q.s 			page 25


 314:.\PeltierCalibration.c **** }
 1028              		.loc 1 314 0
 1029 03c6 1846     		mov	r0, r3
 1030 03c8 5C37     		adds	r7, r7, #92
 1031 03ca BD46     		mov	sp, r7
 1032              		@ sp needed
 1033 03cc 90BD     		pop	{r4, r7, pc}
 1034              	.L59:
 1035 03ce 00BF     		.align	2
 1036              	.L58:
 1037 03d0 67666666 		.word	1717986919
 1038 03d4 1F85EB51 		.word	1374389535
 1039 03d8 00000000 		.word	SM1calibrationValues
 1040 03dc 00000000 		.word	SM1percentageValues
 1041 03e0 00000000 		.word	SM1
 1042              		.cfi_endproc
 1043              	.LFE59:
 1044              		.size	calibration, .-calibration
 1045              		.section	.text.getArrayMean,"ax",%progbits
 1046              		.align	2
 1047              		.global	getArrayMean
 1048              		.thumb
 1049              		.thumb_func
 1050              		.type	getArrayMean, %function
 1051              	getArrayMean:
 1052              	.LFB60:
 315:.\PeltierCalibration.c **** 
 316:.\PeltierCalibration.c **** int16 getArrayMean(int16* tab, int16 size)
 317:.\PeltierCalibration.c **** {
 1053              		.loc 1 317 0
 1054              		.cfi_startproc
 1055              		@ args = 0, pretend = 0, frame = 16
 1056              		@ frame_needed = 1, uses_anonymous_args = 0
 1057              		@ link register save eliminated.
 1058 0000 80B4     		push	{r7}
 1059              		.cfi_def_cfa_offset 4
 1060              		.cfi_offset 7, -4
 1061 0002 85B0     		sub	sp, sp, #20
 1062              		.cfi_def_cfa_offset 24
 1063 0004 00AF     		add	r7, sp, #0
 1064              		.cfi_def_cfa_register 7
 1065 0006 7860     		str	r0, [r7, #4]
 1066 0008 0B46     		mov	r3, r1
 1067 000a 7B80     		strh	r3, [r7, #2]	@ movhi
 318:.\PeltierCalibration.c ****     int i = 0;
 1068              		.loc 1 318 0
 1069 000c 0023     		movs	r3, #0
 1070 000e FB60     		str	r3, [r7, #12]
 319:.\PeltierCalibration.c ****     int16 mean = 0;
 1071              		.loc 1 319 0
 1072 0010 0023     		movs	r3, #0
 1073 0012 7B81     		strh	r3, [r7, #10]	@ movhi
 320:.\PeltierCalibration.c ****     for(i = 0; i < size; i++)
 1074              		.loc 1 320 0
 1075 0014 0023     		movs	r3, #0
 1076 0016 FB60     		str	r3, [r7, #12]
 1077 0018 11E0     		b	.L61
ARM GAS  C:\Users\plod1602\AppData\Local\Temp\cckpLv0Q.s 			page 26


 1078              	.L62:
 321:.\PeltierCalibration.c ****     {
 322:.\PeltierCalibration.c ****         mean += tab[i]/size;
 1079              		.loc 1 322 0 discriminator 2
 1080 001a FB68     		ldr	r3, [r7, #12]
 1081 001c 5B00     		lsls	r3, r3, #1
 1082 001e 7A68     		ldr	r2, [r7, #4]
 1083 0020 1344     		add	r3, r3, r2
 1084 0022 1B88     		ldrh	r3, [r3]
 1085 0024 1AB2     		sxth	r2, r3
 1086 0026 B7F90230 		ldrsh	r3, [r7, #2]
 1087 002a 92FBF3F3 		sdiv	r3, r2, r3
 1088 002e 9AB2     		uxth	r2, r3
 1089 0030 7B89     		ldrh	r3, [r7, #10]
 1090 0032 1344     		add	r3, r3, r2
 1091 0034 9BB2     		uxth	r3, r3
 1092 0036 7B81     		strh	r3, [r7, #10]	@ movhi
 320:.\PeltierCalibration.c ****     for(i = 0; i < size; i++)
 1093              		.loc 1 320 0 discriminator 2
 1094 0038 FB68     		ldr	r3, [r7, #12]
 1095 003a 0133     		adds	r3, r3, #1
 1096 003c FB60     		str	r3, [r7, #12]
 1097              	.L61:
 320:.\PeltierCalibration.c ****     for(i = 0; i < size; i++)
 1098              		.loc 1 320 0 is_stmt 0 discriminator 1
 1099 003e B7F90220 		ldrsh	r2, [r7, #2]
 1100 0042 FB68     		ldr	r3, [r7, #12]
 1101 0044 9A42     		cmp	r2, r3
 1102 0046 E8DC     		bgt	.L62
 323:.\PeltierCalibration.c ****     }
 324:.\PeltierCalibration.c ****     return mean; // Multiplication par 10 pour ne pas dépasser les limites du int16
 1103              		.loc 1 324 0 is_stmt 1
 1104 0048 7B89     		ldrh	r3, [r7, #10]
 1105 004a 1BB2     		sxth	r3, r3
 325:.\PeltierCalibration.c **** }
 1106              		.loc 1 325 0
 1107 004c 1846     		mov	r0, r3
 1108 004e 1437     		adds	r7, r7, #20
 1109 0050 BD46     		mov	sp, r7
 1110              		@ sp needed
 1111 0052 5DF8047B 		ldr	r7, [sp], #4
 1112 0056 7047     		bx	lr
 1113              		.cfi_endproc
 1114              	.LFE60:
 1115              		.size	getArrayMean, .-getArrayMean
 1116              		.global	__aeabi_fdiv
 1117              		.global	__aeabi_f2d
 1118              		.global	__aeabi_dsub
 1119              		.global	__aeabi_dcmplt
 1120              		.global	__aeabi_d2iz
 1121              		.global	__aeabi_dcmpgt
 1122              		.section	.text.controlTemperature,"ax",%progbits
 1123              		.align	2
 1124              		.global	controlTemperature
 1125              		.thumb
 1126              		.thumb_func
 1127              		.type	controlTemperature, %function
ARM GAS  C:\Users\plod1602\AppData\Local\Temp\cckpLv0Q.s 			page 27


 1128              	controlTemperature:
 1129              	.LFB61:
 326:.\PeltierCalibration.c **** 
 327:.\PeltierCalibration.c **** /*===========================================================================*/
 328:.\PeltierCalibration.c **** // Used to send commands to Peltier elements to cool or heat the plate
 329:.\PeltierCalibration.c **** void controlTemperature(float actualTemperature, uint8 moduleNumber, int16 targetTemperature)
 330:.\PeltierCalibration.c **** {
 1130              		.loc 1 330 0
 1131              		.cfi_startproc
 1132              		@ args = 0, pretend = 0, frame = 24
 1133              		@ frame_needed = 1, uses_anonymous_args = 0
 1134 0000 80B5     		push	{r7, lr}
 1135              		.cfi_def_cfa_offset 8
 1136              		.cfi_offset 7, -8
 1137              		.cfi_offset 14, -4
 1138 0002 86B0     		sub	sp, sp, #24
 1139              		.cfi_def_cfa_offset 32
 1140 0004 00AF     		add	r7, sp, #0
 1141              		.cfi_def_cfa_register 7
 1142 0006 7860     		str	r0, [r7, #4]	@ float
 1143 0008 1346     		mov	r3, r2
 1144 000a 0A46     		mov	r2, r1
 1145 000c FA70     		strb	r2, [r7, #3]
 1146 000e 3B80     		strh	r3, [r7]	@ movhi
 331:.\PeltierCalibration.c ****     double temp = actualTemperature/100;
 1147              		.loc 1 331 0
 1148 0010 7868     		ldr	r0, [r7, #4]	@ float
 1149 0012 3149     		ldr	r1, .L74+16
 1150 0014 FFF7FEFF 		bl	__aeabi_fdiv
 1151 0018 0346     		mov	r3, r0
 1152 001a 1846     		mov	r0, r3
 1153 001c FFF7FEFF 		bl	__aeabi_f2d
 1154 0020 0246     		mov	r2, r0
 1155 0022 0B46     		mov	r3, r1
 1156 0024 C7E90423 		strd	r2, [r7, #16]
 332:.\PeltierCalibration.c ****     double diff = temp - targetTemp;
 1157              		.loc 1 332 0
 1158 0028 2C4B     		ldr	r3, .L74+20
 1159 002a D3E90023 		ldrd	r2, [r3]
 1160 002e D7E90401 		ldrd	r0, [r7, #16]
 1161 0032 FFF7FEFF 		bl	__aeabi_dsub
 1162 0036 0246     		mov	r2, r0
 1163 0038 0B46     		mov	r3, r1
 1164 003a C7E90223 		strd	r2, [r7, #8]
 333:.\PeltierCalibration.c ****       
 334:.\PeltierCalibration.c ****     if(diff < -0.1) // Need to heat
 1165              		.loc 1 334 0
 1166 003e D7E90201 		ldrd	r0, [r7, #8]
 1167 0042 21A3     		adr	r3, .L74
 1168 0044 D3E90023 		ldrd	r2, [r3]
 1169 0048 FFF7FEFF 		bl	__aeabi_dcmplt
 1170 004c 0346     		mov	r3, r0
 1171 004e 002B     		cmp	r3, #0
 1172 0050 15D0     		beq	.L72
 335:.\PeltierCalibration.c ****     {
 336:.\PeltierCalibration.c ****         diff = -1*diff;
 1173              		.loc 1 336 0
ARM GAS  C:\Users\plod1602\AppData\Local\Temp\cckpLv0Q.s 			page 28


 1174 0052 BB68     		ldr	r3, [r7, #8]
 1175 0054 BB60     		str	r3, [r7, #8]
 1176 0056 FB68     		ldr	r3, [r7, #12]
 1177 0058 83F00043 		eor	r3, r3, #-2147483648
 1178 005c FB60     		str	r3, [r7, #12]
 337:.\PeltierCalibration.c ****         
 338:.\PeltierCalibration.c ****         LED_Write(1);
 1179              		.loc 1 338 0
 1180 005e 0120     		movs	r0, #1
 1181 0060 FFF7FEFF 		bl	LED_Write
 339:.\PeltierCalibration.c ****         peltierControl(PELTIER_HEAT, (int)diff, moduleNumber, 0); // target temperature is not impo
 1182              		.loc 1 339 0
 1183 0064 D7E90201 		ldrd	r0, [r7, #8]
 1184 0068 FFF7FEFF 		bl	__aeabi_d2iz
 1185 006c 0246     		mov	r2, r0
 1186 006e FB78     		ldrb	r3, [r7, #3]	@ zero_extendqisi2
 1187 0070 0220     		movs	r0, #2
 1188 0072 1146     		mov	r1, r2
 1189 0074 1A46     		mov	r2, r3
 1190 0076 0023     		movs	r3, #0
 1191 0078 FFF7FEFF 		bl	peltierControl
 1192 007c 20E0     		b	.L64
 1193              	.L72:
 340:.\PeltierCalibration.c ****     }
 341:.\PeltierCalibration.c ****     else if(diff > 0.1) // Need to cool
 1194              		.loc 1 341 0
 1195 007e D7E90201 		ldrd	r0, [r7, #8]
 1196 0082 13A3     		adr	r3, .L74+8
 1197 0084 D3E90023 		ldrd	r2, [r3]
 1198 0088 FFF7FEFF 		bl	__aeabi_dcmpgt
 1199 008c 0346     		mov	r3, r0
 1200 008e 002B     		cmp	r3, #0
 1201 0090 0FD0     		beq	.L73
 342:.\PeltierCalibration.c ****     {        
 343:.\PeltierCalibration.c ****         LED_Write(1);
 1202              		.loc 1 343 0
 1203 0092 0120     		movs	r0, #1
 1204 0094 FFF7FEFF 		bl	LED_Write
 344:.\PeltierCalibration.c ****         peltierControl(PELTIER_COOL, (int)diff, moduleNumber, 0); // target temperature is not impo
 1205              		.loc 1 344 0
 1206 0098 D7E90201 		ldrd	r0, [r7, #8]
 1207 009c FFF7FEFF 		bl	__aeabi_d2iz
 1208 00a0 0246     		mov	r2, r0
 1209 00a2 FB78     		ldrb	r3, [r7, #3]	@ zero_extendqisi2
 1210 00a4 0120     		movs	r0, #1
 1211 00a6 1146     		mov	r1, r2
 1212 00a8 1A46     		mov	r2, r3
 1213 00aa 0023     		movs	r3, #0
 1214 00ac FFF7FEFF 		bl	peltierControl
 1215 00b0 06E0     		b	.L64
 1216              	.L73:
 345:.\PeltierCalibration.c ****     }
 346:.\PeltierCalibration.c ****     else
 347:.\PeltierCalibration.c ****     {
 348:.\PeltierCalibration.c ****         peltierControl(PELTIER_MAINTAIN, 0, moduleNumber, targetTemperature);   
 1217              		.loc 1 348 0
 1218 00b2 B7F90030 		ldrsh	r3, [r7]
ARM GAS  C:\Users\plod1602\AppData\Local\Temp\cckpLv0Q.s 			page 29


 1219 00b6 FA78     		ldrb	r2, [r7, #3]	@ zero_extendqisi2
 1220 00b8 0220     		movs	r0, #2
 1221 00ba 0021     		movs	r1, #0
 1222 00bc FFF7FEFF 		bl	peltierControl
 1223              	.L64:
 349:.\PeltierCalibration.c ****     }
 350:.\PeltierCalibration.c **** }
 1224              		.loc 1 350 0
 1225 00c0 1837     		adds	r7, r7, #24
 1226 00c2 BD46     		mov	sp, r7
 1227              		@ sp needed
 1228 00c4 80BD     		pop	{r7, pc}
 1229              	.L75:
 1230 00c6 00BF     		.align	3
 1231              	.L74:
 1232 00c8 9A999999 		.word	-1717986918
 1233 00cc 9999B9BF 		.word	-1078355559
 1234 00d0 9A999999 		.word	-1717986918
 1235 00d4 9999B93F 		.word	1069128089
 1236 00d8 0000C842 		.word	1120403456
 1237 00dc 00000000 		.word	targetTemp
 1238              		.cfi_endproc
 1239              	.LFE61:
 1240              		.size	controlTemperature, .-controlTemperature
 1241              		.global	__aeabi_i2d
 1242              		.global	__aeabi_ddiv
 1243              		.global	__aeabi_dadd
 1244              		.section	.text.peltierControl,"ax",%progbits
 1245              		.align	2
 1246              		.global	peltierControl
 1247              		.thumb
 1248              		.thumb_func
 1249              		.type	peltierControl, %function
 1250              	peltierControl:
 1251              	.LFB62:
 351:.\PeltierCalibration.c **** 
 352:.\PeltierCalibration.c **** /*===========================================================================*/
 353:.\PeltierCalibration.c **** // Should not be called directly, will be called by "controlTemperature" function
 354:.\PeltierCalibration.c **** void peltierControl(int function, int diff, uint8 moduleNumber, int targetTemperature)
 355:.\PeltierCalibration.c **** {
 1252              		.loc 1 355 0
 1253              		.cfi_startproc
 1254              		@ args = 0, pretend = 0, frame = 32
 1255              		@ frame_needed = 1, uses_anonymous_args = 0
 1256 0000 80B5     		push	{r7, lr}
 1257              		.cfi_def_cfa_offset 8
 1258              		.cfi_offset 7, -8
 1259              		.cfi_offset 14, -4
 1260 0002 88B0     		sub	sp, sp, #32
 1261              		.cfi_def_cfa_offset 40
 1262 0004 00AF     		add	r7, sp, #0
 1263              		.cfi_def_cfa_register 7
 1264 0006 F860     		str	r0, [r7, #12]
 1265 0008 B960     		str	r1, [r7, #8]
 1266 000a 3B60     		str	r3, [r7]
 1267 000c 1346     		mov	r3, r2
 1268 000e FB71     		strb	r3, [r7, #7]
ARM GAS  C:\Users\plod1602\AppData\Local\Temp\cckpLv0Q.s 			page 30


 356:.\PeltierCalibration.c ****     double controlValue;
 357:.\PeltierCalibration.c ****     if(function == PELTIER_COOL )
 1269              		.loc 1 357 0
 1270 0010 FB68     		ldr	r3, [r7, #12]
 1271 0012 012B     		cmp	r3, #1
 1272 0014 4CD1     		bne	.L77
 1273              	.LBB5:
 358:.\PeltierCalibration.c ****     {
 359:.\PeltierCalibration.c ****         //double controlValue = (0.3+((0.000625*pow(diff,2))/3.08))*480; // Calculated from desired
 360:.\PeltierCalibration.c ****         if(diff>10)
 1274              		.loc 1 360 0
 1275 0016 BB68     		ldr	r3, [r7, #8]
 1276 0018 0A2B     		cmp	r3, #10
 1277 001a 05DD     		ble	.L78
 361:.\PeltierCalibration.c ****         {
 362:.\PeltierCalibration.c ****             controlValue = 300;
 1278              		.loc 1 362 0
 1279 001c 62A3     		adr	r3, .L92
 1280 001e D3E90023 		ldrd	r2, [r3]
 1281 0022 C7E90623 		strd	r2, [r7, #24]
 1282 0026 1AE0     		b	.L79
 1283              	.L78:
 363:.\PeltierCalibration.c ****         }
 364:.\PeltierCalibration.c ****         else
 365:.\PeltierCalibration.c ****         {
 366:.\PeltierCalibration.c ****            controlValue = ((4*diff)/0.595)+132; // See excel for reference ramp 
 1284              		.loc 1 366 0
 1285 0028 BB68     		ldr	r3, [r7, #8]
 1286 002a 9B00     		lsls	r3, r3, #2
 1287 002c 1846     		mov	r0, r3
 1288 002e FFF7FEFF 		bl	__aeabi_i2d
 1289 0032 0246     		mov	r2, r0
 1290 0034 0B46     		mov	r3, r1
 1291 0036 1046     		mov	r0, r2
 1292 0038 1946     		mov	r1, r3
 1293 003a 5DA3     		adr	r3, .L92+8
 1294 003c D3E90023 		ldrd	r2, [r3]
 1295 0040 FFF7FEFF 		bl	__aeabi_ddiv
 1296 0044 0246     		mov	r2, r0
 1297 0046 0B46     		mov	r3, r1
 1298 0048 1046     		mov	r0, r2
 1299 004a 1946     		mov	r1, r3
 1300 004c 4FF00002 		mov	r2, #0
 1301 0050 5B4B     		ldr	r3, .L92+24
 1302 0052 FFF7FEFF 		bl	__aeabi_dadd
 1303 0056 0246     		mov	r2, r0
 1304 0058 0B46     		mov	r3, r1
 1305 005a C7E90623 		strd	r2, [r7, #24]
 1306              	.L79:
 367:.\PeltierCalibration.c ****         }        
 368:.\PeltierCalibration.c ****         int val = (int)controlValue;
 1307              		.loc 1 368 0
 1308 005e D7E90601 		ldrd	r0, [r7, #24]
 1309 0062 FFF7FEFF 		bl	__aeabi_d2iz
 1310 0066 0346     		mov	r3, r0
 1311 0068 7B61     		str	r3, [r7, #20]
 369:.\PeltierCalibration.c ****         
ARM GAS  C:\Users\plod1602\AppData\Local\Temp\cckpLv0Q.s 			page 31


 370:.\PeltierCalibration.c ****         // Deactivate the desired Peltier Element.
 371:.\PeltierCalibration.c ****         changePeltierModuleState(0,moduleNumber); 
 1312              		.loc 1 371 0
 1313 006a FB79     		ldrb	r3, [r7, #7]	@ zero_extendqisi2
 1314 006c 0020     		movs	r0, #0
 1315 006e 1946     		mov	r1, r3
 1316 0070 FFF7FEFF 		bl	changePeltierModuleState
 372:.\PeltierCalibration.c ****         
 373:.\PeltierCalibration.c ****         // changes PWM value, affecting Peltier's power
 374:.\PeltierCalibration.c ****         if (moduleNumber == 1)
 1317              		.loc 1 374 0
 1318 0074 FB79     		ldrb	r3, [r7, #7]	@ zero_extendqisi2
 1319 0076 012B     		cmp	r3, #1
 1320 0078 05D1     		bne	.L80
 375:.\PeltierCalibration.c ****         {
 376:.\PeltierCalibration.c ****             Peltier1_PWM_Ctrl_WriteCompare(val);
 1321              		.loc 1 376 0
 1322 007a 7B69     		ldr	r3, [r7, #20]
 1323 007c DBB2     		uxtb	r3, r3
 1324 007e 1846     		mov	r0, r3
 1325 0080 FFF7FEFF 		bl	Peltier1_PWM_Ctrl_WriteCompare
 1326 0084 07E0     		b	.L81
 1327              	.L80:
 377:.\PeltierCalibration.c ****         }
 378:.\PeltierCalibration.c ****         else if (moduleNumber == 2)
 1328              		.loc 1 378 0
 1329 0086 FB79     		ldrb	r3, [r7, #7]	@ zero_extendqisi2
 1330 0088 022B     		cmp	r3, #2
 1331 008a 04D1     		bne	.L81
 379:.\PeltierCalibration.c ****         {
 380:.\PeltierCalibration.c ****             Peltier2_PWM_Ctrl_WriteCompare(val);
 1332              		.loc 1 380 0
 1333 008c 7B69     		ldr	r3, [r7, #20]
 1334 008e DBB2     		uxtb	r3, r3
 1335 0090 1846     		mov	r0, r3
 1336 0092 FFF7FEFF 		bl	Peltier2_PWM_Ctrl_WriteCompare
 1337              	.L81:
 381:.\PeltierCalibration.c ****         }
 382:.\PeltierCalibration.c ****         
 383:.\PeltierCalibration.c ****         // Sets the H_bridge to heat or cool depending on the parameter passed
 384:.\PeltierCalibration.c ****         changePeltierModuleCurrentDirection(function, moduleNumber);
 1338              		.loc 1 384 0 discriminator 1
 1339 0096 FB68     		ldr	r3, [r7, #12]
 1340 0098 DAB2     		uxtb	r2, r3
 1341 009a FB79     		ldrb	r3, [r7, #7]	@ zero_extendqisi2
 1342 009c 1046     		mov	r0, r2
 1343 009e 1946     		mov	r1, r3
 1344 00a0 FFF7FEFF 		bl	changePeltierModuleCurrentDirection
 385:.\PeltierCalibration.c ****         
 386:.\PeltierCalibration.c ****         // Reactivate the desired Peltier Element.
 387:.\PeltierCalibration.c ****         changePeltierModuleState(1,moduleNumber);
 1345              		.loc 1 387 0 discriminator 1
 1346 00a4 FB79     		ldrb	r3, [r7, #7]	@ zero_extendqisi2
 1347 00a6 0120     		movs	r0, #1
 1348 00a8 1946     		mov	r1, r3
 1349 00aa FFF7FEFF 		bl	changePeltierModuleState
 1350              	.LBE5:
ARM GAS  C:\Users\plod1602\AppData\Local\Temp\cckpLv0Q.s 			page 32


 1351 00ae 77E0     		b	.L76
 1352              	.L77:
 388:.\PeltierCalibration.c ****         
 389:.\PeltierCalibration.c ****         //Peltier_on_Write(0u);   // deactivates peltier element
 390:.\PeltierCalibration.c ****         //LED_Write(0u);          
 391:.\PeltierCalibration.c ****         //peltierPWM_WriteCompare(val);       // changes PWM value, affecting Peltier's power
 392:.\PeltierCalibration.c ****         //peltier_control_Write(function);    // Sets the H_bridge to heat or cool depending on the
 393:.\PeltierCalibration.c ****         ////peltierPWM_Start();
 394:.\PeltierCalibration.c ****         //Peltier_on_Write(1u);   // Signal inH_1 and inH_2   
 395:.\PeltierCalibration.c ****     }
 396:.\PeltierCalibration.c ****     else if(function ==  PELTIER_HEAT)
 1353              		.loc 1 396 0
 1354 00b0 FB68     		ldr	r3, [r7, #12]
 1355 00b2 022B     		cmp	r3, #2
 1356 00b4 4CD1     		bne	.L83
 1357              	.LBB6:
 397:.\PeltierCalibration.c ****     {
 398:.\PeltierCalibration.c ****         //double controlValue = (0.3+((0.000625*pow(diff,2))/2))*480; // Calculated from desired ra
 399:.\PeltierCalibration.c ****         if(diff>20)
 1358              		.loc 1 399 0
 1359 00b6 BB68     		ldr	r3, [r7, #8]
 1360 00b8 142B     		cmp	r3, #20
 1361 00ba 05DD     		ble	.L84
 400:.\PeltierCalibration.c ****         {
 401:.\PeltierCalibration.c ****             controlValue = 384;
 1362              		.loc 1 401 0
 1363 00bc 4FF00002 		mov	r2, #0
 1364 00c0 404B     		ldr	r3, .L92+28
 1365 00c2 C7E90623 		strd	r2, [r7, #24]
 1366 00c6 1AE0     		b	.L85
 1367              	.L84:
 402:.\PeltierCalibration.c ****         }
 403:.\PeltierCalibration.c ****         else
 404:.\PeltierCalibration.c ****         {
 405:.\PeltierCalibration.c ****            controlValue = ((4*diff)/0.396)+132; // See excel for reference ramp 
 1368              		.loc 1 405 0
 1369 00c8 BB68     		ldr	r3, [r7, #8]
 1370 00ca 9B00     		lsls	r3, r3, #2
 1371 00cc 1846     		mov	r0, r3
 1372 00ce FFF7FEFF 		bl	__aeabi_i2d
 1373 00d2 0246     		mov	r2, r0
 1374 00d4 0B46     		mov	r3, r1
 1375 00d6 1046     		mov	r0, r2
 1376 00d8 1946     		mov	r1, r3
 1377 00da 37A3     		adr	r3, .L92+16
 1378 00dc D3E90023 		ldrd	r2, [r3]
 1379 00e0 FFF7FEFF 		bl	__aeabi_ddiv
 1380 00e4 0246     		mov	r2, r0
 1381 00e6 0B46     		mov	r3, r1
 1382 00e8 1046     		mov	r0, r2
 1383 00ea 1946     		mov	r1, r3
 1384 00ec 4FF00002 		mov	r2, #0
 1385 00f0 334B     		ldr	r3, .L92+24
 1386 00f2 FFF7FEFF 		bl	__aeabi_dadd
 1387 00f6 0246     		mov	r2, r0
 1388 00f8 0B46     		mov	r3, r1
 1389 00fa C7E90623 		strd	r2, [r7, #24]
ARM GAS  C:\Users\plod1602\AppData\Local\Temp\cckpLv0Q.s 			page 33


 1390              	.L85:
 406:.\PeltierCalibration.c ****         } 
 407:.\PeltierCalibration.c ****         int val = (int)controlValue;
 1391              		.loc 1 407 0
 1392 00fe D7E90601 		ldrd	r0, [r7, #24]
 1393 0102 FFF7FEFF 		bl	__aeabi_d2iz
 1394 0106 0346     		mov	r3, r0
 1395 0108 3B61     		str	r3, [r7, #16]
 408:.\PeltierCalibration.c ****         
 409:.\PeltierCalibration.c ****         // Deactivate the desired Peltier Element.
 410:.\PeltierCalibration.c ****         changePeltierModuleState(0,moduleNumber); 
 1396              		.loc 1 410 0
 1397 010a FB79     		ldrb	r3, [r7, #7]	@ zero_extendqisi2
 1398 010c 0020     		movs	r0, #0
 1399 010e 1946     		mov	r1, r3
 1400 0110 FFF7FEFF 		bl	changePeltierModuleState
 411:.\PeltierCalibration.c ****         
 412:.\PeltierCalibration.c ****         // changes PWM value, affecting Peltier's power
 413:.\PeltierCalibration.c ****         if (moduleNumber == 1)
 1401              		.loc 1 413 0
 1402 0114 FB79     		ldrb	r3, [r7, #7]	@ zero_extendqisi2
 1403 0116 012B     		cmp	r3, #1
 1404 0118 05D1     		bne	.L86
 414:.\PeltierCalibration.c ****         {
 415:.\PeltierCalibration.c ****             Peltier1_PWM_Ctrl_WriteCompare(val);
 1405              		.loc 1 415 0
 1406 011a 3B69     		ldr	r3, [r7, #16]
 1407 011c DBB2     		uxtb	r3, r3
 1408 011e 1846     		mov	r0, r3
 1409 0120 FFF7FEFF 		bl	Peltier1_PWM_Ctrl_WriteCompare
 1410 0124 07E0     		b	.L87
 1411              	.L86:
 416:.\PeltierCalibration.c ****         }
 417:.\PeltierCalibration.c ****         else if (moduleNumber == 2)
 1412              		.loc 1 417 0
 1413 0126 FB79     		ldrb	r3, [r7, #7]	@ zero_extendqisi2
 1414 0128 022B     		cmp	r3, #2
 1415 012a 04D1     		bne	.L87
 418:.\PeltierCalibration.c ****         {
 419:.\PeltierCalibration.c ****             Peltier2_PWM_Ctrl_WriteCompare(val);
 1416              		.loc 1 419 0
 1417 012c 3B69     		ldr	r3, [r7, #16]
 1418 012e DBB2     		uxtb	r3, r3
 1419 0130 1846     		mov	r0, r3
 1420 0132 FFF7FEFF 		bl	Peltier2_PWM_Ctrl_WriteCompare
 1421              	.L87:
 420:.\PeltierCalibration.c ****         }
 421:.\PeltierCalibration.c ****         
 422:.\PeltierCalibration.c ****         // Sets the H_bridge to heat or cool depending on the parameter passed
 423:.\PeltierCalibration.c ****         changePeltierModuleCurrentDirection(function, moduleNumber);
 1422              		.loc 1 423 0 discriminator 1
 1423 0136 FB68     		ldr	r3, [r7, #12]
 1424 0138 DAB2     		uxtb	r2, r3
 1425 013a FB79     		ldrb	r3, [r7, #7]	@ zero_extendqisi2
 1426 013c 1046     		mov	r0, r2
 1427 013e 1946     		mov	r1, r3
 1428 0140 FFF7FEFF 		bl	changePeltierModuleCurrentDirection
ARM GAS  C:\Users\plod1602\AppData\Local\Temp\cckpLv0Q.s 			page 34


 424:.\PeltierCalibration.c ****         
 425:.\PeltierCalibration.c ****         // Reactivate the desired Peltier Element.
 426:.\PeltierCalibration.c ****         changePeltierModuleState(1,moduleNumber);
 1429              		.loc 1 426 0 discriminator 1
 1430 0144 FB79     		ldrb	r3, [r7, #7]	@ zero_extendqisi2
 1431 0146 0120     		movs	r0, #1
 1432 0148 1946     		mov	r1, r3
 1433 014a FFF7FEFF 		bl	changePeltierModuleState
 1434              	.LBE6:
 1435 014e 27E0     		b	.L76
 1436              	.L83:
 427:.\PeltierCalibration.c ****         
 428:.\PeltierCalibration.c ****         //Peltier_on_Write(0u);
 429:.\PeltierCalibration.c ****         //peltierPWM_WriteCompare(val);
 430:.\PeltierCalibration.c ****         //peltier_control_Write(function);    // Sets the H_bridge to heat or cool depending on the
 431:.\PeltierCalibration.c ****         ////peltierPWM_Start();
 432:.\PeltierCalibration.c ****         //Peltier_on_Write(1u);   // Signal inH_1 and inH_2        
 433:.\PeltierCalibration.c ****     }    
 434:.\PeltierCalibration.c ****     else if(function == PELTIER_MAINTAIN)   // Never called
 1437              		.loc 1 434 0
 1438 0150 FB68     		ldr	r3, [r7, #12]
 1439 0152 022B     		cmp	r3, #2
 1440 0154 24D1     		bne	.L76
 435:.\PeltierCalibration.c ****     {
 436:.\PeltierCalibration.c ****         // Deactivate the desired Peltier Element.
 437:.\PeltierCalibration.c ****         changePeltierModuleState(0,moduleNumber);
 1441              		.loc 1 437 0
 1442 0156 FB79     		ldrb	r3, [r7, #7]	@ zero_extendqisi2
 1443 0158 0020     		movs	r0, #0
 1444 015a 1946     		mov	r1, r3
 1445 015c FFF7FEFF 		bl	changePeltierModuleState
 438:.\PeltierCalibration.c ****         
 439:.\PeltierCalibration.c ****         if (targetTemperature>25)
 1446              		.loc 1 439 0
 1447 0160 3B68     		ldr	r3, [r7]
 1448 0162 192B     		cmp	r3, #25
 1449 0164 05DD     		ble	.L88
 440:.\PeltierCalibration.c ****         {
 441:.\PeltierCalibration.c ****             // Sets the H_bridge to heat or cool depending on the parameter passed
 442:.\PeltierCalibration.c ****             changePeltierModuleCurrentDirection(PELTIER_HEAT, moduleNumber);
 1450              		.loc 1 442 0
 1451 0166 FB79     		ldrb	r3, [r7, #7]	@ zero_extendqisi2
 1452 0168 0220     		movs	r0, #2
 1453 016a 1946     		mov	r1, r3
 1454 016c FFF7FEFF 		bl	changePeltierModuleCurrentDirection
 1455 0170 04E0     		b	.L89
 1456              	.L88:
 443:.\PeltierCalibration.c ****         }
 444:.\PeltierCalibration.c ****         else
 445:.\PeltierCalibration.c ****         {
 446:.\PeltierCalibration.c ****             // Sets the H_bridge to heat or cool depending on the parameter passed
 447:.\PeltierCalibration.c ****             changePeltierModuleCurrentDirection(PELTIER_COOL, moduleNumber);            
 1457              		.loc 1 447 0
 1458 0172 FB79     		ldrb	r3, [r7, #7]	@ zero_extendqisi2
 1459 0174 0120     		movs	r0, #1
 1460 0176 1946     		mov	r1, r3
 1461 0178 FFF7FEFF 		bl	changePeltierModuleCurrentDirection
ARM GAS  C:\Users\plod1602\AppData\Local\Temp\cckpLv0Q.s 			page 35


 1462              	.L89:
 448:.\PeltierCalibration.c ****         } 
 449:.\PeltierCalibration.c ****         
 450:.\PeltierCalibration.c ****         // changes PWM value, affecting Peltier's power
 451:.\PeltierCalibration.c ****         if (moduleNumber == 1)
 1463              		.loc 1 451 0
 1464 017c FB79     		ldrb	r3, [r7, #7]	@ zero_extendqisi2
 1465 017e 012B     		cmp	r3, #1
 1466 0180 03D1     		bne	.L90
 452:.\PeltierCalibration.c ****         {
 453:.\PeltierCalibration.c ****             Peltier1_PWM_Ctrl_WriteCompare(100);
 1467              		.loc 1 453 0
 1468 0182 6420     		movs	r0, #100
 1469 0184 FFF7FEFF 		bl	Peltier1_PWM_Ctrl_WriteCompare
 1470 0188 05E0     		b	.L91
 1471              	.L90:
 454:.\PeltierCalibration.c ****         }
 455:.\PeltierCalibration.c ****         else if (moduleNumber == 2)
 1472              		.loc 1 455 0
 1473 018a FB79     		ldrb	r3, [r7, #7]	@ zero_extendqisi2
 1474 018c 022B     		cmp	r3, #2
 1475 018e 02D1     		bne	.L91
 456:.\PeltierCalibration.c ****         {
 457:.\PeltierCalibration.c ****             Peltier2_PWM_Ctrl_WriteCompare(100);
 1476              		.loc 1 457 0
 1477 0190 6420     		movs	r0, #100
 1478 0192 FFF7FEFF 		bl	Peltier2_PWM_Ctrl_WriteCompare
 1479              	.L91:
 458:.\PeltierCalibration.c ****         }
 459:.\PeltierCalibration.c ****         
 460:.\PeltierCalibration.c ****         // Reactivate the desired Peltier Element.
 461:.\PeltierCalibration.c ****         changePeltierModuleState(1,moduleNumber);
 1480              		.loc 1 461 0
 1481 0196 FB79     		ldrb	r3, [r7, #7]	@ zero_extendqisi2
 1482 0198 0120     		movs	r0, #1
 1483 019a 1946     		mov	r1, r3
 1484 019c FFF7FEFF 		bl	changePeltierModuleState
 1485              	.L76:
 462:.\PeltierCalibration.c ****         
 463:.\PeltierCalibration.c ****         /*
 464:.\PeltierCalibration.c ****         if(targetTemp > 25) // need to apply heat to maintain temperature
 465:.\PeltierCalibration.c ****         {
 466:.\PeltierCalibration.c ****             Peltier_on_Write(0u);   // Signal inH_1 and inH_2 
 467:.\PeltierCalibration.c ****             peltier_control_Write(PELTIER_HEAT);    // Sets the H_bridge to heat or cool depending 
 468:.\PeltierCalibration.c ****             peltierPWM_WriteCompare(100);   // TODO Calculate this value in function of targetTemp
 469:.\PeltierCalibration.c ****             Peltier_on_Write(1u);   // Signal inH_1 and inH_2 
 470:.\PeltierCalibration.c ****         }
 471:.\PeltierCalibration.c ****         else    // Need to cool 
 472:.\PeltierCalibration.c ****         {
 473:.\PeltierCalibration.c ****             Peltier_on_Write(0u);   // Signal inH_1 and inH_2 
 474:.\PeltierCalibration.c ****             peltier_control_Write(PELTIER_COOL);    // Sets the H_bridge to heat or cool depending 
 475:.\PeltierCalibration.c ****             peltierPWM_WriteCompare(100); 
 476:.\PeltierCalibration.c ****             Peltier_on_Write(1u);   // Signal inH_1 and inH_2 
 477:.\PeltierCalibration.c ****         }*/
 478:.\PeltierCalibration.c ****     }
 479:.\PeltierCalibration.c **** }
 1486              		.loc 1 479 0
ARM GAS  C:\Users\plod1602\AppData\Local\Temp\cckpLv0Q.s 			page 36


 1487 01a0 2037     		adds	r7, r7, #32
 1488 01a2 BD46     		mov	sp, r7
 1489              		@ sp needed
 1490 01a4 80BD     		pop	{r7, pc}
 1491              	.L93:
 1492 01a6 00BF     		.align	3
 1493              	.L92:
 1494 01a8 00000000 		.word	0
 1495 01ac 00C07240 		.word	1081262080
 1496 01b0 0AD7A370 		.word	1889785610
 1497 01b4 3D0AE33F 		.word	1071843901
 1498 01b8 F2D24D62 		.word	1649267442
 1499 01bc 1058D93F 		.word	1071208464
 1500 01c0 00806040 		.word	1080066048
 1501 01c4 00007840 		.word	1081606144
 1502              		.cfi_endproc
 1503              	.LFE62:
 1504              		.size	peltierControl, .-peltierControl
 1505              		.section	.text.getThermistorTemp,"ax",%progbits
 1506              		.align	2
 1507              		.global	getThermistorTemp
 1508              		.thumb
 1509              		.thumb_func
 1510              		.type	getThermistorTemp, %function
 1511              	getThermistorTemp:
 1512              	.LFB63:
 480:.\PeltierCalibration.c **** 
 481:.\PeltierCalibration.c **** /*===========================================================================*/
 482:.\PeltierCalibration.c **** // TODO: Adapt function to select which thermistor we want to read and to modify SM1 or SM2 current
 483:.\PeltierCalibration.c **** int16 getThermistorTemp(uint8 moduleNumber)
 484:.\PeltierCalibration.c **** {
 1513              		.loc 1 484 0
 1514              		.cfi_startproc
 1515              		@ args = 0, pretend = 0, frame = 24
 1516              		@ frame_needed = 1, uses_anonymous_args = 0
 1517 0000 80B5     		push	{r7, lr}
 1518              		.cfi_def_cfa_offset 8
 1519              		.cfi_offset 7, -8
 1520              		.cfi_offset 14, -4
 1521 0002 86B0     		sub	sp, sp, #24
 1522              		.cfi_def_cfa_offset 32
 1523 0004 00AF     		add	r7, sp, #0
 1524              		.cfi_def_cfa_register 7
 1525 0006 0346     		mov	r3, r0
 1526 0008 FB71     		strb	r3, [r7, #7]
 485:.\PeltierCalibration.c ****     int32 iVtherm, iVref;
 486:.\PeltierCalibration.c ****     uint32 iRes;
 487:.\PeltierCalibration.c **** 
 488:.\PeltierCalibration.c ****     /* Measure Voltage Across Thermistor*/
 489:.\PeltierCalibration.c ****     iVtherm = MeasureResistorVoltage(AMUX_1_VT);
 1527              		.loc 1 489 0
 1528 000a 0020     		movs	r0, #0
 1529 000c FFF7FEFF 		bl	MeasureResistorVoltage
 1530 0010 7861     		str	r0, [r7, #20]
 490:.\PeltierCalibration.c ****     /* Measure Voltage Across Reference Resistor*/
 491:.\PeltierCalibration.c ****     iVref = MeasureResistorVoltage(AMUX_1_VREF);
 1531              		.loc 1 491 0
ARM GAS  C:\Users\plod1602\AppData\Local\Temp\cckpLv0Q.s 			page 37


 1532 0012 0120     		movs	r0, #1
 1533 0014 FFF7FEFF 		bl	MeasureResistorVoltage
 1534 0018 3861     		str	r0, [r7, #16]
 492:.\PeltierCalibration.c **** 
 493:.\PeltierCalibration.c ****     /* Use the thermistor component API function call to obtain the temperature corresponding to th
 494:.\PeltierCalibration.c ****     iRes = Thermistor_1_GetResistance(iVref, iVtherm);
 1535              		.loc 1 494 0
 1536 001a 3B69     		ldr	r3, [r7, #16]
 1537 001c 9AB2     		uxth	r2, r3
 1538 001e 7B69     		ldr	r3, [r7, #20]
 1539 0020 9BB2     		uxth	r3, r3
 1540 0022 12B2     		sxth	r2, r2
 1541 0024 1BB2     		sxth	r3, r3
 1542 0026 1046     		mov	r0, r2
 1543 0028 1946     		mov	r1, r3
 1544 002a FFF7FEFF 		bl	Thermistor_1_GetResistance
 1545 002e F860     		str	r0, [r7, #12]
 495:.\PeltierCalibration.c **** 
 496:.\PeltierCalibration.c ****     return Thermistor_1_GetTemperature(iRes);
 1546              		.loc 1 496 0
 1547 0030 F868     		ldr	r0, [r7, #12]
 1548 0032 FFF7FEFF 		bl	Thermistor_1_GetTemperature
 1549 0036 0346     		mov	r3, r0
 497:.\PeltierCalibration.c **** }
 1550              		.loc 1 497 0
 1551 0038 1846     		mov	r0, r3
 1552 003a 1837     		adds	r7, r7, #24
 1553 003c BD46     		mov	sp, r7
 1554              		@ sp needed
 1555 003e 80BD     		pop	{r7, pc}
 1556              		.cfi_endproc
 1557              	.LFE63:
 1558              		.size	getThermistorTemp, .-getThermistorTemp
 1559              		.section	.text.getTemperature,"ax",%progbits
 1560              		.align	2
 1561              		.global	getTemperature
 1562              		.thumb
 1563              		.thumb_func
 1564              		.type	getTemperature, %function
 1565              	getTemperature:
 1566              	.LFB64:
 498:.\PeltierCalibration.c **** 
 499:.\PeltierCalibration.c **** int16 getTemperature(uint8 moduleNumber)
 500:.\PeltierCalibration.c **** {
 1567              		.loc 1 500 0
 1568              		.cfi_startproc
 1569              		@ args = 0, pretend = 0, frame = 16
 1570              		@ frame_needed = 1, uses_anonymous_args = 0
 1571              		@ link register save eliminated.
 1572 0000 80B4     		push	{r7}
 1573              		.cfi_def_cfa_offset 4
 1574              		.cfi_offset 7, -4
 1575 0002 85B0     		sub	sp, sp, #20
 1576              		.cfi_def_cfa_offset 24
 1577 0004 00AF     		add	r7, sp, #0
 1578              		.cfi_def_cfa_register 7
 1579 0006 0346     		mov	r3, r0
ARM GAS  C:\Users\plod1602\AppData\Local\Temp\cckpLv0Q.s 			page 38


 1580 0008 FB71     		strb	r3, [r7, #7]
 501:.\PeltierCalibration.c ****     uint8 maxValue;
 502:.\PeltierCalibration.c ****     uint8 pwmCompare;
 503:.\PeltierCalibration.c ****     int16 temperature;
 504:.\PeltierCalibration.c ****     
 505:.\PeltierCalibration.c ****     switch (moduleNumber)
 1581              		.loc 1 505 0
 1582 000a FB79     		ldrb	r3, [r7, #7]	@ zero_extendqisi2
 1583 000c 012B     		cmp	r3, #1
 1584 000e 02D0     		beq	.L102
 1585 0010 022B     		cmp	r3, #2
 1586 0012 02D0     		beq	.L103
 506:.\PeltierCalibration.c ****     {
 507:.\PeltierCalibration.c ****         case (1):
 508:.\PeltierCalibration.c ****           
 509:.\PeltierCalibration.c ****             break;
 510:.\PeltierCalibration.c ****         case (2):
 511:.\PeltierCalibration.c ****           
 512:.\PeltierCalibration.c ****             break;
 513:.\PeltierCalibration.c ****         default:
 514:.\PeltierCalibration.c ****             break;
 1587              		.loc 1 514 0
 1588 0014 02E0     		b	.L100
 1589              	.L102:
 509:.\PeltierCalibration.c ****             break;
 1590              		.loc 1 509 0
 1591 0016 00BF     		nop
 1592 0018 00E0     		b	.L100
 1593              	.L103:
 512:.\PeltierCalibration.c ****             break;
 1594              		.loc 1 512 0
 1595 001a 00BF     		nop
 1596              	.L100:
 515:.\PeltierCalibration.c ****     }    
 516:.\PeltierCalibration.c **** 
 517:.\PeltierCalibration.c ****     return temperature;     
 1597              		.loc 1 517 0
 1598 001c FB89     		ldrh	r3, [r7, #14]
 1599 001e 1BB2     		sxth	r3, r3
 518:.\PeltierCalibration.c **** }
 1600              		.loc 1 518 0
 1601 0020 1846     		mov	r0, r3
 1602 0022 1437     		adds	r7, r7, #20
 1603 0024 BD46     		mov	sp, r7
 1604              		@ sp needed
 1605 0026 5DF8047B 		ldr	r7, [sp], #4
 1606 002a 7047     		bx	lr
 1607              		.cfi_endproc
 1608              	.LFE64:
 1609              		.size	getTemperature, .-getTemperature
 1610              		.section	.text.changeFanSpeed,"ax",%progbits
 1611              		.align	2
 1612              		.global	changeFanSpeed
 1613              		.thumb
 1614              		.thumb_func
 1615              		.type	changeFanSpeed, %function
 1616              	changeFanSpeed:
ARM GAS  C:\Users\plod1602\AppData\Local\Temp\cckpLv0Q.s 			page 39


 1617              	.LFB65:
 519:.\PeltierCalibration.c **** 
 520:.\PeltierCalibration.c **** // Fan functions section
 521:.\PeltierCalibration.c **** void changeFanSpeed(uint8 percentage, uint8 moduleNumber)
 522:.\PeltierCalibration.c **** {
 1618              		.loc 1 522 0
 1619              		.cfi_startproc
 1620              		@ args = 0, pretend = 0, frame = 16
 1621              		@ frame_needed = 1, uses_anonymous_args = 0
 1622 0000 80B5     		push	{r7, lr}
 1623              		.cfi_def_cfa_offset 8
 1624              		.cfi_offset 7, -8
 1625              		.cfi_offset 14, -4
 1626 0002 84B0     		sub	sp, sp, #16
 1627              		.cfi_def_cfa_offset 24
 1628 0004 00AF     		add	r7, sp, #0
 1629              		.cfi_def_cfa_register 7
 1630 0006 0246     		mov	r2, r0
 1631 0008 0B46     		mov	r3, r1
 1632 000a FA71     		strb	r2, [r7, #7]
 1633 000c BB71     		strb	r3, [r7, #6]
 523:.\PeltierCalibration.c ****     uint8 maxValue;
 524:.\PeltierCalibration.c ****     uint8 toWrite;
 525:.\PeltierCalibration.c ****     
 526:.\PeltierCalibration.c ****     switch (moduleNumber)
 1634              		.loc 1 526 0
 1635 000e BB79     		ldrb	r3, [r7, #6]	@ zero_extendqisi2
 1636 0010 012B     		cmp	r3, #1
 1637 0012 02D0     		beq	.L106
 1638 0014 022B     		cmp	r3, #2
 1639 0016 1BD0     		beq	.L107
 527:.\PeltierCalibration.c ****     {
 528:.\PeltierCalibration.c ****         case (1):
 529:.\PeltierCalibration.c ****             if (SM1.temperatureMode == Waiting)
 530:.\PeltierCalibration.c ****             {
 531:.\PeltierCalibration.c ****                 maxValue = pwmFan_1_ReadPeriod();
 532:.\PeltierCalibration.c ****                 toWrite = (percentage*(maxValue/100));
 533:.\PeltierCalibration.c ****                 pwmFan_1_WriteCompare(toWrite);
 534:.\PeltierCalibration.c ****                 SM1.fanSpeed = toWrite;                  
 535:.\PeltierCalibration.c ****             }
 536:.\PeltierCalibration.c ****             break; 
 537:.\PeltierCalibration.c **** 
 538:.\PeltierCalibration.c ****         case (2):
 539:.\PeltierCalibration.c ****             if (SM2.temperatureMode == Waiting)
 540:.\PeltierCalibration.c ****             {        
 541:.\PeltierCalibration.c ****                 maxValue = pwmFan_2_ReadPeriod();
 542:.\PeltierCalibration.c ****                 toWrite = (percentage*(maxValue/100));
 543:.\PeltierCalibration.c ****                 pwmFan_2_WriteCompare(toWrite);
 544:.\PeltierCalibration.c ****                 SM2.fanSpeed = toWrite;
 545:.\PeltierCalibration.c ****             }
 546:.\PeltierCalibration.c ****             break;
 547:.\PeltierCalibration.c ****         default:
 548:.\PeltierCalibration.c ****             break;
 1640              		.loc 1 548 0
 1641 0018 35E0     		b	.L104
 1642              	.L106:
 529:.\PeltierCalibration.c ****             if (SM1.temperatureMode == Waiting)
ARM GAS  C:\Users\plod1602\AppData\Local\Temp\cckpLv0Q.s 			page 40


 1643              		.loc 1 529 0
 1644 001a 1C4B     		ldr	r3, .L112
 1645 001c 1B7B     		ldrb	r3, [r3, #12]	@ zero_extendqisi2
 1646 001e 042B     		cmp	r3, #4
 1647 0020 15D1     		bne	.L108
 531:.\PeltierCalibration.c ****                 maxValue = pwmFan_1_ReadPeriod();
 1648              		.loc 1 531 0
 1649 0022 FFF7FEFF 		bl	pwmFan_1_ReadPeriod
 1650 0026 0346     		mov	r3, r0
 1651 0028 FB73     		strb	r3, [r7, #15]
 532:.\PeltierCalibration.c ****                 toWrite = (percentage*(maxValue/100));
 1652              		.loc 1 532 0
 1653 002a FA7B     		ldrb	r2, [r7, #15]	@ zero_extendqisi2
 1654 002c 184B     		ldr	r3, .L112+4
 1655 002e A3FB0213 		umull	r1, r3, r3, r2
 1656 0032 5B09     		lsrs	r3, r3, #5
 1657 0034 DBB2     		uxtb	r3, r3
 1658 0036 FA79     		ldrb	r2, [r7, #7]
 1659 0038 02FB03F3 		mul	r3, r2, r3
 1660 003c BB73     		strb	r3, [r7, #14]
 533:.\PeltierCalibration.c ****                 pwmFan_1_WriteCompare(toWrite);
 1661              		.loc 1 533 0
 1662 003e BB7B     		ldrb	r3, [r7, #14]	@ zero_extendqisi2
 1663 0040 1846     		mov	r0, r3
 1664 0042 FFF7FEFF 		bl	pwmFan_1_WriteCompare
 534:.\PeltierCalibration.c ****                 SM1.fanSpeed = toWrite;                  
 1665              		.loc 1 534 0
 1666 0046 114B     		ldr	r3, .L112
 1667 0048 BA7B     		ldrb	r2, [r7, #14]
 1668 004a 1A75     		strb	r2, [r3, #20]
 536:.\PeltierCalibration.c ****             break; 
 1669              		.loc 1 536 0
 1670 004c 1BE0     		b	.L104
 1671              	.L108:
 1672 004e 1AE0     		b	.L104
 1673              	.L107:
 539:.\PeltierCalibration.c ****             if (SM2.temperatureMode == Waiting)
 1674              		.loc 1 539 0
 1675 0050 104B     		ldr	r3, .L112+8
 1676 0052 1B7B     		ldrb	r3, [r3, #12]	@ zero_extendqisi2
 1677 0054 042B     		cmp	r3, #4
 1678 0056 15D1     		bne	.L110
 541:.\PeltierCalibration.c ****                 maxValue = pwmFan_2_ReadPeriod();
 1679              		.loc 1 541 0
 1680 0058 FFF7FEFF 		bl	pwmFan_2_ReadPeriod
 1681 005c 0346     		mov	r3, r0
 1682 005e FB73     		strb	r3, [r7, #15]
 542:.\PeltierCalibration.c ****                 toWrite = (percentage*(maxValue/100));
 1683              		.loc 1 542 0
 1684 0060 FA7B     		ldrb	r2, [r7, #15]	@ zero_extendqisi2
 1685 0062 0B4B     		ldr	r3, .L112+4
 1686 0064 A3FB0213 		umull	r1, r3, r3, r2
 1687 0068 5B09     		lsrs	r3, r3, #5
 1688 006a DBB2     		uxtb	r3, r3
 1689 006c FA79     		ldrb	r2, [r7, #7]
 1690 006e 02FB03F3 		mul	r3, r2, r3
 1691 0072 BB73     		strb	r3, [r7, #14]
ARM GAS  C:\Users\plod1602\AppData\Local\Temp\cckpLv0Q.s 			page 41


 543:.\PeltierCalibration.c ****                 pwmFan_2_WriteCompare(toWrite);
 1692              		.loc 1 543 0
 1693 0074 BB7B     		ldrb	r3, [r7, #14]	@ zero_extendqisi2
 1694 0076 1846     		mov	r0, r3
 1695 0078 FFF7FEFF 		bl	pwmFan_2_WriteCompare
 544:.\PeltierCalibration.c ****                 SM2.fanSpeed = toWrite;
 1696              		.loc 1 544 0
 1697 007c 054B     		ldr	r3, .L112+8
 1698 007e BA7B     		ldrb	r2, [r7, #14]
 1699 0080 1A75     		strb	r2, [r3, #20]
 546:.\PeltierCalibration.c ****             break;
 1700              		.loc 1 546 0
 1701 0082 FFE7     		b	.L111
 1702              	.L110:
 1703              	.L111:
 1704 0084 00BF     		nop
 1705              	.L104:
 549:.\PeltierCalibration.c ****     }
 550:.\PeltierCalibration.c **** }
 1706              		.loc 1 550 0
 1707 0086 1037     		adds	r7, r7, #16
 1708 0088 BD46     		mov	sp, r7
 1709              		@ sp needed
 1710 008a 80BD     		pop	{r7, pc}
 1711              	.L113:
 1712              		.align	2
 1713              	.L112:
 1714 008c 00000000 		.word	SM1
 1715 0090 1F85EB51 		.word	1374389535
 1716 0094 00000000 		.word	SM2
 1717              		.cfi_endproc
 1718              	.LFE65:
 1719              		.size	changeFanSpeed, .-changeFanSpeed
 1720              		.section	.text.getFanSpeed,"ax",%progbits
 1721              		.align	2
 1722              		.global	getFanSpeed
 1723              		.thumb
 1724              		.thumb_func
 1725              		.type	getFanSpeed, %function
 1726              	getFanSpeed:
 1727              	.LFB66:
 551:.\PeltierCalibration.c **** uint8 getFanSpeed(uint8 moduleNumber)
 552:.\PeltierCalibration.c **** {
 1728              		.loc 1 552 0
 1729              		.cfi_startproc
 1730              		@ args = 0, pretend = 0, frame = 16
 1731              		@ frame_needed = 1, uses_anonymous_args = 0
 1732              		@ link register save eliminated.
 1733 0000 80B4     		push	{r7}
 1734              		.cfi_def_cfa_offset 4
 1735              		.cfi_offset 7, -4
 1736 0002 85B0     		sub	sp, sp, #20
 1737              		.cfi_def_cfa_offset 24
 1738 0004 00AF     		add	r7, sp, #0
 1739              		.cfi_def_cfa_register 7
 1740 0006 0346     		mov	r3, r0
 1741 0008 FB71     		strb	r3, [r7, #7]
ARM GAS  C:\Users\plod1602\AppData\Local\Temp\cckpLv0Q.s 			page 42


 553:.\PeltierCalibration.c ****     uint8 percentage = 0;
 1742              		.loc 1 553 0
 1743 000a 0023     		movs	r3, #0
 1744 000c FB73     		strb	r3, [r7, #15]
 554:.\PeltierCalibration.c ****     switch (moduleNumber)
 1745              		.loc 1 554 0
 1746 000e FB79     		ldrb	r3, [r7, #7]	@ zero_extendqisi2
 1747 0010 012B     		cmp	r3, #1
 1748 0012 02D0     		beq	.L116
 1749 0014 022B     		cmp	r3, #2
 1750 0016 04D0     		beq	.L117
 555:.\PeltierCalibration.c ****     {
 556:.\PeltierCalibration.c ****         case (1):
 557:.\PeltierCalibration.c ****             percentage = SM1.fanSpeed;
 558:.\PeltierCalibration.c ****             break;
 559:.\PeltierCalibration.c ****         case (2):
 560:.\PeltierCalibration.c ****             percentage = SM2.fanSpeed;
 561:.\PeltierCalibration.c ****             break;
 562:.\PeltierCalibration.c ****         default:
 563:.\PeltierCalibration.c ****             break;
 1751              		.loc 1 563 0
 1752 0018 07E0     		b	.L118
 1753              	.L116:
 557:.\PeltierCalibration.c ****             percentage = SM1.fanSpeed;
 1754              		.loc 1 557 0
 1755 001a 074B     		ldr	r3, .L120
 1756 001c 1B7D     		ldrb	r3, [r3, #20]
 1757 001e FB73     		strb	r3, [r7, #15]
 558:.\PeltierCalibration.c ****             break;
 1758              		.loc 1 558 0
 1759 0020 03E0     		b	.L118
 1760              	.L117:
 560:.\PeltierCalibration.c ****             percentage = SM2.fanSpeed;
 1761              		.loc 1 560 0
 1762 0022 064B     		ldr	r3, .L120+4
 1763 0024 1B7D     		ldrb	r3, [r3, #20]
 1764 0026 FB73     		strb	r3, [r7, #15]
 561:.\PeltierCalibration.c ****             break;
 1765              		.loc 1 561 0
 1766 0028 00BF     		nop
 1767              	.L118:
 564:.\PeltierCalibration.c ****     }
 565:.\PeltierCalibration.c ****     return percentage;
 1768              		.loc 1 565 0
 1769 002a FB7B     		ldrb	r3, [r7, #15]	@ zero_extendqisi2
 566:.\PeltierCalibration.c ****     
 567:.\PeltierCalibration.c ****     /*
 568:.\PeltierCalibration.c ****     uint8 maxValue = 0;
 569:.\PeltierCalibration.c ****     uint8 pwmCompare = 0;
 570:.\PeltierCalibration.c ****     uint8 percentage = 0;
 571:.\PeltierCalibration.c ****     
 572:.\PeltierCalibration.c ****     switch (moduleNumber)
 573:.\PeltierCalibration.c ****     {
 574:.\PeltierCalibration.c ****         case (1):
 575:.\PeltierCalibration.c ****             maxValue = pwmFan_1_ReadPeriod();
 576:.\PeltierCalibration.c ****             pwmCompare = pwmFan_1_ReadCompare();  
 577:.\PeltierCalibration.c ****             percentage = 100*pwmCompare/maxValue;
ARM GAS  C:\Users\plod1602\AppData\Local\Temp\cckpLv0Q.s 			page 43


 578:.\PeltierCalibration.c ****             //SM1.fanSpeed = percentage;
 579:.\PeltierCalibration.c ****             break;
 580:.\PeltierCalibration.c ****         case (2):
 581:.\PeltierCalibration.c ****             maxValue = pwmFan_2_ReadPeriod();
 582:.\PeltierCalibration.c ****             pwmCompare = pwmFan_2_ReadCompare(); 
 583:.\PeltierCalibration.c ****             percentage = 100*pwmCompare/maxValue;
 584:.\PeltierCalibration.c ****             //SM2.fanSpeed = percentage;
 585:.\PeltierCalibration.c ****             break;
 586:.\PeltierCalibration.c ****         default:
 587:.\PeltierCalibration.c ****             break;
 588:.\PeltierCalibration.c ****     }
 589:.\PeltierCalibration.c ****     return percentage;*/
 590:.\PeltierCalibration.c **** }
 1770              		.loc 1 590 0
 1771 002c 1846     		mov	r0, r3
 1772 002e 1437     		adds	r7, r7, #20
 1773 0030 BD46     		mov	sp, r7
 1774              		@ sp needed
 1775 0032 5DF8047B 		ldr	r7, [sp], #4
 1776 0036 7047     		bx	lr
 1777              	.L121:
 1778              		.align	2
 1779              	.L120:
 1780 0038 00000000 		.word	SM1
 1781 003c 00000000 		.word	SM2
 1782              		.cfi_endproc
 1783              	.LFE66:
 1784              		.size	getFanSpeed, .-getFanSpeed
 1785              		.section	.text.changeFanState,"ax",%progbits
 1786              		.align	2
 1787              		.global	changeFanState
 1788              		.thumb
 1789              		.thumb_func
 1790              		.type	changeFanState, %function
 1791              	changeFanState:
 1792              	.LFB67:
 591:.\PeltierCalibration.c **** int8 changeFanState(uint8 fanEnableState, uint8 moduleNumber)
 592:.\PeltierCalibration.c **** {
 1793              		.loc 1 592 0
 1794              		.cfi_startproc
 1795              		@ args = 0, pretend = 0, frame = 16
 1796              		@ frame_needed = 1, uses_anonymous_args = 0
 1797 0000 80B5     		push	{r7, lr}
 1798              		.cfi_def_cfa_offset 8
 1799              		.cfi_offset 7, -8
 1800              		.cfi_offset 14, -4
 1801 0002 84B0     		sub	sp, sp, #16
 1802              		.cfi_def_cfa_offset 24
 1803 0004 00AF     		add	r7, sp, #0
 1804              		.cfi_def_cfa_register 7
 1805 0006 0246     		mov	r2, r0
 1806 0008 0B46     		mov	r3, r1
 1807 000a FA71     		strb	r2, [r7, #7]
 1808 000c BB71     		strb	r3, [r7, #6]
 593:.\PeltierCalibration.c ****     fanState_type desiredFanState;
 594:.\PeltierCalibration.c ****     if (fanEnableState == fanDisabled)
 1809              		.loc 1 594 0
ARM GAS  C:\Users\plod1602\AppData\Local\Temp\cckpLv0Q.s 			page 44


 1810 000e FB79     		ldrb	r3, [r7, #7]	@ zero_extendqisi2
 1811 0010 002B     		cmp	r3, #0
 1812 0012 02D1     		bne	.L123
 595:.\PeltierCalibration.c ****     {
 596:.\PeltierCalibration.c ****         desiredFanState = fanDisabled;
 1813              		.loc 1 596 0
 1814 0014 0023     		movs	r3, #0
 1815 0016 FB73     		strb	r3, [r7, #15]
 1816 0018 04E0     		b	.L124
 1817              	.L123:
 597:.\PeltierCalibration.c ****     }
 598:.\PeltierCalibration.c ****     else if (fanEnableState == fanEnabled)
 1818              		.loc 1 598 0
 1819 001a FB79     		ldrb	r3, [r7, #7]	@ zero_extendqisi2
 1820 001c 012B     		cmp	r3, #1
 1821 001e 01D1     		bne	.L124
 599:.\PeltierCalibration.c ****     {
 600:.\PeltierCalibration.c ****         desiredFanState = fanEnabled;
 1822              		.loc 1 600 0
 1823 0020 0123     		movs	r3, #1
 1824 0022 FB73     		strb	r3, [r7, #15]
 1825              	.L124:
 601:.\PeltierCalibration.c ****     }
 602:.\PeltierCalibration.c ****     
 603:.\PeltierCalibration.c ****     switch (moduleNumber)
 1826              		.loc 1 603 0
 1827 0024 BB79     		ldrb	r3, [r7, #6]	@ zero_extendqisi2
 1828 0026 012B     		cmp	r3, #1
 1829 0028 02D0     		beq	.L126
 1830 002a 022B     		cmp	r3, #2
 1831 002c 08D0     		beq	.L127
 604:.\PeltierCalibration.c ****     {
 605:.\PeltierCalibration.c ****         case (1):
 606:.\PeltierCalibration.c ****             fanPeltier1_Enable_Write(fanEnableState);            
 607:.\PeltierCalibration.c ****             SM1.fanState = desiredFanState;
 608:.\PeltierCalibration.c ****             break;
 609:.\PeltierCalibration.c ****         case (2):
 610:.\PeltierCalibration.c ****             fanPeltier2_Enable_Write(fanEnableState);
 611:.\PeltierCalibration.c ****             SM2.fanState = desiredFanState;
 612:.\PeltierCalibration.c ****             break;
 613:.\PeltierCalibration.c ****         default:
 614:.\PeltierCalibration.c ****             break;
 1832              		.loc 1 614 0
 1833 002e 0FE0     		b	.L128
 1834              	.L126:
 606:.\PeltierCalibration.c ****             fanPeltier1_Enable_Write(fanEnableState);            
 1835              		.loc 1 606 0
 1836 0030 FB79     		ldrb	r3, [r7, #7]	@ zero_extendqisi2
 1837 0032 1846     		mov	r0, r3
 1838 0034 FFF7FEFF 		bl	fanPeltier1_Enable_Write
 607:.\PeltierCalibration.c ****             SM1.fanState = desiredFanState;
 1839              		.loc 1 607 0
 1840 0038 084B     		ldr	r3, .L130
 1841 003a FA7B     		ldrb	r2, [r7, #15]
 1842 003c 5A75     		strb	r2, [r3, #21]
 608:.\PeltierCalibration.c ****             break;
 1843              		.loc 1 608 0
ARM GAS  C:\Users\plod1602\AppData\Local\Temp\cckpLv0Q.s 			page 45


 1844 003e 07E0     		b	.L128
 1845              	.L127:
 610:.\PeltierCalibration.c ****             fanPeltier2_Enable_Write(fanEnableState);
 1846              		.loc 1 610 0
 1847 0040 FB79     		ldrb	r3, [r7, #7]	@ zero_extendqisi2
 1848 0042 1846     		mov	r0, r3
 1849 0044 FFF7FEFF 		bl	fanPeltier2_Enable_Write
 611:.\PeltierCalibration.c ****             SM2.fanState = desiredFanState;
 1850              		.loc 1 611 0
 1851 0048 054B     		ldr	r3, .L130+4
 1852 004a FA7B     		ldrb	r2, [r7, #15]
 1853 004c 5A75     		strb	r2, [r3, #21]
 612:.\PeltierCalibration.c ****             break;
 1854              		.loc 1 612 0
 1855 004e 00BF     		nop
 1856              	.L128:
 615:.\PeltierCalibration.c ****     }    
 616:.\PeltierCalibration.c ****     return 1;
 1857              		.loc 1 616 0
 1858 0050 0123     		movs	r3, #1
 1859 0052 5BB2     		sxtb	r3, r3
 617:.\PeltierCalibration.c **** }
 1860              		.loc 1 617 0
 1861 0054 1846     		mov	r0, r3
 1862 0056 1037     		adds	r7, r7, #16
 1863 0058 BD46     		mov	sp, r7
 1864              		@ sp needed
 1865 005a 80BD     		pop	{r7, pc}
 1866              	.L131:
 1867              		.align	2
 1868              	.L130:
 1869 005c 00000000 		.word	SM1
 1870 0060 00000000 		.word	SM2
 1871              		.cfi_endproc
 1872              	.LFE67:
 1873              		.size	changeFanState, .-changeFanState
 1874              		.section	.text.changeAgitatorSpeed,"ax",%progbits
 1875              		.align	2
 1876              		.global	changeAgitatorSpeed
 1877              		.thumb
 1878              		.thumb_func
 1879              		.type	changeAgitatorSpeed, %function
 1880              	changeAgitatorSpeed:
 1881              	.LFB68:
 618:.\PeltierCalibration.c **** 
 619:.\PeltierCalibration.c **** // Agitator functions section
 620:.\PeltierCalibration.c **** void changeAgitatorSpeed(uint8 percentage, uint8 moduleNumber)
 621:.\PeltierCalibration.c **** {
 1882              		.loc 1 621 0
 1883              		.cfi_startproc
 1884              		@ args = 0, pretend = 0, frame = 16
 1885              		@ frame_needed = 1, uses_anonymous_args = 0
 1886 0000 80B5     		push	{r7, lr}
 1887              		.cfi_def_cfa_offset 8
 1888              		.cfi_offset 7, -8
 1889              		.cfi_offset 14, -4
 1890 0002 84B0     		sub	sp, sp, #16
ARM GAS  C:\Users\plod1602\AppData\Local\Temp\cckpLv0Q.s 			page 46


 1891              		.cfi_def_cfa_offset 24
 1892 0004 00AF     		add	r7, sp, #0
 1893              		.cfi_def_cfa_register 7
 1894 0006 0246     		mov	r2, r0
 1895 0008 0B46     		mov	r3, r1
 1896 000a FA71     		strb	r2, [r7, #7]
 1897 000c BB71     		strb	r3, [r7, #6]
 622:.\PeltierCalibration.c ****     uint8 maxValue;
 623:.\PeltierCalibration.c ****     uint8 toWrite;
 624:.\PeltierCalibration.c ****     
 625:.\PeltierCalibration.c ****     switch (moduleNumber)
 1898              		.loc 1 625 0
 1899 000e BB79     		ldrb	r3, [r7, #6]	@ zero_extendqisi2
 1900 0010 012B     		cmp	r3, #1
 1901 0012 02D0     		beq	.L134
 1902 0014 022B     		cmp	r3, #2
 1903 0016 16D0     		beq	.L135
 626:.\PeltierCalibration.c ****     {
 627:.\PeltierCalibration.c ****         case (1):
 628:.\PeltierCalibration.c ****             maxValue = pwmAgitator_1_ReadPeriod();
 629:.\PeltierCalibration.c ****             toWrite = (percentage*(maxValue/100));
 630:.\PeltierCalibration.c ****             pwmAgitator_1_WriteCompare(toWrite);
 631:.\PeltierCalibration.c ****             SM1.agitatorSpeed = toWrite;
 632:.\PeltierCalibration.c ****             break;
 633:.\PeltierCalibration.c ****         case (2):
 634:.\PeltierCalibration.c ****             maxValue = pwmAgitator_2_ReadPeriod();
 635:.\PeltierCalibration.c ****             toWrite = (percentage*(maxValue/100));
 636:.\PeltierCalibration.c ****             pwmAgitator_2_WriteCompare(toWrite);
 637:.\PeltierCalibration.c ****             SM2.agitatorSpeed = toWrite;
 638:.\PeltierCalibration.c ****             break;
 639:.\PeltierCalibration.c ****         default:
 640:.\PeltierCalibration.c ****             break;
 1904              		.loc 1 640 0
 1905 0018 2BE0     		b	.L132
 1906              	.L134:
 628:.\PeltierCalibration.c ****             maxValue = pwmAgitator_1_ReadPeriod();
 1907              		.loc 1 628 0
 1908 001a FFF7FEFF 		bl	pwmAgitator_1_ReadPeriod
 1909 001e 0346     		mov	r3, r0
 1910 0020 FB73     		strb	r3, [r7, #15]
 629:.\PeltierCalibration.c ****             toWrite = (percentage*(maxValue/100));
 1911              		.loc 1 629 0
 1912 0022 FA7B     		ldrb	r2, [r7, #15]	@ zero_extendqisi2
 1913 0024 144B     		ldr	r3, .L137
 1914 0026 A3FB0213 		umull	r1, r3, r3, r2
 1915 002a 5B09     		lsrs	r3, r3, #5
 1916 002c DBB2     		uxtb	r3, r3
 1917 002e FA79     		ldrb	r2, [r7, #7]
 1918 0030 02FB03F3 		mul	r3, r2, r3
 1919 0034 BB73     		strb	r3, [r7, #14]
 630:.\PeltierCalibration.c ****             pwmAgitator_1_WriteCompare(toWrite);
 1920              		.loc 1 630 0
 1921 0036 BB7B     		ldrb	r3, [r7, #14]	@ zero_extendqisi2
 1922 0038 1846     		mov	r0, r3
 1923 003a FFF7FEFF 		bl	pwmAgitator_1_WriteCompare
 631:.\PeltierCalibration.c ****             SM1.agitatorSpeed = toWrite;
 1924              		.loc 1 631 0
ARM GAS  C:\Users\plod1602\AppData\Local\Temp\cckpLv0Q.s 			page 47


 1925 003e 0F4B     		ldr	r3, .L137+4
 1926 0040 BA7B     		ldrb	r2, [r7, #14]
 1927 0042 9A74     		strb	r2, [r3, #18]
 632:.\PeltierCalibration.c ****             break;
 1928              		.loc 1 632 0
 1929 0044 15E0     		b	.L132
 1930              	.L135:
 634:.\PeltierCalibration.c ****             maxValue = pwmAgitator_2_ReadPeriod();
 1931              		.loc 1 634 0
 1932 0046 FFF7FEFF 		bl	pwmAgitator_2_ReadPeriod
 1933 004a 0346     		mov	r3, r0
 1934 004c FB73     		strb	r3, [r7, #15]
 635:.\PeltierCalibration.c ****             toWrite = (percentage*(maxValue/100));
 1935              		.loc 1 635 0
 1936 004e FA7B     		ldrb	r2, [r7, #15]	@ zero_extendqisi2
 1937 0050 094B     		ldr	r3, .L137
 1938 0052 A3FB0213 		umull	r1, r3, r3, r2
 1939 0056 5B09     		lsrs	r3, r3, #5
 1940 0058 DBB2     		uxtb	r3, r3
 1941 005a FA79     		ldrb	r2, [r7, #7]
 1942 005c 02FB03F3 		mul	r3, r2, r3
 1943 0060 BB73     		strb	r3, [r7, #14]
 636:.\PeltierCalibration.c ****             pwmAgitator_2_WriteCompare(toWrite);
 1944              		.loc 1 636 0
 1945 0062 BB7B     		ldrb	r3, [r7, #14]	@ zero_extendqisi2
 1946 0064 1846     		mov	r0, r3
 1947 0066 FFF7FEFF 		bl	pwmAgitator_2_WriteCompare
 637:.\PeltierCalibration.c ****             SM2.agitatorSpeed = toWrite;
 1948              		.loc 1 637 0
 1949 006a 054B     		ldr	r3, .L137+8
 1950 006c BA7B     		ldrb	r2, [r7, #14]
 1951 006e 9A74     		strb	r2, [r3, #18]
 638:.\PeltierCalibration.c ****             break;
 1952              		.loc 1 638 0
 1953 0070 00BF     		nop
 1954              	.L132:
 641:.\PeltierCalibration.c ****     }
 642:.\PeltierCalibration.c **** }
 1955              		.loc 1 642 0
 1956 0072 1037     		adds	r7, r7, #16
 1957 0074 BD46     		mov	sp, r7
 1958              		@ sp needed
 1959 0076 80BD     		pop	{r7, pc}
 1960              	.L138:
 1961              		.align	2
 1962              	.L137:
 1963 0078 1F85EB51 		.word	1374389535
 1964 007c 00000000 		.word	SM1
 1965 0080 00000000 		.word	SM2
 1966              		.cfi_endproc
 1967              	.LFE68:
 1968              		.size	changeAgitatorSpeed, .-changeAgitatorSpeed
 1969              		.section	.text.getAgitatorSpeed,"ax",%progbits
 1970              		.align	2
 1971              		.global	getAgitatorSpeed
 1972              		.thumb
 1973              		.thumb_func
ARM GAS  C:\Users\plod1602\AppData\Local\Temp\cckpLv0Q.s 			page 48


 1974              		.type	getAgitatorSpeed, %function
 1975              	getAgitatorSpeed:
 1976              	.LFB69:
 643:.\PeltierCalibration.c **** uint8 getAgitatorSpeed(uint8 moduleNumber)
 644:.\PeltierCalibration.c **** {
 1977              		.loc 1 644 0
 1978              		.cfi_startproc
 1979              		@ args = 0, pretend = 0, frame = 16
 1980              		@ frame_needed = 1, uses_anonymous_args = 0
 1981              		@ link register save eliminated.
 1982 0000 80B4     		push	{r7}
 1983              		.cfi_def_cfa_offset 4
 1984              		.cfi_offset 7, -4
 1985 0002 85B0     		sub	sp, sp, #20
 1986              		.cfi_def_cfa_offset 24
 1987 0004 00AF     		add	r7, sp, #0
 1988              		.cfi_def_cfa_register 7
 1989 0006 0346     		mov	r3, r0
 1990 0008 FB71     		strb	r3, [r7, #7]
 645:.\PeltierCalibration.c ****     
 646:.\PeltierCalibration.c ****     uint8 percentage = 0;
 1991              		.loc 1 646 0
 1992 000a 0023     		movs	r3, #0
 1993 000c FB73     		strb	r3, [r7, #15]
 647:.\PeltierCalibration.c ****     switch (moduleNumber)
 1994              		.loc 1 647 0
 1995 000e FB79     		ldrb	r3, [r7, #7]	@ zero_extendqisi2
 1996 0010 012B     		cmp	r3, #1
 1997 0012 02D0     		beq	.L141
 1998 0014 022B     		cmp	r3, #2
 1999 0016 04D0     		beq	.L142
 648:.\PeltierCalibration.c ****     {
 649:.\PeltierCalibration.c ****         case (1):
 650:.\PeltierCalibration.c ****             percentage = SM1.agitatorSpeed;
 651:.\PeltierCalibration.c ****             break;
 652:.\PeltierCalibration.c ****         case (2):
 653:.\PeltierCalibration.c ****             percentage = SM2.agitatorSpeed;
 654:.\PeltierCalibration.c ****             break;
 655:.\PeltierCalibration.c ****         default:
 656:.\PeltierCalibration.c ****             break;
 2000              		.loc 1 656 0
 2001 0018 07E0     		b	.L143
 2002              	.L141:
 650:.\PeltierCalibration.c ****             percentage = SM1.agitatorSpeed;
 2003              		.loc 1 650 0
 2004 001a 074B     		ldr	r3, .L145
 2005 001c 9B7C     		ldrb	r3, [r3, #18]
 2006 001e FB73     		strb	r3, [r7, #15]
 651:.\PeltierCalibration.c ****             break;
 2007              		.loc 1 651 0
 2008 0020 03E0     		b	.L143
 2009              	.L142:
 653:.\PeltierCalibration.c ****             percentage = SM2.agitatorSpeed;
 2010              		.loc 1 653 0
 2011 0022 064B     		ldr	r3, .L145+4
 2012 0024 9B7C     		ldrb	r3, [r3, #18]
 2013 0026 FB73     		strb	r3, [r7, #15]
ARM GAS  C:\Users\plod1602\AppData\Local\Temp\cckpLv0Q.s 			page 49


 654:.\PeltierCalibration.c ****             break;
 2014              		.loc 1 654 0
 2015 0028 00BF     		nop
 2016              	.L143:
 657:.\PeltierCalibration.c ****     }
 658:.\PeltierCalibration.c ****     return percentage;
 2017              		.loc 1 658 0
 2018 002a FB7B     		ldrb	r3, [r7, #15]	@ zero_extendqisi2
 659:.\PeltierCalibration.c ****     
 660:.\PeltierCalibration.c ****     /*
 661:.\PeltierCalibration.c ****     uint8 maxValue = 0;
 662:.\PeltierCalibration.c ****     uint8 pwmCompare = 0;
 663:.\PeltierCalibration.c ****     uint8 percentage = 0;
 664:.\PeltierCalibration.c ****     
 665:.\PeltierCalibration.c ****     switch (moduleNumber)
 666:.\PeltierCalibration.c ****     {
 667:.\PeltierCalibration.c ****         case (1):
 668:.\PeltierCalibration.c ****             maxValue = pwmAgitator_1_ReadPeriod();
 669:.\PeltierCalibration.c ****             pwmCompare = pwmAgitator_1_ReadCompare();
 670:.\PeltierCalibration.c ****             percentage = 100*pwmCompare/maxValue;
 671:.\PeltierCalibration.c ****             //SM1.agitatorSpeed = percentage;
 672:.\PeltierCalibration.c ****             break;
 673:.\PeltierCalibration.c ****         case (2):
 674:.\PeltierCalibration.c ****             maxValue = pwmAgitator_2_ReadPeriod();
 675:.\PeltierCalibration.c ****             pwmCompare = pwmAgitator_2_ReadCompare();
 676:.\PeltierCalibration.c ****             percentage = 100*pwmCompare/maxValue;
 677:.\PeltierCalibration.c ****             //SM2.agitatorSpeed = percentage;
 678:.\PeltierCalibration.c ****             break;
 679:.\PeltierCalibration.c ****         default:
 680:.\PeltierCalibration.c ****             break;
 681:.\PeltierCalibration.c ****     }
 682:.\PeltierCalibration.c ****     return percentage;*/    
 683:.\PeltierCalibration.c **** }
 2019              		.loc 1 683 0
 2020 002c 1846     		mov	r0, r3
 2021 002e 1437     		adds	r7, r7, #20
 2022 0030 BD46     		mov	sp, r7
 2023              		@ sp needed
 2024 0032 5DF8047B 		ldr	r7, [sp], #4
 2025 0036 7047     		bx	lr
 2026              	.L146:
 2027              		.align	2
 2028              	.L145:
 2029 0038 00000000 		.word	SM1
 2030 003c 00000000 		.word	SM2
 2031              		.cfi_endproc
 2032              	.LFE69:
 2033              		.size	getAgitatorSpeed, .-getAgitatorSpeed
 2034              		.section	.text.changeAgitatorState,"ax",%progbits
 2035              		.align	2
 2036              		.global	changeAgitatorState
 2037              		.thumb
 2038              		.thumb_func
 2039              		.type	changeAgitatorState, %function
 2040              	changeAgitatorState:
 2041              	.LFB70:
 684:.\PeltierCalibration.c **** int8 changeAgitatorState(uint8 agitatorEnableState, uint8 moduleNumber)
ARM GAS  C:\Users\plod1602\AppData\Local\Temp\cckpLv0Q.s 			page 50


 685:.\PeltierCalibration.c **** {    
 2042              		.loc 1 685 0
 2043              		.cfi_startproc
 2044              		@ args = 0, pretend = 0, frame = 16
 2045              		@ frame_needed = 1, uses_anonymous_args = 0
 2046 0000 80B5     		push	{r7, lr}
 2047              		.cfi_def_cfa_offset 8
 2048              		.cfi_offset 7, -8
 2049              		.cfi_offset 14, -4
 2050 0002 84B0     		sub	sp, sp, #16
 2051              		.cfi_def_cfa_offset 24
 2052 0004 00AF     		add	r7, sp, #0
 2053              		.cfi_def_cfa_register 7
 2054 0006 0246     		mov	r2, r0
 2055 0008 0B46     		mov	r3, r1
 2056 000a FA71     		strb	r2, [r7, #7]
 2057 000c BB71     		strb	r3, [r7, #6]
 686:.\PeltierCalibration.c ****     agitatorState_type desiredAgitatorState;
 687:.\PeltierCalibration.c ****     if (desiredAgitatorState == agitatorDisabled)
 2058              		.loc 1 687 0
 2059 000e FB7B     		ldrb	r3, [r7, #15]	@ zero_extendqisi2
 2060 0010 002B     		cmp	r3, #0
 2061 0012 02D1     		bne	.L148
 688:.\PeltierCalibration.c ****     {
 689:.\PeltierCalibration.c ****         desiredAgitatorState = agitatorDisabled;
 2062              		.loc 1 689 0
 2063 0014 0023     		movs	r3, #0
 2064 0016 FB73     		strb	r3, [r7, #15]
 2065 0018 04E0     		b	.L149
 2066              	.L148:
 690:.\PeltierCalibration.c ****     }
 691:.\PeltierCalibration.c ****     else if (desiredAgitatorState == agitatorEnabled)
 2067              		.loc 1 691 0
 2068 001a FB7B     		ldrb	r3, [r7, #15]	@ zero_extendqisi2
 2069 001c 012B     		cmp	r3, #1
 2070 001e 01D1     		bne	.L149
 692:.\PeltierCalibration.c ****     {
 693:.\PeltierCalibration.c ****         desiredAgitatorState = agitatorEnabled;
 2071              		.loc 1 693 0
 2072 0020 0123     		movs	r3, #1
 2073 0022 FB73     		strb	r3, [r7, #15]
 2074              	.L149:
 694:.\PeltierCalibration.c ****     }
 695:.\PeltierCalibration.c ****     
 696:.\PeltierCalibration.c ****     switch (moduleNumber)
 2075              		.loc 1 696 0
 2076 0024 BB79     		ldrb	r3, [r7, #6]	@ zero_extendqisi2
 2077 0026 012B     		cmp	r3, #1
 2078 0028 02D0     		beq	.L151
 2079 002a 022B     		cmp	r3, #2
 2080 002c 08D0     		beq	.L152
 697:.\PeltierCalibration.c ****     {
 698:.\PeltierCalibration.c ****         case (1):
 699:.\PeltierCalibration.c ****             outputAgitator1_Enable_Write(agitatorEnableState);
 700:.\PeltierCalibration.c ****             SM1.agitatorState = desiredAgitatorState;
 701:.\PeltierCalibration.c ****             break;
 702:.\PeltierCalibration.c ****         case (2):
ARM GAS  C:\Users\plod1602\AppData\Local\Temp\cckpLv0Q.s 			page 51


 703:.\PeltierCalibration.c ****             outputAgitator2_Enable_Write(agitatorEnableState);
 704:.\PeltierCalibration.c ****             SM2.agitatorState = desiredAgitatorState;
 705:.\PeltierCalibration.c ****             break;
 706:.\PeltierCalibration.c ****         default:
 707:.\PeltierCalibration.c ****             break;
 2081              		.loc 1 707 0
 2082 002e 0FE0     		b	.L153
 2083              	.L151:
 699:.\PeltierCalibration.c ****             outputAgitator1_Enable_Write(agitatorEnableState);
 2084              		.loc 1 699 0
 2085 0030 FB79     		ldrb	r3, [r7, #7]	@ zero_extendqisi2
 2086 0032 1846     		mov	r0, r3
 2087 0034 FFF7FEFF 		bl	outputAgitator1_Enable_Write
 700:.\PeltierCalibration.c ****             SM1.agitatorState = desiredAgitatorState;
 2088              		.loc 1 700 0
 2089 0038 084B     		ldr	r3, .L155
 2090 003a FA7B     		ldrb	r2, [r7, #15]
 2091 003c DA74     		strb	r2, [r3, #19]
 701:.\PeltierCalibration.c ****             break;
 2092              		.loc 1 701 0
 2093 003e 07E0     		b	.L153
 2094              	.L152:
 703:.\PeltierCalibration.c ****             outputAgitator2_Enable_Write(agitatorEnableState);
 2095              		.loc 1 703 0
 2096 0040 FB79     		ldrb	r3, [r7, #7]	@ zero_extendqisi2
 2097 0042 1846     		mov	r0, r3
 2098 0044 FFF7FEFF 		bl	outputAgitator2_Enable_Write
 704:.\PeltierCalibration.c ****             SM2.agitatorState = desiredAgitatorState;
 2099              		.loc 1 704 0
 2100 0048 054B     		ldr	r3, .L155+4
 2101 004a FA7B     		ldrb	r2, [r7, #15]
 2102 004c DA74     		strb	r2, [r3, #19]
 705:.\PeltierCalibration.c ****             break;
 2103              		.loc 1 705 0
 2104 004e 00BF     		nop
 2105              	.L153:
 708:.\PeltierCalibration.c ****     }
 709:.\PeltierCalibration.c ****     return 1;
 2106              		.loc 1 709 0
 2107 0050 0123     		movs	r3, #1
 2108 0052 5BB2     		sxtb	r3, r3
 710:.\PeltierCalibration.c **** }
 2109              		.loc 1 710 0
 2110 0054 1846     		mov	r0, r3
 2111 0056 1037     		adds	r7, r7, #16
 2112 0058 BD46     		mov	sp, r7
 2113              		@ sp needed
 2114 005a 80BD     		pop	{r7, pc}
 2115              	.L156:
 2116              		.align	2
 2117              	.L155:
 2118 005c 00000000 		.word	SM1
 2119 0060 00000000 		.word	SM2
 2120              		.cfi_endproc
 2121              	.LFE70:
 2122              		.size	changeAgitatorState, .-changeAgitatorState
 2123              		.section	.text.changePeltierModuleState,"ax",%progbits
ARM GAS  C:\Users\plod1602\AppData\Local\Temp\cckpLv0Q.s 			page 52


 2124              		.align	2
 2125              		.global	changePeltierModuleState
 2126              		.thumb
 2127              		.thumb_func
 2128              		.type	changePeltierModuleState, %function
 2129              	changePeltierModuleState:
 2130              	.LFB71:
 711:.\PeltierCalibration.c **** 
 712:.\PeltierCalibration.c **** // Peltier functions section
 713:.\PeltierCalibration.c **** uint8 changePeltierModuleState(uint8 peltierEnableState, uint8 moduleNumber)
 714:.\PeltierCalibration.c **** {        
 2131              		.loc 1 714 0
 2132              		.cfi_startproc
 2133              		@ args = 0, pretend = 0, frame = 16
 2134              		@ frame_needed = 1, uses_anonymous_args = 0
 2135 0000 80B5     		push	{r7, lr}
 2136              		.cfi_def_cfa_offset 8
 2137              		.cfi_offset 7, -8
 2138              		.cfi_offset 14, -4
 2139 0002 84B0     		sub	sp, sp, #16
 2140              		.cfi_def_cfa_offset 24
 2141 0004 00AF     		add	r7, sp, #0
 2142              		.cfi_def_cfa_register 7
 2143 0006 0246     		mov	r2, r0
 2144 0008 0B46     		mov	r3, r1
 2145 000a FA71     		strb	r2, [r7, #7]
 2146 000c BB71     		strb	r3, [r7, #6]
 715:.\PeltierCalibration.c ****     uint8 actualCtrlRegisterValue = Peltier_Enable_Read();
 2147              		.loc 1 715 0
 2148 000e FFF7FEFF 		bl	Peltier_Enable_Read
 2149 0012 0346     		mov	r3, r0
 2150 0014 BB73     		strb	r3, [r7, #14]
 716:.\PeltierCalibration.c ****     uint8 valueToWrite;
 717:.\PeltierCalibration.c ****     
 718:.\PeltierCalibration.c ****     switch (moduleNumber)
 2151              		.loc 1 718 0
 2152 0016 BB79     		ldrb	r3, [r7, #6]	@ zero_extendqisi2
 2153 0018 012B     		cmp	r3, #1
 2154 001a 02D0     		beq	.L159
 2155 001c 022B     		cmp	r3, #2
 2156 001e 13D0     		beq	.L160
 719:.\PeltierCalibration.c ****     {
 720:.\PeltierCalibration.c ****         case (1):
 721:.\PeltierCalibration.c ****         {           
 722:.\PeltierCalibration.c ****             if (peltierEnableState == 0)
 723:.\PeltierCalibration.c ****             {
 724:.\PeltierCalibration.c ****                 valueToWrite = (actualCtrlRegisterValue) & (~PELTIER1_ENABLE_MSK);
 725:.\PeltierCalibration.c ****                 SM1.peltierState = peltierDisabled;
 726:.\PeltierCalibration.c ****             }
 727:.\PeltierCalibration.c ****             else
 728:.\PeltierCalibration.c ****             {
 729:.\PeltierCalibration.c ****                 valueToWrite = actualCtrlRegisterValue | PELTIER1_ENABLE_MSK;
 730:.\PeltierCalibration.c ****                 SM1.peltierState = peltierEnabled;
 731:.\PeltierCalibration.c ****             }
 732:.\PeltierCalibration.c ****             break;
 733:.\PeltierCalibration.c ****         }
 734:.\PeltierCalibration.c ****         case (2):
ARM GAS  C:\Users\plod1602\AppData\Local\Temp\cckpLv0Q.s 			page 53


 735:.\PeltierCalibration.c ****         {
 736:.\PeltierCalibration.c ****             if (peltierEnableState == 0)
 737:.\PeltierCalibration.c ****             {
 738:.\PeltierCalibration.c ****                 valueToWrite = (actualCtrlRegisterValue) & (~PELTIER2_ENABLE_MSK);
 739:.\PeltierCalibration.c ****                 SM2.peltierState = peltierDisabled;
 740:.\PeltierCalibration.c ****             }
 741:.\PeltierCalibration.c ****             else
 742:.\PeltierCalibration.c ****             {
 743:.\PeltierCalibration.c ****                 valueToWrite = actualCtrlRegisterValue | PELTIER2_ENABLE_MSK;
 744:.\PeltierCalibration.c ****                 SM2.peltierState = peltierEnabled;
 745:.\PeltierCalibration.c ****             }
 746:.\PeltierCalibration.c ****             break;
 747:.\PeltierCalibration.c ****         }
 748:.\PeltierCalibration.c ****         default:
 749:.\PeltierCalibration.c ****             break;
 2157              		.loc 1 749 0
 2158 0020 25E0     		b	.L163
 2159              	.L159:
 722:.\PeltierCalibration.c ****             if (peltierEnableState == 0)
 2160              		.loc 1 722 0
 2161 0022 FB79     		ldrb	r3, [r7, #7]	@ zero_extendqisi2
 2162 0024 002B     		cmp	r3, #0
 2163 0026 07D1     		bne	.L161
 724:.\PeltierCalibration.c ****                 valueToWrite = (actualCtrlRegisterValue) & (~PELTIER1_ENABLE_MSK);
 2164              		.loc 1 724 0
 2165 0028 BB7B     		ldrb	r3, [r7, #14]
 2166 002a 23F00103 		bic	r3, r3, #1
 2167 002e FB73     		strb	r3, [r7, #15]
 725:.\PeltierCalibration.c ****                 SM1.peltierState = peltierDisabled;
 2168              		.loc 1 725 0
 2169 0030 134B     		ldr	r3, .L168
 2170 0032 0022     		movs	r2, #0
 2171 0034 1A71     		strb	r2, [r3, #4]
 732:.\PeltierCalibration.c ****             break;
 2172              		.loc 1 732 0
 2173 0036 1AE0     		b	.L163
 2174              	.L161:
 729:.\PeltierCalibration.c ****                 valueToWrite = actualCtrlRegisterValue | PELTIER1_ENABLE_MSK;
 2175              		.loc 1 729 0
 2176 0038 BB7B     		ldrb	r3, [r7, #14]
 2177 003a 43F00103 		orr	r3, r3, #1
 2178 003e FB73     		strb	r3, [r7, #15]
 730:.\PeltierCalibration.c ****                 SM1.peltierState = peltierEnabled;
 2179              		.loc 1 730 0
 2180 0040 0F4B     		ldr	r3, .L168
 2181 0042 0122     		movs	r2, #1
 2182 0044 1A71     		strb	r2, [r3, #4]
 732:.\PeltierCalibration.c ****             break;
 2183              		.loc 1 732 0
 2184 0046 12E0     		b	.L163
 2185              	.L160:
 736:.\PeltierCalibration.c ****             if (peltierEnableState == 0)
 2186              		.loc 1 736 0
 2187 0048 FB79     		ldrb	r3, [r7, #7]	@ zero_extendqisi2
 2188 004a 002B     		cmp	r3, #0
 2189 004c 07D1     		bne	.L164
 738:.\PeltierCalibration.c ****                 valueToWrite = (actualCtrlRegisterValue) & (~PELTIER2_ENABLE_MSK);
ARM GAS  C:\Users\plod1602\AppData\Local\Temp\cckpLv0Q.s 			page 54


 2190              		.loc 1 738 0
 2191 004e BB7B     		ldrb	r3, [r7, #14]
 2192 0050 23F00203 		bic	r3, r3, #2
 2193 0054 FB73     		strb	r3, [r7, #15]
 739:.\PeltierCalibration.c ****                 SM2.peltierState = peltierDisabled;
 2194              		.loc 1 739 0
 2195 0056 0B4B     		ldr	r3, .L168+4
 2196 0058 0022     		movs	r2, #0
 2197 005a 1A71     		strb	r2, [r3, #4]
 746:.\PeltierCalibration.c ****             break;
 2198              		.loc 1 746 0
 2199 005c 06E0     		b	.L167
 2200              	.L164:
 743:.\PeltierCalibration.c ****                 valueToWrite = actualCtrlRegisterValue | PELTIER2_ENABLE_MSK;
 2201              		.loc 1 743 0
 2202 005e BB7B     		ldrb	r3, [r7, #14]
 2203 0060 43F00203 		orr	r3, r3, #2
 2204 0064 FB73     		strb	r3, [r7, #15]
 744:.\PeltierCalibration.c ****                 SM2.peltierState = peltierEnabled;
 2205              		.loc 1 744 0
 2206 0066 074B     		ldr	r3, .L168+4
 2207 0068 0122     		movs	r2, #1
 2208 006a 1A71     		strb	r2, [r3, #4]
 2209              	.L167:
 746:.\PeltierCalibration.c ****             break;
 2210              		.loc 1 746 0
 2211 006c 00BF     		nop
 2212              	.L163:
 750:.\PeltierCalibration.c ****     }
 751:.\PeltierCalibration.c ****     Peltier_Enable_Write(valueToWrite);
 2213              		.loc 1 751 0
 2214 006e FB7B     		ldrb	r3, [r7, #15]	@ zero_extendqisi2
 2215 0070 1846     		mov	r0, r3
 2216 0072 FFF7FEFF 		bl	Peltier_Enable_Write
 752:.\PeltierCalibration.c ****     return 1;
 2217              		.loc 1 752 0
 2218 0076 0123     		movs	r3, #1
 753:.\PeltierCalibration.c **** }
 2219              		.loc 1 753 0
 2220 0078 1846     		mov	r0, r3
 2221 007a 1037     		adds	r7, r7, #16
 2222 007c BD46     		mov	sp, r7
 2223              		@ sp needed
 2224 007e 80BD     		pop	{r7, pc}
 2225              	.L169:
 2226              		.align	2
 2227              	.L168:
 2228 0080 00000000 		.word	SM1
 2229 0084 00000000 		.word	SM2
 2230              		.cfi_endproc
 2231              	.LFE71:
 2232              		.size	changePeltierModuleState, .-changePeltierModuleState
 2233              		.section	.text.changePeltierModuleCurrentDirection,"ax",%progbits
 2234              		.align	2
 2235              		.global	changePeltierModuleCurrentDirection
 2236              		.thumb
 2237              		.thumb_func
ARM GAS  C:\Users\plod1602\AppData\Local\Temp\cckpLv0Q.s 			page 55


 2238              		.type	changePeltierModuleCurrentDirection, %function
 2239              	changePeltierModuleCurrentDirection:
 2240              	.LFB72:
 754:.\PeltierCalibration.c **** 
 755:.\PeltierCalibration.c **** // Direction should be settled to PELTIER_COOL or PELTIER_HEAT
 756:.\PeltierCalibration.c **** uint8 changePeltierModuleCurrentDirection(uint8 Direction, uint8 moduleNumber)
 757:.\PeltierCalibration.c **** {   
 2241              		.loc 1 757 0
 2242              		.cfi_startproc
 2243              		@ args = 0, pretend = 0, frame = 8
 2244              		@ frame_needed = 1, uses_anonymous_args = 0
 2245 0000 80B5     		push	{r7, lr}
 2246              		.cfi_def_cfa_offset 8
 2247              		.cfi_offset 7, -8
 2248              		.cfi_offset 14, -4
 2249 0002 82B0     		sub	sp, sp, #8
 2250              		.cfi_def_cfa_offset 16
 2251 0004 00AF     		add	r7, sp, #0
 2252              		.cfi_def_cfa_register 7
 2253 0006 0246     		mov	r2, r0
 2254 0008 0B46     		mov	r3, r1
 2255 000a FA71     		strb	r2, [r7, #7]
 2256 000c BB71     		strb	r3, [r7, #6]
 758:.\PeltierCalibration.c ****     if (Direction==PELTIER_HEAT || Direction==PELTIER_COOL)
 2257              		.loc 1 758 0
 2258 000e FB79     		ldrb	r3, [r7, #7]	@ zero_extendqisi2
 2259 0010 022B     		cmp	r3, #2
 2260 0012 02D0     		beq	.L171
 2261              		.loc 1 758 0 is_stmt 0 discriminator 1
 2262 0014 FB79     		ldrb	r3, [r7, #7]	@ zero_extendqisi2
 2263 0016 012B     		cmp	r3, #1
 2264 0018 17D1     		bne	.L172
 2265              	.L171:
 759:.\PeltierCalibration.c ****     {
 760:.\PeltierCalibration.c ****         switch (moduleNumber)
 2266              		.loc 1 760 0 is_stmt 1
 2267 001a BB79     		ldrb	r3, [r7, #6]	@ zero_extendqisi2
 2268 001c 012B     		cmp	r3, #1
 2269 001e 02D0     		beq	.L174
 2270 0020 022B     		cmp	r3, #2
 2271 0022 08D0     		beq	.L175
 761:.\PeltierCalibration.c ****         {
 762:.\PeltierCalibration.c ****             case (1):
 763:.\PeltierCalibration.c ****             {
 764:.\PeltierCalibration.c ****                 Peltier1_Ctrl_Write(Direction);
 765:.\PeltierCalibration.c ****                 SM1.currentDirection = Direction;
 766:.\PeltierCalibration.c ****                 break;
 767:.\PeltierCalibration.c ****             }
 768:.\PeltierCalibration.c ****             case (2):
 769:.\PeltierCalibration.c ****             {
 770:.\PeltierCalibration.c ****                 Peltier2_Ctrl_Write(Direction); 
 771:.\PeltierCalibration.c ****                 SM2.currentDirection = Direction;
 772:.\PeltierCalibration.c ****                 break;
 773:.\PeltierCalibration.c ****             }
 774:.\PeltierCalibration.c ****             default:
 775:.\PeltierCalibration.c ****                 break;
 2272              		.loc 1 775 0
ARM GAS  C:\Users\plod1602\AppData\Local\Temp\cckpLv0Q.s 			page 56


 2273 0024 0FE0     		b	.L176
 2274              	.L174:
 764:.\PeltierCalibration.c ****                 Peltier1_Ctrl_Write(Direction);
 2275              		.loc 1 764 0
 2276 0026 FB79     		ldrb	r3, [r7, #7]	@ zero_extendqisi2
 2277 0028 1846     		mov	r0, r3
 2278 002a FFF7FEFF 		bl	Peltier1_Ctrl_Write
 765:.\PeltierCalibration.c ****                 SM1.currentDirection = Direction;
 2279              		.loc 1 765 0
 2280 002e 094B     		ldr	r3, .L178
 2281 0030 FA79     		ldrb	r2, [r7, #7]
 2282 0032 5A73     		strb	r2, [r3, #13]
 766:.\PeltierCalibration.c ****                 break;
 2283              		.loc 1 766 0
 2284 0034 07E0     		b	.L176
 2285              	.L175:
 770:.\PeltierCalibration.c ****                 Peltier2_Ctrl_Write(Direction); 
 2286              		.loc 1 770 0
 2287 0036 FB79     		ldrb	r3, [r7, #7]	@ zero_extendqisi2
 2288 0038 1846     		mov	r0, r3
 2289 003a FFF7FEFF 		bl	Peltier2_Ctrl_Write
 771:.\PeltierCalibration.c ****                 SM2.currentDirection = Direction;
 2290              		.loc 1 771 0
 2291 003e 064B     		ldr	r3, .L178+4
 2292 0040 FA79     		ldrb	r2, [r7, #7]
 2293 0042 5A73     		strb	r2, [r3, #13]
 772:.\PeltierCalibration.c ****                 break;
 2294              		.loc 1 772 0
 2295 0044 00BF     		nop
 2296              	.L176:
 776:.\PeltierCalibration.c ****         }
 777:.\PeltierCalibration.c ****         
 778:.\PeltierCalibration.c ****         return 1;
 2297              		.loc 1 778 0
 2298 0046 0123     		movs	r3, #1
 2299 0048 00E0     		b	.L177
 2300              	.L172:
 779:.\PeltierCalibration.c ****     }
 780:.\PeltierCalibration.c ****     else
 781:.\PeltierCalibration.c ****     {
 782:.\PeltierCalibration.c ****         return 0;    
 2301              		.loc 1 782 0
 2302 004a 0023     		movs	r3, #0
 2303              	.L177:
 783:.\PeltierCalibration.c ****     }
 784:.\PeltierCalibration.c **** }
 2304              		.loc 1 784 0
 2305 004c 1846     		mov	r0, r3
 2306 004e 0837     		adds	r7, r7, #8
 2307 0050 BD46     		mov	sp, r7
 2308              		@ sp needed
 2309 0052 80BD     		pop	{r7, pc}
 2310              	.L179:
 2311              		.align	2
 2312              	.L178:
 2313 0054 00000000 		.word	SM1
 2314 0058 00000000 		.word	SM2
ARM GAS  C:\Users\plod1602\AppData\Local\Temp\cckpLv0Q.s 			page 57


 2315              		.cfi_endproc
 2316              	.LFE72:
 2317              		.size	changePeltierModuleCurrentDirection, .-changePeltierModuleCurrentDirection
 2318              		.section	.text.changePeltierPWMValue,"ax",%progbits
 2319              		.align	2
 2320              		.global	changePeltierPWMValue
 2321              		.thumb
 2322              		.thumb_func
 2323              		.type	changePeltierPWMValue, %function
 2324              	changePeltierPWMValue:
 2325              	.LFB73:
 785:.\PeltierCalibration.c **** 
 786:.\PeltierCalibration.c **** uint8 changePeltierPWMValue(uint8 desiredPercentage, uint8 subModuleID)
 787:.\PeltierCalibration.c **** {
 2326              		.loc 1 787 0
 2327              		.cfi_startproc
 2328              		@ args = 0, pretend = 0, frame = 16
 2329              		@ frame_needed = 1, uses_anonymous_args = 0
 2330 0000 80B5     		push	{r7, lr}
 2331              		.cfi_def_cfa_offset 8
 2332              		.cfi_offset 7, -8
 2333              		.cfi_offset 14, -4
 2334 0002 84B0     		sub	sp, sp, #16
 2335              		.cfi_def_cfa_offset 24
 2336 0004 00AF     		add	r7, sp, #0
 2337              		.cfi_def_cfa_register 7
 2338 0006 0246     		mov	r2, r0
 2339 0008 0B46     		mov	r3, r1
 2340 000a FA71     		strb	r2, [r7, #7]
 2341 000c BB71     		strb	r3, [r7, #6]
 788:.\PeltierCalibration.c ****     int maxPWMPulse=0; 
 2342              		.loc 1 788 0
 2343 000e 0023     		movs	r3, #0
 2344 0010 FB60     		str	r3, [r7, #12]
 789:.\PeltierCalibration.c ****     uint8 pwmWriteCompareValue=0;
 2345              		.loc 1 789 0
 2346 0012 0023     		movs	r3, #0
 2347 0014 FB72     		strb	r3, [r7, #11]
 790:.\PeltierCalibration.c ****     
 791:.\PeltierCalibration.c ****     if (subModuleID == SubModule1_ID)
 2348              		.loc 1 791 0
 2349 0016 BB79     		ldrb	r3, [r7, #6]	@ zero_extendqisi2
 2350 0018 012B     		cmp	r3, #1
 2351 001a 1AD1     		bne	.L181
 792:.\PeltierCalibration.c ****     {
 793:.\PeltierCalibration.c ****         maxPWMPulse = Peltier1_PWM_Ctrl_ReadPeriod(); 
 2352              		.loc 1 793 0
 2353 001c FFF7FEFF 		bl	Peltier1_PWM_Ctrl_ReadPeriod
 2354 0020 0346     		mov	r3, r0
 2355 0022 FB60     		str	r3, [r7, #12]
 794:.\PeltierCalibration.c ****         pwmWriteCompareValue = desiredPercentage*maxPWMPulse/100;
 2356              		.loc 1 794 0
 2357 0024 FB79     		ldrb	r3, [r7, #7]	@ zero_extendqisi2
 2358 0026 FA68     		ldr	r2, [r7, #12]
 2359 0028 02FB03F3 		mul	r3, r2, r3
 2360 002c 1B4A     		ldr	r2, .L185
 2361 002e 82FB0312 		smull	r1, r2, r2, r3
ARM GAS  C:\Users\plod1602\AppData\Local\Temp\cckpLv0Q.s 			page 58


 2362 0032 5211     		asrs	r2, r2, #5
 2363 0034 DB17     		asrs	r3, r3, #31
 2364 0036 D31A     		subs	r3, r2, r3
 2365 0038 FB72     		strb	r3, [r7, #11]
 795:.\PeltierCalibration.c ****         Peltier1_PWM_Ctrl_WriteCompare(pwmWriteCompareValue);
 2366              		.loc 1 795 0
 2367 003a FB7A     		ldrb	r3, [r7, #11]	@ zero_extendqisi2
 2368 003c 1846     		mov	r0, r3
 2369 003e FFF7FEFF 		bl	Peltier1_PWM_Ctrl_WriteCompare
 796:.\PeltierCalibration.c ****         SM1.pwmPeriodValue = maxPWMPulse;
 2370              		.loc 1 796 0
 2371 0042 FB68     		ldr	r3, [r7, #12]
 2372 0044 DAB2     		uxtb	r2, r3
 2373 0046 164B     		ldr	r3, .L185+4
 2374 0048 1A74     		strb	r2, [r3, #16]
 797:.\PeltierCalibration.c ****         SM1.pwmCompareValue = pwmWriteCompareValue;        
 2375              		.loc 1 797 0
 2376 004a 154B     		ldr	r3, .L185+4
 2377 004c FA7A     		ldrb	r2, [r7, #11]
 2378 004e 9A73     		strb	r2, [r3, #14]
 2379 0050 1FE0     		b	.L182
 2380              	.L181:
 798:.\PeltierCalibration.c ****     }
 799:.\PeltierCalibration.c ****     else if(subModuleID == SubModule2_ID)
 2381              		.loc 1 799 0
 2382 0052 BB79     		ldrb	r3, [r7, #6]	@ zero_extendqisi2
 2383 0054 022B     		cmp	r3, #2
 2384 0056 1AD1     		bne	.L183
 800:.\PeltierCalibration.c ****     {
 801:.\PeltierCalibration.c ****         maxPWMPulse = Peltier2_PWM_Ctrl_ReadPeriod();
 2385              		.loc 1 801 0
 2386 0058 FFF7FEFF 		bl	Peltier2_PWM_Ctrl_ReadPeriod
 2387 005c 0346     		mov	r3, r0
 2388 005e FB60     		str	r3, [r7, #12]
 802:.\PeltierCalibration.c ****         pwmWriteCompareValue = desiredPercentage*maxPWMPulse/100;
 2389              		.loc 1 802 0
 2390 0060 FB79     		ldrb	r3, [r7, #7]	@ zero_extendqisi2
 2391 0062 FA68     		ldr	r2, [r7, #12]
 2392 0064 02FB03F3 		mul	r3, r2, r3
 2393 0068 0C4A     		ldr	r2, .L185
 2394 006a 82FB0312 		smull	r1, r2, r2, r3
 2395 006e 5211     		asrs	r2, r2, #5
 2396 0070 DB17     		asrs	r3, r3, #31
 2397 0072 D31A     		subs	r3, r2, r3
 2398 0074 FB72     		strb	r3, [r7, #11]
 803:.\PeltierCalibration.c ****         Peltier2_PWM_Ctrl_WriteCompare(pwmWriteCompareValue);
 2399              		.loc 1 803 0
 2400 0076 FB7A     		ldrb	r3, [r7, #11]	@ zero_extendqisi2
 2401 0078 1846     		mov	r0, r3
 2402 007a FFF7FEFF 		bl	Peltier2_PWM_Ctrl_WriteCompare
 804:.\PeltierCalibration.c ****         SM2.pwmPeriodValue = maxPWMPulse;
 2403              		.loc 1 804 0
 2404 007e FB68     		ldr	r3, [r7, #12]
 2405 0080 DAB2     		uxtb	r2, r3
 2406 0082 084B     		ldr	r3, .L185+8
 2407 0084 1A74     		strb	r2, [r3, #16]
 805:.\PeltierCalibration.c ****         SM2.pwmCompareValue = pwmWriteCompareValue;    
ARM GAS  C:\Users\plod1602\AppData\Local\Temp\cckpLv0Q.s 			page 59


 2408              		.loc 1 805 0
 2409 0086 074B     		ldr	r3, .L185+8
 2410 0088 FA7A     		ldrb	r2, [r7, #11]
 2411 008a 9A73     		strb	r2, [r3, #14]
 2412 008c 01E0     		b	.L182
 2413              	.L183:
 806:.\PeltierCalibration.c ****     }
 807:.\PeltierCalibration.c ****     else
 808:.\PeltierCalibration.c ****     {
 809:.\PeltierCalibration.c ****         return 0;
 2414              		.loc 1 809 0
 2415 008e 0023     		movs	r3, #0
 2416 0090 00E0     		b	.L184
 2417              	.L182:
 810:.\PeltierCalibration.c ****     }
 811:.\PeltierCalibration.c **** 
 812:.\PeltierCalibration.c ****     return 1;
 2418              		.loc 1 812 0
 2419 0092 0123     		movs	r3, #1
 2420              	.L184:
 813:.\PeltierCalibration.c **** }
 2421              		.loc 1 813 0
 2422 0094 1846     		mov	r0, r3
 2423 0096 1037     		adds	r7, r7, #16
 2424 0098 BD46     		mov	sp, r7
 2425              		@ sp needed
 2426 009a 80BD     		pop	{r7, pc}
 2427              	.L186:
 2428              		.align	2
 2429              	.L185:
 2430 009c 1F85EB51 		.word	1374389535
 2431 00a0 00000000 		.word	SM1
 2432 00a4 00000000 		.word	SM2
 2433              		.cfi_endproc
 2434              	.LFE73:
 2435              		.size	changePeltierPWMValue, .-changePeltierPWMValue
 2436              		.text
 2437              	.Letext0:
 2438              		.file 2 "c:\\program files (x86)\\cypress\\psoc creator\\3.2\\psoc creator\\import\\gnu\\arm\\4.8.
 2439              		.file 3 "c:\\program files (x86)\\cypress\\psoc creator\\3.2\\psoc creator\\import\\gnu\\arm\\4.8.
 2440              		.file 4 "Generated_Source\\PSoC5/cytypes.h"
 2441              		.file 5 "./TAC_Submodule.h"
 2442              		.file 6 "Generated_Source\\PSoC5/core_cm3.h"
 2443              		.file 7 "./Defines.h"
 2444              		.file 8 "./PeltierCalibration.h"