ARM GAS  C:\Users\plod1602\AppData\Local\Temp\ccEpNM6u.s 			page 1


   1              		.syntax unified
   2              		.cpu cortex-m3
   3              		.fpu softvfp
   4              		.eabi_attribute 20, 1
   5              		.eabi_attribute 21, 1
   6              		.eabi_attribute 23, 3
   7              		.eabi_attribute 24, 1
   8              		.eabi_attribute 25, 1
   9              		.eabi_attribute 26, 1
  10              		.eabi_attribute 30, 6
  11              		.eabi_attribute 34, 1
  12              		.eabi_attribute 18, 4
  13              		.thumb
  14              		.file	"pwmAgitator_1.c"
  15              		.text
  16              	.Ltext0:
  17              		.cfi_sections	.debug_frame
  18              		.global	pwmAgitator_1_initVar
  19              		.bss
  20              		.type	pwmAgitator_1_initVar, %object
  21              		.size	pwmAgitator_1_initVar, 1
  22              	pwmAgitator_1_initVar:
  23 0000 00       		.space	1
  24              		.section	.text.pwmAgitator_1_Start,"ax",%progbits
  25              		.align	2
  26              		.global	pwmAgitator_1_Start
  27              		.thumb
  28              		.thumb_func
  29              		.type	pwmAgitator_1_Start, %function
  30              	pwmAgitator_1_Start:
  31              	.LFB0:
  32              		.file 1 ".\\Generated_Source\\PSoC5\\pwmAgitator_1.c"
   1:.\Generated_Source\PSoC5/pwmAgitator_1.c **** /*******************************************************************************
   2:.\Generated_Source\PSoC5/pwmAgitator_1.c **** * File Name: pwmAgitator_1.c
   3:.\Generated_Source\PSoC5/pwmAgitator_1.c **** * Version 3.30
   4:.\Generated_Source\PSoC5/pwmAgitator_1.c **** *
   5:.\Generated_Source\PSoC5/pwmAgitator_1.c **** * Description:
   6:.\Generated_Source\PSoC5/pwmAgitator_1.c **** *  The PWM User Module consist of an 8 or 16-bit counter with two 8 or 16-bit
   7:.\Generated_Source\PSoC5/pwmAgitator_1.c **** *  comparitors. Each instance of this user module is capable of generating
   8:.\Generated_Source\PSoC5/pwmAgitator_1.c **** *  two PWM outputs with the same period. The pulse width is selectable between
   9:.\Generated_Source\PSoC5/pwmAgitator_1.c **** *  1 and 255/65535. The period is selectable between 2 and 255/65536 clocks.
  10:.\Generated_Source\PSoC5/pwmAgitator_1.c **** *  The compare value output may be configured to be active when the present
  11:.\Generated_Source\PSoC5/pwmAgitator_1.c **** *  counter is less than or less than/equal to the compare value.
  12:.\Generated_Source\PSoC5/pwmAgitator_1.c **** *  A terminal count output is also provided. It generates a pulse one clock
  13:.\Generated_Source\PSoC5/pwmAgitator_1.c **** *  width wide when the counter is equal to zero.
  14:.\Generated_Source\PSoC5/pwmAgitator_1.c **** *
  15:.\Generated_Source\PSoC5/pwmAgitator_1.c **** * Note:
  16:.\Generated_Source\PSoC5/pwmAgitator_1.c **** *
  17:.\Generated_Source\PSoC5/pwmAgitator_1.c **** *******************************************************************************
  18:.\Generated_Source\PSoC5/pwmAgitator_1.c **** * Copyright 2008-2014, Cypress Semiconductor Corporation.  All rights reserved.
  19:.\Generated_Source\PSoC5/pwmAgitator_1.c **** * You may use this file only in accordance with the license, terms, conditions,
  20:.\Generated_Source\PSoC5/pwmAgitator_1.c **** * disclaimers, and limitations in the end user license agreement accompanying
  21:.\Generated_Source\PSoC5/pwmAgitator_1.c **** * the software package with which this file was provided.
  22:.\Generated_Source\PSoC5/pwmAgitator_1.c **** ********************************************************************************/
  23:.\Generated_Source\PSoC5/pwmAgitator_1.c **** 
  24:.\Generated_Source\PSoC5/pwmAgitator_1.c **** #include "pwmAgitator_1.h"
  25:.\Generated_Source\PSoC5/pwmAgitator_1.c **** 
ARM GAS  C:\Users\plod1602\AppData\Local\Temp\ccEpNM6u.s 			page 2


  26:.\Generated_Source\PSoC5/pwmAgitator_1.c **** /* Error message for removed <resource> through optimization */
  27:.\Generated_Source\PSoC5/pwmAgitator_1.c **** #ifdef pwmAgitator_1_PWMUDB_genblk1_ctrlreg__REMOVED
  28:.\Generated_Source\PSoC5/pwmAgitator_1.c ****     #error PWM_v3_30 detected with a constant 0 for the enable or \
  29:.\Generated_Source\PSoC5/pwmAgitator_1.c ****          constant 1 for reset. This will prevent the component from operating.
  30:.\Generated_Source\PSoC5/pwmAgitator_1.c **** #endif /* pwmAgitator_1_PWMUDB_genblk1_ctrlreg__REMOVED */
  31:.\Generated_Source\PSoC5/pwmAgitator_1.c **** 
  32:.\Generated_Source\PSoC5/pwmAgitator_1.c **** uint8 pwmAgitator_1_initVar = 0u;
  33:.\Generated_Source\PSoC5/pwmAgitator_1.c **** 
  34:.\Generated_Source\PSoC5/pwmAgitator_1.c **** 
  35:.\Generated_Source\PSoC5/pwmAgitator_1.c **** /*******************************************************************************
  36:.\Generated_Source\PSoC5/pwmAgitator_1.c **** * Function Name: pwmAgitator_1_Start
  37:.\Generated_Source\PSoC5/pwmAgitator_1.c **** ********************************************************************************
  38:.\Generated_Source\PSoC5/pwmAgitator_1.c **** *
  39:.\Generated_Source\PSoC5/pwmAgitator_1.c **** * Summary:
  40:.\Generated_Source\PSoC5/pwmAgitator_1.c **** *  The start function initializes the pwm with the default values, the
  41:.\Generated_Source\PSoC5/pwmAgitator_1.c **** *  enables the counter to begin counting.  It does not enable interrupts,
  42:.\Generated_Source\PSoC5/pwmAgitator_1.c **** *  the EnableInt command should be called if interrupt generation is required.
  43:.\Generated_Source\PSoC5/pwmAgitator_1.c **** *
  44:.\Generated_Source\PSoC5/pwmAgitator_1.c **** * Parameters:
  45:.\Generated_Source\PSoC5/pwmAgitator_1.c **** *  None
  46:.\Generated_Source\PSoC5/pwmAgitator_1.c **** *
  47:.\Generated_Source\PSoC5/pwmAgitator_1.c **** * Return:
  48:.\Generated_Source\PSoC5/pwmAgitator_1.c **** *  None
  49:.\Generated_Source\PSoC5/pwmAgitator_1.c **** *
  50:.\Generated_Source\PSoC5/pwmAgitator_1.c **** * Global variables:
  51:.\Generated_Source\PSoC5/pwmAgitator_1.c **** *  pwmAgitator_1_initVar: Is modified when this function is called for the
  52:.\Generated_Source\PSoC5/pwmAgitator_1.c **** *   first time. Is used to ensure that initialization happens only once.
  53:.\Generated_Source\PSoC5/pwmAgitator_1.c **** *
  54:.\Generated_Source\PSoC5/pwmAgitator_1.c **** *******************************************************************************/
  55:.\Generated_Source\PSoC5/pwmAgitator_1.c **** void pwmAgitator_1_Start(void) 
  56:.\Generated_Source\PSoC5/pwmAgitator_1.c **** {
  33              		.loc 1 56 0
  34              		.cfi_startproc
  35              		@ args = 0, pretend = 0, frame = 0
  36              		@ frame_needed = 1, uses_anonymous_args = 0
  37 0000 80B5     		push	{r7, lr}
  38              		.cfi_def_cfa_offset 8
  39              		.cfi_offset 7, -8
  40              		.cfi_offset 14, -4
  41 0002 00AF     		add	r7, sp, #0
  42              		.cfi_def_cfa_register 7
  57:.\Generated_Source\PSoC5/pwmAgitator_1.c ****     /* If not Initialized then initialize all required hardware and software */
  58:.\Generated_Source\PSoC5/pwmAgitator_1.c ****     if(pwmAgitator_1_initVar == 0u)
  43              		.loc 1 58 0
  44 0004 054B     		ldr	r3, .L3
  45 0006 1B78     		ldrb	r3, [r3]	@ zero_extendqisi2
  46 0008 002B     		cmp	r3, #0
  47 000a 04D1     		bne	.L2
  59:.\Generated_Source\PSoC5/pwmAgitator_1.c ****     {
  60:.\Generated_Source\PSoC5/pwmAgitator_1.c ****         pwmAgitator_1_Init();
  48              		.loc 1 60 0
  49 000c FFF7FEFF 		bl	pwmAgitator_1_Init
  61:.\Generated_Source\PSoC5/pwmAgitator_1.c ****         pwmAgitator_1_initVar = 1u;
  50              		.loc 1 61 0
  51 0010 024B     		ldr	r3, .L3
  52 0012 0122     		movs	r2, #1
  53 0014 1A70     		strb	r2, [r3]
ARM GAS  C:\Users\plod1602\AppData\Local\Temp\ccEpNM6u.s 			page 3


  54              	.L2:
  62:.\Generated_Source\PSoC5/pwmAgitator_1.c ****     }
  63:.\Generated_Source\PSoC5/pwmAgitator_1.c ****     pwmAgitator_1_Enable();
  55              		.loc 1 63 0
  56 0016 FFF7FEFF 		bl	pwmAgitator_1_Enable
  64:.\Generated_Source\PSoC5/pwmAgitator_1.c **** 
  65:.\Generated_Source\PSoC5/pwmAgitator_1.c **** }
  57              		.loc 1 65 0
  58 001a 80BD     		pop	{r7, pc}
  59              	.L4:
  60              		.align	2
  61              	.L3:
  62 001c 00000000 		.word	pwmAgitator_1_initVar
  63              		.cfi_endproc
  64              	.LFE0:
  65              		.size	pwmAgitator_1_Start, .-pwmAgitator_1_Start
  66              		.section	.text.pwmAgitator_1_Init,"ax",%progbits
  67              		.align	2
  68              		.global	pwmAgitator_1_Init
  69              		.thumb
  70              		.thumb_func
  71              		.type	pwmAgitator_1_Init, %function
  72              	pwmAgitator_1_Init:
  73              	.LFB1:
  66:.\Generated_Source\PSoC5/pwmAgitator_1.c **** 
  67:.\Generated_Source\PSoC5/pwmAgitator_1.c **** 
  68:.\Generated_Source\PSoC5/pwmAgitator_1.c **** /*******************************************************************************
  69:.\Generated_Source\PSoC5/pwmAgitator_1.c **** * Function Name: pwmAgitator_1_Init
  70:.\Generated_Source\PSoC5/pwmAgitator_1.c **** ********************************************************************************
  71:.\Generated_Source\PSoC5/pwmAgitator_1.c **** *
  72:.\Generated_Source\PSoC5/pwmAgitator_1.c **** * Summary:
  73:.\Generated_Source\PSoC5/pwmAgitator_1.c **** *  Initialize component's parameters to the parameters set by user in the
  74:.\Generated_Source\PSoC5/pwmAgitator_1.c **** *  customizer of the component placed onto schematic. Usually called in
  75:.\Generated_Source\PSoC5/pwmAgitator_1.c **** *  pwmAgitator_1_Start().
  76:.\Generated_Source\PSoC5/pwmAgitator_1.c **** *
  77:.\Generated_Source\PSoC5/pwmAgitator_1.c **** * Parameters:
  78:.\Generated_Source\PSoC5/pwmAgitator_1.c **** *  None
  79:.\Generated_Source\PSoC5/pwmAgitator_1.c **** *
  80:.\Generated_Source\PSoC5/pwmAgitator_1.c **** * Return:
  81:.\Generated_Source\PSoC5/pwmAgitator_1.c **** *  None
  82:.\Generated_Source\PSoC5/pwmAgitator_1.c **** *
  83:.\Generated_Source\PSoC5/pwmAgitator_1.c **** *******************************************************************************/
  84:.\Generated_Source\PSoC5/pwmAgitator_1.c **** void pwmAgitator_1_Init(void) 
  85:.\Generated_Source\PSoC5/pwmAgitator_1.c **** {
  74              		.loc 1 85 0
  75              		.cfi_startproc
  76              		@ args = 0, pretend = 0, frame = 8
  77              		@ frame_needed = 1, uses_anonymous_args = 0
  78 0000 80B5     		push	{r7, lr}
  79              		.cfi_def_cfa_offset 8
  80              		.cfi_offset 7, -8
  81              		.cfi_offset 14, -4
  82 0002 82B0     		sub	sp, sp, #8
  83              		.cfi_def_cfa_offset 16
  84 0004 00AF     		add	r7, sp, #0
  85              		.cfi_def_cfa_register 7
  86:.\Generated_Source\PSoC5/pwmAgitator_1.c ****     #if (pwmAgitator_1_UsingFixedFunction || pwmAgitator_1_UseControl)
ARM GAS  C:\Users\plod1602\AppData\Local\Temp\ccEpNM6u.s 			page 4


  87:.\Generated_Source\PSoC5/pwmAgitator_1.c ****         uint8 ctrl;
  88:.\Generated_Source\PSoC5/pwmAgitator_1.c ****     #endif /* (pwmAgitator_1_UsingFixedFunction || pwmAgitator_1_UseControl) */
  89:.\Generated_Source\PSoC5/pwmAgitator_1.c **** 
  90:.\Generated_Source\PSoC5/pwmAgitator_1.c ****     #if(!pwmAgitator_1_UsingFixedFunction)
  91:.\Generated_Source\PSoC5/pwmAgitator_1.c ****         #if(pwmAgitator_1_UseStatus)
  92:.\Generated_Source\PSoC5/pwmAgitator_1.c ****             /* Interrupt State Backup for Critical Region*/
  93:.\Generated_Source\PSoC5/pwmAgitator_1.c ****             uint8 pwmAgitator_1_interruptState;
  94:.\Generated_Source\PSoC5/pwmAgitator_1.c ****         #endif /* (pwmAgitator_1_UseStatus) */
  95:.\Generated_Source\PSoC5/pwmAgitator_1.c ****     #endif /* (!pwmAgitator_1_UsingFixedFunction) */
  96:.\Generated_Source\PSoC5/pwmAgitator_1.c **** 
  97:.\Generated_Source\PSoC5/pwmAgitator_1.c ****     #if (pwmAgitator_1_UsingFixedFunction)
  98:.\Generated_Source\PSoC5/pwmAgitator_1.c ****         /* You are allowed to write the compare value (FF only) */
  99:.\Generated_Source\PSoC5/pwmAgitator_1.c ****         pwmAgitator_1_CONTROL |= pwmAgitator_1_CFG0_MODE;
 100:.\Generated_Source\PSoC5/pwmAgitator_1.c ****         #if (pwmAgitator_1_DeadBand2_4)
 101:.\Generated_Source\PSoC5/pwmAgitator_1.c ****             pwmAgitator_1_CONTROL |= pwmAgitator_1_CFG0_DB;
 102:.\Generated_Source\PSoC5/pwmAgitator_1.c ****         #endif /* (pwmAgitator_1_DeadBand2_4) */
 103:.\Generated_Source\PSoC5/pwmAgitator_1.c **** 
 104:.\Generated_Source\PSoC5/pwmAgitator_1.c ****         ctrl = pwmAgitator_1_CONTROL3 & ((uint8 )(~pwmAgitator_1_CTRL_CMPMODE1_MASK));
 105:.\Generated_Source\PSoC5/pwmAgitator_1.c ****         pwmAgitator_1_CONTROL3 = ctrl | pwmAgitator_1_DEFAULT_COMPARE1_MODE;
 106:.\Generated_Source\PSoC5/pwmAgitator_1.c **** 
 107:.\Generated_Source\PSoC5/pwmAgitator_1.c ****          /* Clear and Set SYNCTC and SYNCCMP bits of RT1 register */
 108:.\Generated_Source\PSoC5/pwmAgitator_1.c ****         pwmAgitator_1_RT1 &= ((uint8)(~pwmAgitator_1_RT1_MASK));
 109:.\Generated_Source\PSoC5/pwmAgitator_1.c ****         pwmAgitator_1_RT1 |= pwmAgitator_1_SYNC;
 110:.\Generated_Source\PSoC5/pwmAgitator_1.c **** 
 111:.\Generated_Source\PSoC5/pwmAgitator_1.c ****         /*Enable DSI Sync all all inputs of the PWM*/
 112:.\Generated_Source\PSoC5/pwmAgitator_1.c ****         pwmAgitator_1_RT1 &= ((uint8)(~pwmAgitator_1_SYNCDSI_MASK));
 113:.\Generated_Source\PSoC5/pwmAgitator_1.c ****         pwmAgitator_1_RT1 |= pwmAgitator_1_SYNCDSI_EN;
 114:.\Generated_Source\PSoC5/pwmAgitator_1.c **** 
 115:.\Generated_Source\PSoC5/pwmAgitator_1.c ****     #elif (pwmAgitator_1_UseControl)
 116:.\Generated_Source\PSoC5/pwmAgitator_1.c ****         /* Set the default compare mode defined in the parameter */
 117:.\Generated_Source\PSoC5/pwmAgitator_1.c ****         ctrl = pwmAgitator_1_CONTROL & ((uint8)(~pwmAgitator_1_CTRL_CMPMODE2_MASK)) &
  86              		.loc 1 117 0
  87 0006 1A4B     		ldr	r3, .L6
  88 0008 1B78     		ldrb	r3, [r3]
  89 000a DBB2     		uxtb	r3, r3
  90 000c 23F03F03 		bic	r3, r3, #63
  91 0010 FB71     		strb	r3, [r7, #7]
 118:.\Generated_Source\PSoC5/pwmAgitator_1.c ****                 ((uint8)(~pwmAgitator_1_CTRL_CMPMODE1_MASK));
 119:.\Generated_Source\PSoC5/pwmAgitator_1.c ****         pwmAgitator_1_CONTROL = ctrl | pwmAgitator_1_DEFAULT_COMPARE2_MODE |
  92              		.loc 1 119 0
  93 0012 174B     		ldr	r3, .L6
  94 0014 FA79     		ldrb	r2, [r7, #7]
  95 0016 42F00902 		orr	r2, r2, #9
  96 001a D2B2     		uxtb	r2, r2
  97 001c 1A70     		strb	r2, [r3]
 120:.\Generated_Source\PSoC5/pwmAgitator_1.c ****                                    pwmAgitator_1_DEFAULT_COMPARE1_MODE;
 121:.\Generated_Source\PSoC5/pwmAgitator_1.c ****     #endif /* (pwmAgitator_1_UsingFixedFunction) */
 122:.\Generated_Source\PSoC5/pwmAgitator_1.c **** 
 123:.\Generated_Source\PSoC5/pwmAgitator_1.c ****     #if (!pwmAgitator_1_UsingFixedFunction)
 124:.\Generated_Source\PSoC5/pwmAgitator_1.c ****         #if (pwmAgitator_1_Resolution == 8)
 125:.\Generated_Source\PSoC5/pwmAgitator_1.c ****             /* Set FIFO 0 to 1 byte register for period*/
 126:.\Generated_Source\PSoC5/pwmAgitator_1.c ****             pwmAgitator_1_AUX_CONTROLDP0 |= (pwmAgitator_1_AUX_CTRL_FIFO0_CLR);
  98              		.loc 1 126 0
  99 001e 154B     		ldr	r3, .L6+4
 100 0020 144A     		ldr	r2, .L6+4
 101 0022 1278     		ldrb	r2, [r2]
 102 0024 D2B2     		uxtb	r2, r2
ARM GAS  C:\Users\plod1602\AppData\Local\Temp\ccEpNM6u.s 			page 5


 103 0026 42F00102 		orr	r2, r2, #1
 104 002a D2B2     		uxtb	r2, r2
 105 002c 1A70     		strb	r2, [r3]
 127:.\Generated_Source\PSoC5/pwmAgitator_1.c ****         #else /* (pwmAgitator_1_Resolution == 16)*/
 128:.\Generated_Source\PSoC5/pwmAgitator_1.c ****             /* Set FIFO 0 to 1 byte register for period */
 129:.\Generated_Source\PSoC5/pwmAgitator_1.c ****             pwmAgitator_1_AUX_CONTROLDP0 |= (pwmAgitator_1_AUX_CTRL_FIFO0_CLR);
 130:.\Generated_Source\PSoC5/pwmAgitator_1.c ****             pwmAgitator_1_AUX_CONTROLDP1 |= (pwmAgitator_1_AUX_CTRL_FIFO0_CLR);
 131:.\Generated_Source\PSoC5/pwmAgitator_1.c ****         #endif /* (pwmAgitator_1_Resolution == 8) */
 132:.\Generated_Source\PSoC5/pwmAgitator_1.c **** 
 133:.\Generated_Source\PSoC5/pwmAgitator_1.c ****         pwmAgitator_1_WriteCounter(pwmAgitator_1_INIT_PERIOD_VALUE);
 106              		.loc 1 133 0
 107 002e C820     		movs	r0, #200
 108 0030 FFF7FEFF 		bl	pwmAgitator_1_WriteCounter
 134:.\Generated_Source\PSoC5/pwmAgitator_1.c ****     #endif /* (!pwmAgitator_1_UsingFixedFunction) */
 135:.\Generated_Source\PSoC5/pwmAgitator_1.c **** 
 136:.\Generated_Source\PSoC5/pwmAgitator_1.c ****     pwmAgitator_1_WritePeriod(pwmAgitator_1_INIT_PERIOD_VALUE);
 109              		.loc 1 136 0
 110 0034 C820     		movs	r0, #200
 111 0036 FFF7FEFF 		bl	pwmAgitator_1_WritePeriod
 137:.\Generated_Source\PSoC5/pwmAgitator_1.c **** 
 138:.\Generated_Source\PSoC5/pwmAgitator_1.c ****         #if (pwmAgitator_1_UseOneCompareMode)
 139:.\Generated_Source\PSoC5/pwmAgitator_1.c ****             pwmAgitator_1_WriteCompare(pwmAgitator_1_INIT_COMPARE_VALUE1);
 112              		.loc 1 139 0
 113 003a 0020     		movs	r0, #0
 114 003c FFF7FEFF 		bl	pwmAgitator_1_WriteCompare
 140:.\Generated_Source\PSoC5/pwmAgitator_1.c ****         #else
 141:.\Generated_Source\PSoC5/pwmAgitator_1.c ****             pwmAgitator_1_WriteCompare1(pwmAgitator_1_INIT_COMPARE_VALUE1);
 142:.\Generated_Source\PSoC5/pwmAgitator_1.c ****             pwmAgitator_1_WriteCompare2(pwmAgitator_1_INIT_COMPARE_VALUE2);
 143:.\Generated_Source\PSoC5/pwmAgitator_1.c ****         #endif /* (pwmAgitator_1_UseOneCompareMode) */
 144:.\Generated_Source\PSoC5/pwmAgitator_1.c **** 
 145:.\Generated_Source\PSoC5/pwmAgitator_1.c ****         #if (pwmAgitator_1_KillModeMinTime)
 146:.\Generated_Source\PSoC5/pwmAgitator_1.c ****             pwmAgitator_1_WriteKillTime(pwmAgitator_1_MinimumKillTime);
 147:.\Generated_Source\PSoC5/pwmAgitator_1.c ****         #endif /* (pwmAgitator_1_KillModeMinTime) */
 148:.\Generated_Source\PSoC5/pwmAgitator_1.c **** 
 149:.\Generated_Source\PSoC5/pwmAgitator_1.c ****         #if (pwmAgitator_1_DeadBandUsed)
 150:.\Generated_Source\PSoC5/pwmAgitator_1.c ****             pwmAgitator_1_WriteDeadTime(pwmAgitator_1_INIT_DEAD_TIME);
 151:.\Generated_Source\PSoC5/pwmAgitator_1.c ****         #endif /* (pwmAgitator_1_DeadBandUsed) */
 152:.\Generated_Source\PSoC5/pwmAgitator_1.c **** 
 153:.\Generated_Source\PSoC5/pwmAgitator_1.c ****     #if (pwmAgitator_1_UseStatus || pwmAgitator_1_UsingFixedFunction)
 154:.\Generated_Source\PSoC5/pwmAgitator_1.c ****         pwmAgitator_1_SetInterruptMode(pwmAgitator_1_INIT_INTERRUPTS_MODE);
 115              		.loc 1 154 0
 116 0040 0020     		movs	r0, #0
 117 0042 FFF7FEFF 		bl	pwmAgitator_1_SetInterruptMode
 155:.\Generated_Source\PSoC5/pwmAgitator_1.c ****     #endif /* (pwmAgitator_1_UseStatus || pwmAgitator_1_UsingFixedFunction) */
 156:.\Generated_Source\PSoC5/pwmAgitator_1.c **** 
 157:.\Generated_Source\PSoC5/pwmAgitator_1.c ****     #if (pwmAgitator_1_UsingFixedFunction)
 158:.\Generated_Source\PSoC5/pwmAgitator_1.c ****         /* Globally Enable the Fixed Function Block chosen */
 159:.\Generated_Source\PSoC5/pwmAgitator_1.c ****         pwmAgitator_1_GLOBAL_ENABLE |= pwmAgitator_1_BLOCK_EN_MASK;
 160:.\Generated_Source\PSoC5/pwmAgitator_1.c ****         /* Set the Interrupt source to come from the status register */
 161:.\Generated_Source\PSoC5/pwmAgitator_1.c ****         pwmAgitator_1_CONTROL2 |= pwmAgitator_1_CTRL2_IRQ_SEL;
 162:.\Generated_Source\PSoC5/pwmAgitator_1.c ****     #else
 163:.\Generated_Source\PSoC5/pwmAgitator_1.c ****         #if(pwmAgitator_1_UseStatus)
 164:.\Generated_Source\PSoC5/pwmAgitator_1.c **** 
 165:.\Generated_Source\PSoC5/pwmAgitator_1.c ****             /* CyEnterCriticalRegion and CyExitCriticalRegion are used to mark following region cri
 166:.\Generated_Source\PSoC5/pwmAgitator_1.c ****             /* Enter Critical Region*/
 167:.\Generated_Source\PSoC5/pwmAgitator_1.c ****             pwmAgitator_1_interruptState = CyEnterCriticalSection();
 118              		.loc 1 167 0
ARM GAS  C:\Users\plod1602\AppData\Local\Temp\ccEpNM6u.s 			page 6


 119 0046 FFF7FEFF 		bl	CyEnterCriticalSection
 120 004a 0346     		mov	r3, r0
 121 004c BB71     		strb	r3, [r7, #6]
 168:.\Generated_Source\PSoC5/pwmAgitator_1.c ****             /* Use the interrupt output of the status register for IRQ output */
 169:.\Generated_Source\PSoC5/pwmAgitator_1.c ****             pwmAgitator_1_STATUS_AUX_CTRL |= pwmAgitator_1_STATUS_ACTL_INT_EN_MASK;
 122              		.loc 1 169 0
 123 004e 094B     		ldr	r3, .L6+4
 124 0050 084A     		ldr	r2, .L6+4
 125 0052 1278     		ldrb	r2, [r2]
 126 0054 D2B2     		uxtb	r2, r2
 127 0056 42F01002 		orr	r2, r2, #16
 128 005a D2B2     		uxtb	r2, r2
 129 005c 1A70     		strb	r2, [r3]
 170:.\Generated_Source\PSoC5/pwmAgitator_1.c **** 
 171:.\Generated_Source\PSoC5/pwmAgitator_1.c ****              /* Exit Critical Region*/
 172:.\Generated_Source\PSoC5/pwmAgitator_1.c ****             CyExitCriticalSection(pwmAgitator_1_interruptState);
 130              		.loc 1 172 0
 131 005e BB79     		ldrb	r3, [r7, #6]	@ zero_extendqisi2
 132 0060 1846     		mov	r0, r3
 133 0062 FFF7FEFF 		bl	CyExitCriticalSection
 173:.\Generated_Source\PSoC5/pwmAgitator_1.c **** 
 174:.\Generated_Source\PSoC5/pwmAgitator_1.c ****             /* Clear the FIFO to enable the pwmAgitator_1_STATUS_FIFOFULL
 175:.\Generated_Source\PSoC5/pwmAgitator_1.c ****                    bit to be set on FIFO full. */
 176:.\Generated_Source\PSoC5/pwmAgitator_1.c ****             pwmAgitator_1_ClearFIFO();
 134              		.loc 1 176 0
 135 0066 FFF7FEFF 		bl	pwmAgitator_1_ClearFIFO
 177:.\Generated_Source\PSoC5/pwmAgitator_1.c ****         #endif /* (pwmAgitator_1_UseStatus) */
 178:.\Generated_Source\PSoC5/pwmAgitator_1.c ****     #endif /* (pwmAgitator_1_UsingFixedFunction) */
 179:.\Generated_Source\PSoC5/pwmAgitator_1.c **** }
 136              		.loc 1 179 0
 137 006a 0837     		adds	r7, r7, #8
 138 006c BD46     		mov	sp, r7
 139              		@ sp needed
 140 006e 80BD     		pop	{r7, pc}
 141              	.L7:
 142              		.align	2
 143              	.L6:
 144 0070 74640040 		.word	1073767540
 145 0074 94640040 		.word	1073767572
 146              		.cfi_endproc
 147              	.LFE1:
 148              		.size	pwmAgitator_1_Init, .-pwmAgitator_1_Init
 149              		.section	.text.pwmAgitator_1_Enable,"ax",%progbits
 150              		.align	2
 151              		.global	pwmAgitator_1_Enable
 152              		.thumb
 153              		.thumb_func
 154              		.type	pwmAgitator_1_Enable, %function
 155              	pwmAgitator_1_Enable:
 156              	.LFB2:
 180:.\Generated_Source\PSoC5/pwmAgitator_1.c **** 
 181:.\Generated_Source\PSoC5/pwmAgitator_1.c **** 
 182:.\Generated_Source\PSoC5/pwmAgitator_1.c **** /*******************************************************************************
 183:.\Generated_Source\PSoC5/pwmAgitator_1.c **** * Function Name: pwmAgitator_1_Enable
 184:.\Generated_Source\PSoC5/pwmAgitator_1.c **** ********************************************************************************
 185:.\Generated_Source\PSoC5/pwmAgitator_1.c **** *
 186:.\Generated_Source\PSoC5/pwmAgitator_1.c **** * Summary:
ARM GAS  C:\Users\plod1602\AppData\Local\Temp\ccEpNM6u.s 			page 7


 187:.\Generated_Source\PSoC5/pwmAgitator_1.c **** *  Enables the PWM block operation
 188:.\Generated_Source\PSoC5/pwmAgitator_1.c **** *
 189:.\Generated_Source\PSoC5/pwmAgitator_1.c **** * Parameters:
 190:.\Generated_Source\PSoC5/pwmAgitator_1.c **** *  None
 191:.\Generated_Source\PSoC5/pwmAgitator_1.c **** *
 192:.\Generated_Source\PSoC5/pwmAgitator_1.c **** * Return:
 193:.\Generated_Source\PSoC5/pwmAgitator_1.c **** *  None
 194:.\Generated_Source\PSoC5/pwmAgitator_1.c **** *
 195:.\Generated_Source\PSoC5/pwmAgitator_1.c **** * Side Effects:
 196:.\Generated_Source\PSoC5/pwmAgitator_1.c **** *  This works only if software enable mode is chosen
 197:.\Generated_Source\PSoC5/pwmAgitator_1.c **** *
 198:.\Generated_Source\PSoC5/pwmAgitator_1.c **** *******************************************************************************/
 199:.\Generated_Source\PSoC5/pwmAgitator_1.c **** void pwmAgitator_1_Enable(void) 
 200:.\Generated_Source\PSoC5/pwmAgitator_1.c **** {
 157              		.loc 1 200 0
 158              		.cfi_startproc
 159              		@ args = 0, pretend = 0, frame = 0
 160              		@ frame_needed = 1, uses_anonymous_args = 0
 161              		@ link register save eliminated.
 162 0000 80B4     		push	{r7}
 163              		.cfi_def_cfa_offset 4
 164              		.cfi_offset 7, -4
 165 0002 00AF     		add	r7, sp, #0
 166              		.cfi_def_cfa_register 7
 201:.\Generated_Source\PSoC5/pwmAgitator_1.c ****     /* Globally Enable the Fixed Function Block chosen */
 202:.\Generated_Source\PSoC5/pwmAgitator_1.c ****     #if (pwmAgitator_1_UsingFixedFunction)
 203:.\Generated_Source\PSoC5/pwmAgitator_1.c ****         pwmAgitator_1_GLOBAL_ENABLE |= pwmAgitator_1_BLOCK_EN_MASK;
 204:.\Generated_Source\PSoC5/pwmAgitator_1.c ****         pwmAgitator_1_GLOBAL_STBY_ENABLE |= pwmAgitator_1_BLOCK_STBY_EN_MASK;
 205:.\Generated_Source\PSoC5/pwmAgitator_1.c ****     #endif /* (pwmAgitator_1_UsingFixedFunction) */
 206:.\Generated_Source\PSoC5/pwmAgitator_1.c **** 
 207:.\Generated_Source\PSoC5/pwmAgitator_1.c ****     /* Enable the PWM from the control register  */
 208:.\Generated_Source\PSoC5/pwmAgitator_1.c ****     #if (pwmAgitator_1_UseControl || pwmAgitator_1_UsingFixedFunction)
 209:.\Generated_Source\PSoC5/pwmAgitator_1.c ****         pwmAgitator_1_CONTROL |= pwmAgitator_1_CTRL_ENABLE;
 167              		.loc 1 209 0
 168 0004 054B     		ldr	r3, .L9
 169 0006 054A     		ldr	r2, .L9
 170 0008 1278     		ldrb	r2, [r2]
 171 000a D2B2     		uxtb	r2, r2
 172 000c 62F07F02 		orn	r2, r2, #127
 173 0010 D2B2     		uxtb	r2, r2
 174 0012 1A70     		strb	r2, [r3]
 210:.\Generated_Source\PSoC5/pwmAgitator_1.c ****     #endif /* (pwmAgitator_1_UseControl || pwmAgitator_1_UsingFixedFunction) */
 211:.\Generated_Source\PSoC5/pwmAgitator_1.c **** }
 175              		.loc 1 211 0
 176 0014 BD46     		mov	sp, r7
 177              		@ sp needed
 178 0016 5DF8047B 		ldr	r7, [sp], #4
 179 001a 7047     		bx	lr
 180              	.L10:
 181              		.align	2
 182              	.L9:
 183 001c 74640040 		.word	1073767540
 184              		.cfi_endproc
 185              	.LFE2:
 186              		.size	pwmAgitator_1_Enable, .-pwmAgitator_1_Enable
 187              		.section	.text.pwmAgitator_1_Stop,"ax",%progbits
 188              		.align	2
ARM GAS  C:\Users\plod1602\AppData\Local\Temp\ccEpNM6u.s 			page 8


 189              		.global	pwmAgitator_1_Stop
 190              		.thumb
 191              		.thumb_func
 192              		.type	pwmAgitator_1_Stop, %function
 193              	pwmAgitator_1_Stop:
 194              	.LFB3:
 212:.\Generated_Source\PSoC5/pwmAgitator_1.c **** 
 213:.\Generated_Source\PSoC5/pwmAgitator_1.c **** 
 214:.\Generated_Source\PSoC5/pwmAgitator_1.c **** /*******************************************************************************
 215:.\Generated_Source\PSoC5/pwmAgitator_1.c **** * Function Name: pwmAgitator_1_Stop
 216:.\Generated_Source\PSoC5/pwmAgitator_1.c **** ********************************************************************************
 217:.\Generated_Source\PSoC5/pwmAgitator_1.c **** *
 218:.\Generated_Source\PSoC5/pwmAgitator_1.c **** * Summary:
 219:.\Generated_Source\PSoC5/pwmAgitator_1.c **** *  The stop function halts the PWM, but does not change any modes or disable
 220:.\Generated_Source\PSoC5/pwmAgitator_1.c **** *  interrupts.
 221:.\Generated_Source\PSoC5/pwmAgitator_1.c **** *
 222:.\Generated_Source\PSoC5/pwmAgitator_1.c **** * Parameters:
 223:.\Generated_Source\PSoC5/pwmAgitator_1.c **** *  None
 224:.\Generated_Source\PSoC5/pwmAgitator_1.c **** *
 225:.\Generated_Source\PSoC5/pwmAgitator_1.c **** * Return:
 226:.\Generated_Source\PSoC5/pwmAgitator_1.c **** *  None
 227:.\Generated_Source\PSoC5/pwmAgitator_1.c **** *
 228:.\Generated_Source\PSoC5/pwmAgitator_1.c **** * Side Effects:
 229:.\Generated_Source\PSoC5/pwmAgitator_1.c **** *  If the Enable mode is set to Hardware only then this function
 230:.\Generated_Source\PSoC5/pwmAgitator_1.c **** *  has no effect on the operation of the PWM
 231:.\Generated_Source\PSoC5/pwmAgitator_1.c **** *
 232:.\Generated_Source\PSoC5/pwmAgitator_1.c **** *******************************************************************************/
 233:.\Generated_Source\PSoC5/pwmAgitator_1.c **** void pwmAgitator_1_Stop(void) 
 234:.\Generated_Source\PSoC5/pwmAgitator_1.c **** {
 195              		.loc 1 234 0
 196              		.cfi_startproc
 197              		@ args = 0, pretend = 0, frame = 0
 198              		@ frame_needed = 1, uses_anonymous_args = 0
 199              		@ link register save eliminated.
 200 0000 80B4     		push	{r7}
 201              		.cfi_def_cfa_offset 4
 202              		.cfi_offset 7, -4
 203 0002 00AF     		add	r7, sp, #0
 204              		.cfi_def_cfa_register 7
 235:.\Generated_Source\PSoC5/pwmAgitator_1.c ****     #if (pwmAgitator_1_UseControl || pwmAgitator_1_UsingFixedFunction)
 236:.\Generated_Source\PSoC5/pwmAgitator_1.c ****         pwmAgitator_1_CONTROL &= ((uint8)(~pwmAgitator_1_CTRL_ENABLE));
 205              		.loc 1 236 0
 206 0004 054B     		ldr	r3, .L12
 207 0006 054A     		ldr	r2, .L12
 208 0008 1278     		ldrb	r2, [r2]
 209 000a D2B2     		uxtb	r2, r2
 210 000c 02F07F02 		and	r2, r2, #127
 211 0010 D2B2     		uxtb	r2, r2
 212 0012 1A70     		strb	r2, [r3]
 237:.\Generated_Source\PSoC5/pwmAgitator_1.c ****     #endif /* (pwmAgitator_1_UseControl || pwmAgitator_1_UsingFixedFunction) */
 238:.\Generated_Source\PSoC5/pwmAgitator_1.c **** 
 239:.\Generated_Source\PSoC5/pwmAgitator_1.c ****     /* Globally disable the Fixed Function Block chosen */
 240:.\Generated_Source\PSoC5/pwmAgitator_1.c ****     #if (pwmAgitator_1_UsingFixedFunction)
 241:.\Generated_Source\PSoC5/pwmAgitator_1.c ****         pwmAgitator_1_GLOBAL_ENABLE &= ((uint8)(~pwmAgitator_1_BLOCK_EN_MASK));
 242:.\Generated_Source\PSoC5/pwmAgitator_1.c ****         pwmAgitator_1_GLOBAL_STBY_ENABLE &= ((uint8)(~pwmAgitator_1_BLOCK_STBY_EN_MASK));
 243:.\Generated_Source\PSoC5/pwmAgitator_1.c ****     #endif /* (pwmAgitator_1_UsingFixedFunction) */
 244:.\Generated_Source\PSoC5/pwmAgitator_1.c **** }
ARM GAS  C:\Users\plod1602\AppData\Local\Temp\ccEpNM6u.s 			page 9


 213              		.loc 1 244 0
 214 0014 BD46     		mov	sp, r7
 215              		@ sp needed
 216 0016 5DF8047B 		ldr	r7, [sp], #4
 217 001a 7047     		bx	lr
 218              	.L13:
 219              		.align	2
 220              	.L12:
 221 001c 74640040 		.word	1073767540
 222              		.cfi_endproc
 223              	.LFE3:
 224              		.size	pwmAgitator_1_Stop, .-pwmAgitator_1_Stop
 225              		.section	.text.pwmAgitator_1_WriteCounter,"ax",%progbits
 226              		.align	2
 227              		.global	pwmAgitator_1_WriteCounter
 228              		.thumb
 229              		.thumb_func
 230              		.type	pwmAgitator_1_WriteCounter, %function
 231              	pwmAgitator_1_WriteCounter:
 232              	.LFB4:
 245:.\Generated_Source\PSoC5/pwmAgitator_1.c **** 
 246:.\Generated_Source\PSoC5/pwmAgitator_1.c **** #if (pwmAgitator_1_UseOneCompareMode)
 247:.\Generated_Source\PSoC5/pwmAgitator_1.c ****     #if (pwmAgitator_1_CompareMode1SW)
 248:.\Generated_Source\PSoC5/pwmAgitator_1.c **** 
 249:.\Generated_Source\PSoC5/pwmAgitator_1.c **** 
 250:.\Generated_Source\PSoC5/pwmAgitator_1.c ****         /*******************************************************************************
 251:.\Generated_Source\PSoC5/pwmAgitator_1.c ****         * Function Name: pwmAgitator_1_SetCompareMode
 252:.\Generated_Source\PSoC5/pwmAgitator_1.c ****         ********************************************************************************
 253:.\Generated_Source\PSoC5/pwmAgitator_1.c ****         *
 254:.\Generated_Source\PSoC5/pwmAgitator_1.c ****         * Summary:
 255:.\Generated_Source\PSoC5/pwmAgitator_1.c ****         *  This function writes the Compare Mode for the pwm output when in Dither mode,
 256:.\Generated_Source\PSoC5/pwmAgitator_1.c ****         *  Center Align Mode or One Output Mode.
 257:.\Generated_Source\PSoC5/pwmAgitator_1.c ****         *
 258:.\Generated_Source\PSoC5/pwmAgitator_1.c ****         * Parameters:
 259:.\Generated_Source\PSoC5/pwmAgitator_1.c ****         *  comparemode:  The new compare mode for the PWM output. Use the compare types
 260:.\Generated_Source\PSoC5/pwmAgitator_1.c ****         *                defined in the H file as input arguments.
 261:.\Generated_Source\PSoC5/pwmAgitator_1.c ****         *
 262:.\Generated_Source\PSoC5/pwmAgitator_1.c ****         * Return:
 263:.\Generated_Source\PSoC5/pwmAgitator_1.c ****         *  None
 264:.\Generated_Source\PSoC5/pwmAgitator_1.c ****         *
 265:.\Generated_Source\PSoC5/pwmAgitator_1.c ****         *******************************************************************************/
 266:.\Generated_Source\PSoC5/pwmAgitator_1.c ****         void pwmAgitator_1_SetCompareMode(uint8 comparemode) 
 267:.\Generated_Source\PSoC5/pwmAgitator_1.c ****         {
 268:.\Generated_Source\PSoC5/pwmAgitator_1.c ****             #if(pwmAgitator_1_UsingFixedFunction)
 269:.\Generated_Source\PSoC5/pwmAgitator_1.c **** 
 270:.\Generated_Source\PSoC5/pwmAgitator_1.c ****                 #if(0 != pwmAgitator_1_CTRL_CMPMODE1_SHIFT)
 271:.\Generated_Source\PSoC5/pwmAgitator_1.c ****                     uint8 comparemodemasked = ((uint8)((uint8)comparemode << pwmAgitator_1_CTRL_CMP
 272:.\Generated_Source\PSoC5/pwmAgitator_1.c ****                 #else
 273:.\Generated_Source\PSoC5/pwmAgitator_1.c ****                     uint8 comparemodemasked = comparemode;
 274:.\Generated_Source\PSoC5/pwmAgitator_1.c ****                 #endif /* (0 != pwmAgitator_1_CTRL_CMPMODE1_SHIFT) */
 275:.\Generated_Source\PSoC5/pwmAgitator_1.c **** 
 276:.\Generated_Source\PSoC5/pwmAgitator_1.c ****                 pwmAgitator_1_CONTROL3 &= ((uint8)(~pwmAgitator_1_CTRL_CMPMODE1_MASK)); /*Clear Exi
 277:.\Generated_Source\PSoC5/pwmAgitator_1.c ****                 pwmAgitator_1_CONTROL3 |= comparemodemasked;
 278:.\Generated_Source\PSoC5/pwmAgitator_1.c **** 
 279:.\Generated_Source\PSoC5/pwmAgitator_1.c ****             #elif (pwmAgitator_1_UseControl)
 280:.\Generated_Source\PSoC5/pwmAgitator_1.c **** 
 281:.\Generated_Source\PSoC5/pwmAgitator_1.c ****                 #if(0 != pwmAgitator_1_CTRL_CMPMODE1_SHIFT)
ARM GAS  C:\Users\plod1602\AppData\Local\Temp\ccEpNM6u.s 			page 10


 282:.\Generated_Source\PSoC5/pwmAgitator_1.c ****                     uint8 comparemode1masked = ((uint8)((uint8)comparemode << pwmAgitator_1_CTRL_CM
 283:.\Generated_Source\PSoC5/pwmAgitator_1.c ****                                                 pwmAgitator_1_CTRL_CMPMODE1_MASK;
 284:.\Generated_Source\PSoC5/pwmAgitator_1.c ****                 #else
 285:.\Generated_Source\PSoC5/pwmAgitator_1.c ****                     uint8 comparemode1masked = comparemode & pwmAgitator_1_CTRL_CMPMODE1_MASK;
 286:.\Generated_Source\PSoC5/pwmAgitator_1.c ****                 #endif /* (0 != pwmAgitator_1_CTRL_CMPMODE1_SHIFT) */
 287:.\Generated_Source\PSoC5/pwmAgitator_1.c **** 
 288:.\Generated_Source\PSoC5/pwmAgitator_1.c ****                 #if(0 != pwmAgitator_1_CTRL_CMPMODE2_SHIFT)
 289:.\Generated_Source\PSoC5/pwmAgitator_1.c ****                     uint8 comparemode2masked = ((uint8)((uint8)comparemode << pwmAgitator_1_CTRL_CM
 290:.\Generated_Source\PSoC5/pwmAgitator_1.c ****                                                pwmAgitator_1_CTRL_CMPMODE2_MASK;
 291:.\Generated_Source\PSoC5/pwmAgitator_1.c ****                 #else
 292:.\Generated_Source\PSoC5/pwmAgitator_1.c ****                     uint8 comparemode2masked = comparemode & pwmAgitator_1_CTRL_CMPMODE2_MASK;
 293:.\Generated_Source\PSoC5/pwmAgitator_1.c ****                 #endif /* (0 != pwmAgitator_1_CTRL_CMPMODE2_SHIFT) */
 294:.\Generated_Source\PSoC5/pwmAgitator_1.c **** 
 295:.\Generated_Source\PSoC5/pwmAgitator_1.c ****                 /*Clear existing mode */
 296:.\Generated_Source\PSoC5/pwmAgitator_1.c ****                 pwmAgitator_1_CONTROL &= ((uint8)(~(pwmAgitator_1_CTRL_CMPMODE1_MASK |
 297:.\Generated_Source\PSoC5/pwmAgitator_1.c ****                                             pwmAgitator_1_CTRL_CMPMODE2_MASK)));
 298:.\Generated_Source\PSoC5/pwmAgitator_1.c ****                 pwmAgitator_1_CONTROL |= (comparemode1masked | comparemode2masked);
 299:.\Generated_Source\PSoC5/pwmAgitator_1.c **** 
 300:.\Generated_Source\PSoC5/pwmAgitator_1.c ****             #else
 301:.\Generated_Source\PSoC5/pwmAgitator_1.c ****                 uint8 temp = comparemode;
 302:.\Generated_Source\PSoC5/pwmAgitator_1.c ****             #endif /* (pwmAgitator_1_UsingFixedFunction) */
 303:.\Generated_Source\PSoC5/pwmAgitator_1.c ****         }
 304:.\Generated_Source\PSoC5/pwmAgitator_1.c ****     #endif /* pwmAgitator_1_CompareMode1SW */
 305:.\Generated_Source\PSoC5/pwmAgitator_1.c **** 
 306:.\Generated_Source\PSoC5/pwmAgitator_1.c **** #else /* UseOneCompareMode */
 307:.\Generated_Source\PSoC5/pwmAgitator_1.c **** 
 308:.\Generated_Source\PSoC5/pwmAgitator_1.c ****     #if (pwmAgitator_1_CompareMode1SW)
 309:.\Generated_Source\PSoC5/pwmAgitator_1.c **** 
 310:.\Generated_Source\PSoC5/pwmAgitator_1.c **** 
 311:.\Generated_Source\PSoC5/pwmAgitator_1.c ****         /*******************************************************************************
 312:.\Generated_Source\PSoC5/pwmAgitator_1.c ****         * Function Name: pwmAgitator_1_SetCompareMode1
 313:.\Generated_Source\PSoC5/pwmAgitator_1.c ****         ********************************************************************************
 314:.\Generated_Source\PSoC5/pwmAgitator_1.c ****         *
 315:.\Generated_Source\PSoC5/pwmAgitator_1.c ****         * Summary:
 316:.\Generated_Source\PSoC5/pwmAgitator_1.c ****         *  This function writes the Compare Mode for the pwm or pwm1 output
 317:.\Generated_Source\PSoC5/pwmAgitator_1.c ****         *
 318:.\Generated_Source\PSoC5/pwmAgitator_1.c ****         * Parameters:
 319:.\Generated_Source\PSoC5/pwmAgitator_1.c ****         *  comparemode:  The new compare mode for the PWM output. Use the compare types
 320:.\Generated_Source\PSoC5/pwmAgitator_1.c ****         *                defined in the H file as input arguments.
 321:.\Generated_Source\PSoC5/pwmAgitator_1.c ****         *
 322:.\Generated_Source\PSoC5/pwmAgitator_1.c ****         * Return:
 323:.\Generated_Source\PSoC5/pwmAgitator_1.c ****         *  None
 324:.\Generated_Source\PSoC5/pwmAgitator_1.c ****         *
 325:.\Generated_Source\PSoC5/pwmAgitator_1.c ****         *******************************************************************************/
 326:.\Generated_Source\PSoC5/pwmAgitator_1.c ****         void pwmAgitator_1_SetCompareMode1(uint8 comparemode) 
 327:.\Generated_Source\PSoC5/pwmAgitator_1.c ****         {
 328:.\Generated_Source\PSoC5/pwmAgitator_1.c ****             #if(0 != pwmAgitator_1_CTRL_CMPMODE1_SHIFT)
 329:.\Generated_Source\PSoC5/pwmAgitator_1.c ****                 uint8 comparemodemasked = ((uint8)((uint8)comparemode << pwmAgitator_1_CTRL_CMPMODE
 330:.\Generated_Source\PSoC5/pwmAgitator_1.c ****                                            pwmAgitator_1_CTRL_CMPMODE1_MASK;
 331:.\Generated_Source\PSoC5/pwmAgitator_1.c ****             #else
 332:.\Generated_Source\PSoC5/pwmAgitator_1.c ****                 uint8 comparemodemasked = comparemode & pwmAgitator_1_CTRL_CMPMODE1_MASK;
 333:.\Generated_Source\PSoC5/pwmAgitator_1.c ****             #endif /* (0 != pwmAgitator_1_CTRL_CMPMODE1_SHIFT) */
 334:.\Generated_Source\PSoC5/pwmAgitator_1.c **** 
 335:.\Generated_Source\PSoC5/pwmAgitator_1.c ****             #if (pwmAgitator_1_UseControl)
 336:.\Generated_Source\PSoC5/pwmAgitator_1.c ****                 pwmAgitator_1_CONTROL &= ((uint8)(~pwmAgitator_1_CTRL_CMPMODE1_MASK)); /*Clear exis
 337:.\Generated_Source\PSoC5/pwmAgitator_1.c ****                 pwmAgitator_1_CONTROL |= comparemodemasked;
 338:.\Generated_Source\PSoC5/pwmAgitator_1.c ****             #endif /* (pwmAgitator_1_UseControl) */
ARM GAS  C:\Users\plod1602\AppData\Local\Temp\ccEpNM6u.s 			page 11


 339:.\Generated_Source\PSoC5/pwmAgitator_1.c ****         }
 340:.\Generated_Source\PSoC5/pwmAgitator_1.c ****     #endif /* pwmAgitator_1_CompareMode1SW */
 341:.\Generated_Source\PSoC5/pwmAgitator_1.c **** 
 342:.\Generated_Source\PSoC5/pwmAgitator_1.c **** #if (pwmAgitator_1_CompareMode2SW)
 343:.\Generated_Source\PSoC5/pwmAgitator_1.c **** 
 344:.\Generated_Source\PSoC5/pwmAgitator_1.c **** 
 345:.\Generated_Source\PSoC5/pwmAgitator_1.c ****     /*******************************************************************************
 346:.\Generated_Source\PSoC5/pwmAgitator_1.c ****     * Function Name: pwmAgitator_1_SetCompareMode2
 347:.\Generated_Source\PSoC5/pwmAgitator_1.c ****     ********************************************************************************
 348:.\Generated_Source\PSoC5/pwmAgitator_1.c ****     *
 349:.\Generated_Source\PSoC5/pwmAgitator_1.c ****     * Summary:
 350:.\Generated_Source\PSoC5/pwmAgitator_1.c ****     *  This function writes the Compare Mode for the pwm or pwm2 output
 351:.\Generated_Source\PSoC5/pwmAgitator_1.c ****     *
 352:.\Generated_Source\PSoC5/pwmAgitator_1.c ****     * Parameters:
 353:.\Generated_Source\PSoC5/pwmAgitator_1.c ****     *  comparemode:  The new compare mode for the PWM output. Use the compare types
 354:.\Generated_Source\PSoC5/pwmAgitator_1.c ****     *                defined in the H file as input arguments.
 355:.\Generated_Source\PSoC5/pwmAgitator_1.c ****     *
 356:.\Generated_Source\PSoC5/pwmAgitator_1.c ****     * Return:
 357:.\Generated_Source\PSoC5/pwmAgitator_1.c ****     *  None
 358:.\Generated_Source\PSoC5/pwmAgitator_1.c ****     *
 359:.\Generated_Source\PSoC5/pwmAgitator_1.c ****     *******************************************************************************/
 360:.\Generated_Source\PSoC5/pwmAgitator_1.c ****     void pwmAgitator_1_SetCompareMode2(uint8 comparemode) 
 361:.\Generated_Source\PSoC5/pwmAgitator_1.c ****     {
 362:.\Generated_Source\PSoC5/pwmAgitator_1.c **** 
 363:.\Generated_Source\PSoC5/pwmAgitator_1.c ****         #if(0 != pwmAgitator_1_CTRL_CMPMODE2_SHIFT)
 364:.\Generated_Source\PSoC5/pwmAgitator_1.c ****             uint8 comparemodemasked = ((uint8)((uint8)comparemode << pwmAgitator_1_CTRL_CMPMODE2_SH
 365:.\Generated_Source\PSoC5/pwmAgitator_1.c ****                                                  pwmAgitator_1_CTRL_CMPMODE2_MASK;
 366:.\Generated_Source\PSoC5/pwmAgitator_1.c ****         #else
 367:.\Generated_Source\PSoC5/pwmAgitator_1.c ****             uint8 comparemodemasked = comparemode & pwmAgitator_1_CTRL_CMPMODE2_MASK;
 368:.\Generated_Source\PSoC5/pwmAgitator_1.c ****         #endif /* (0 != pwmAgitator_1_CTRL_CMPMODE2_SHIFT) */
 369:.\Generated_Source\PSoC5/pwmAgitator_1.c **** 
 370:.\Generated_Source\PSoC5/pwmAgitator_1.c ****         #if (pwmAgitator_1_UseControl)
 371:.\Generated_Source\PSoC5/pwmAgitator_1.c ****             pwmAgitator_1_CONTROL &= ((uint8)(~pwmAgitator_1_CTRL_CMPMODE2_MASK)); /*Clear existing
 372:.\Generated_Source\PSoC5/pwmAgitator_1.c ****             pwmAgitator_1_CONTROL |= comparemodemasked;
 373:.\Generated_Source\PSoC5/pwmAgitator_1.c ****         #endif /* (pwmAgitator_1_UseControl) */
 374:.\Generated_Source\PSoC5/pwmAgitator_1.c ****     }
 375:.\Generated_Source\PSoC5/pwmAgitator_1.c ****     #endif /*pwmAgitator_1_CompareMode2SW */
 376:.\Generated_Source\PSoC5/pwmAgitator_1.c **** 
 377:.\Generated_Source\PSoC5/pwmAgitator_1.c **** #endif /* UseOneCompareMode */
 378:.\Generated_Source\PSoC5/pwmAgitator_1.c **** 
 379:.\Generated_Source\PSoC5/pwmAgitator_1.c **** 
 380:.\Generated_Source\PSoC5/pwmAgitator_1.c **** #if (!pwmAgitator_1_UsingFixedFunction)
 381:.\Generated_Source\PSoC5/pwmAgitator_1.c **** 
 382:.\Generated_Source\PSoC5/pwmAgitator_1.c **** 
 383:.\Generated_Source\PSoC5/pwmAgitator_1.c ****     /*******************************************************************************
 384:.\Generated_Source\PSoC5/pwmAgitator_1.c ****     * Function Name: pwmAgitator_1_WriteCounter
 385:.\Generated_Source\PSoC5/pwmAgitator_1.c ****     ********************************************************************************
 386:.\Generated_Source\PSoC5/pwmAgitator_1.c ****     *
 387:.\Generated_Source\PSoC5/pwmAgitator_1.c ****     * Summary:
 388:.\Generated_Source\PSoC5/pwmAgitator_1.c ****     *  Writes a new counter value directly to the counter register. This will be
 389:.\Generated_Source\PSoC5/pwmAgitator_1.c ****     *  implemented for that currently running period and only that period. This API
 390:.\Generated_Source\PSoC5/pwmAgitator_1.c ****     *  is valid only for UDB implementation and not available for fixed function
 391:.\Generated_Source\PSoC5/pwmAgitator_1.c ****     *  PWM implementation.
 392:.\Generated_Source\PSoC5/pwmAgitator_1.c ****     *
 393:.\Generated_Source\PSoC5/pwmAgitator_1.c ****     * Parameters:
 394:.\Generated_Source\PSoC5/pwmAgitator_1.c ****     *  counter:  The period new period counter value.
 395:.\Generated_Source\PSoC5/pwmAgitator_1.c ****     *
ARM GAS  C:\Users\plod1602\AppData\Local\Temp\ccEpNM6u.s 			page 12


 396:.\Generated_Source\PSoC5/pwmAgitator_1.c ****     * Return:
 397:.\Generated_Source\PSoC5/pwmAgitator_1.c ****     *  None
 398:.\Generated_Source\PSoC5/pwmAgitator_1.c ****     *
 399:.\Generated_Source\PSoC5/pwmAgitator_1.c ****     * Side Effects:
 400:.\Generated_Source\PSoC5/pwmAgitator_1.c ****     *  The PWM Period will be reloaded when a counter value will be a zero
 401:.\Generated_Source\PSoC5/pwmAgitator_1.c ****     *
 402:.\Generated_Source\PSoC5/pwmAgitator_1.c ****     *******************************************************************************/
 403:.\Generated_Source\PSoC5/pwmAgitator_1.c ****     void pwmAgitator_1_WriteCounter(uint8 counter) \
 404:.\Generated_Source\PSoC5/pwmAgitator_1.c ****                                        
 405:.\Generated_Source\PSoC5/pwmAgitator_1.c ****     {
 233              		.loc 1 405 0
 234              		.cfi_startproc
 235              		@ args = 0, pretend = 0, frame = 8
 236              		@ frame_needed = 1, uses_anonymous_args = 0
 237              		@ link register save eliminated.
 238 0000 80B4     		push	{r7}
 239              		.cfi_def_cfa_offset 4
 240              		.cfi_offset 7, -4
 241 0002 83B0     		sub	sp, sp, #12
 242              		.cfi_def_cfa_offset 16
 243 0004 00AF     		add	r7, sp, #0
 244              		.cfi_def_cfa_register 7
 245 0006 0346     		mov	r3, r0
 246 0008 FB71     		strb	r3, [r7, #7]
 406:.\Generated_Source\PSoC5/pwmAgitator_1.c ****         CY_SET_REG8(pwmAgitator_1_COUNTER_LSB_PTR, counter);
 247              		.loc 1 406 0
 248 000a 044B     		ldr	r3, .L15
 249 000c FA79     		ldrb	r2, [r7, #7]
 250 000e 1A70     		strb	r2, [r3]
 407:.\Generated_Source\PSoC5/pwmAgitator_1.c ****     }
 251              		.loc 1 407 0
 252 0010 0C37     		adds	r7, r7, #12
 253 0012 BD46     		mov	sp, r7
 254              		@ sp needed
 255 0014 5DF8047B 		ldr	r7, [sp], #4
 256 0018 7047     		bx	lr
 257              	.L16:
 258 001a 00BF     		.align	2
 259              	.L15:
 260 001c 04640040 		.word	1073767428
 261              		.cfi_endproc
 262              	.LFE4:
 263              		.size	pwmAgitator_1_WriteCounter, .-pwmAgitator_1_WriteCounter
 264              		.section	.text.pwmAgitator_1_ReadCounter,"ax",%progbits
 265              		.align	2
 266              		.global	pwmAgitator_1_ReadCounter
 267              		.thumb
 268              		.thumb_func
 269              		.type	pwmAgitator_1_ReadCounter, %function
 270              	pwmAgitator_1_ReadCounter:
 271              	.LFB5:
 408:.\Generated_Source\PSoC5/pwmAgitator_1.c **** 
 409:.\Generated_Source\PSoC5/pwmAgitator_1.c **** 
 410:.\Generated_Source\PSoC5/pwmAgitator_1.c ****     /*******************************************************************************
 411:.\Generated_Source\PSoC5/pwmAgitator_1.c ****     * Function Name: pwmAgitator_1_ReadCounter
 412:.\Generated_Source\PSoC5/pwmAgitator_1.c ****     ********************************************************************************
 413:.\Generated_Source\PSoC5/pwmAgitator_1.c ****     *
ARM GAS  C:\Users\plod1602\AppData\Local\Temp\ccEpNM6u.s 			page 13


 414:.\Generated_Source\PSoC5/pwmAgitator_1.c ****     * Summary:
 415:.\Generated_Source\PSoC5/pwmAgitator_1.c ****     *  This function returns the current value of the counter.  It doesn't matter
 416:.\Generated_Source\PSoC5/pwmAgitator_1.c ****     *  if the counter is enabled or running.
 417:.\Generated_Source\PSoC5/pwmAgitator_1.c ****     *
 418:.\Generated_Source\PSoC5/pwmAgitator_1.c ****     * Parameters:
 419:.\Generated_Source\PSoC5/pwmAgitator_1.c ****     *  None
 420:.\Generated_Source\PSoC5/pwmAgitator_1.c ****     *
 421:.\Generated_Source\PSoC5/pwmAgitator_1.c ****     * Return:
 422:.\Generated_Source\PSoC5/pwmAgitator_1.c ****     *  The current value of the counter.
 423:.\Generated_Source\PSoC5/pwmAgitator_1.c ****     *
 424:.\Generated_Source\PSoC5/pwmAgitator_1.c ****     *******************************************************************************/
 425:.\Generated_Source\PSoC5/pwmAgitator_1.c ****     uint8 pwmAgitator_1_ReadCounter(void) 
 426:.\Generated_Source\PSoC5/pwmAgitator_1.c ****     {
 272              		.loc 1 426 0
 273              		.cfi_startproc
 274              		@ args = 0, pretend = 0, frame = 0
 275              		@ frame_needed = 1, uses_anonymous_args = 0
 276              		@ link register save eliminated.
 277 0000 80B4     		push	{r7}
 278              		.cfi_def_cfa_offset 4
 279              		.cfi_offset 7, -4
 280 0002 00AF     		add	r7, sp, #0
 281              		.cfi_def_cfa_register 7
 427:.\Generated_Source\PSoC5/pwmAgitator_1.c ****         /* Force capture by reading Accumulator */
 428:.\Generated_Source\PSoC5/pwmAgitator_1.c ****         /* Must first do a software capture to be able to read the counter */
 429:.\Generated_Source\PSoC5/pwmAgitator_1.c ****         /* It is up to the user code to make sure there isn't already captured data in the FIFO */
 430:.\Generated_Source\PSoC5/pwmAgitator_1.c ****           (void)CY_GET_REG8(pwmAgitator_1_COUNTERCAP_LSB_PTR_8BIT);
 282              		.loc 1 430 0
 283 0004 044B     		ldr	r3, .L19
 284 0006 1B78     		ldrb	r3, [r3]
 431:.\Generated_Source\PSoC5/pwmAgitator_1.c **** 
 432:.\Generated_Source\PSoC5/pwmAgitator_1.c ****         /* Read the data from the FIFO */
 433:.\Generated_Source\PSoC5/pwmAgitator_1.c ****         return (CY_GET_REG8(pwmAgitator_1_CAPTURE_LSB_PTR));
 285              		.loc 1 433 0
 286 0008 044B     		ldr	r3, .L19+4
 287 000a 1B78     		ldrb	r3, [r3]
 288 000c DBB2     		uxtb	r3, r3
 434:.\Generated_Source\PSoC5/pwmAgitator_1.c ****     }
 289              		.loc 1 434 0
 290 000e 1846     		mov	r0, r3
 291 0010 BD46     		mov	sp, r7
 292              		@ sp needed
 293 0012 5DF8047B 		ldr	r7, [sp], #4
 294 0016 7047     		bx	lr
 295              	.L20:
 296              		.align	2
 297              	.L19:
 298 0018 14640040 		.word	1073767444
 299 001c 54640040 		.word	1073767508
 300              		.cfi_endproc
 301              	.LFE5:
 302              		.size	pwmAgitator_1_ReadCounter, .-pwmAgitator_1_ReadCounter
 303              		.section	.text.pwmAgitator_1_ClearFIFO,"ax",%progbits
 304              		.align	2
 305              		.global	pwmAgitator_1_ClearFIFO
 306              		.thumb
 307              		.thumb_func
ARM GAS  C:\Users\plod1602\AppData\Local\Temp\ccEpNM6u.s 			page 14


 308              		.type	pwmAgitator_1_ClearFIFO, %function
 309              	pwmAgitator_1_ClearFIFO:
 310              	.LFB6:
 435:.\Generated_Source\PSoC5/pwmAgitator_1.c **** 
 436:.\Generated_Source\PSoC5/pwmAgitator_1.c ****     #if (pwmAgitator_1_UseStatus)
 437:.\Generated_Source\PSoC5/pwmAgitator_1.c **** 
 438:.\Generated_Source\PSoC5/pwmAgitator_1.c **** 
 439:.\Generated_Source\PSoC5/pwmAgitator_1.c ****         /*******************************************************************************
 440:.\Generated_Source\PSoC5/pwmAgitator_1.c ****         * Function Name: pwmAgitator_1_ClearFIFO
 441:.\Generated_Source\PSoC5/pwmAgitator_1.c ****         ********************************************************************************
 442:.\Generated_Source\PSoC5/pwmAgitator_1.c ****         *
 443:.\Generated_Source\PSoC5/pwmAgitator_1.c ****         * Summary:
 444:.\Generated_Source\PSoC5/pwmAgitator_1.c ****         *  This function clears all capture data from the capture FIFO
 445:.\Generated_Source\PSoC5/pwmAgitator_1.c ****         *
 446:.\Generated_Source\PSoC5/pwmAgitator_1.c ****         * Parameters:
 447:.\Generated_Source\PSoC5/pwmAgitator_1.c ****         *  None
 448:.\Generated_Source\PSoC5/pwmAgitator_1.c ****         *
 449:.\Generated_Source\PSoC5/pwmAgitator_1.c ****         * Return:
 450:.\Generated_Source\PSoC5/pwmAgitator_1.c ****         *  None
 451:.\Generated_Source\PSoC5/pwmAgitator_1.c ****         *
 452:.\Generated_Source\PSoC5/pwmAgitator_1.c ****         *******************************************************************************/
 453:.\Generated_Source\PSoC5/pwmAgitator_1.c ****         void pwmAgitator_1_ClearFIFO(void) 
 454:.\Generated_Source\PSoC5/pwmAgitator_1.c ****         {
 311              		.loc 1 454 0
 312              		.cfi_startproc
 313              		@ args = 0, pretend = 0, frame = 0
 314              		@ frame_needed = 1, uses_anonymous_args = 0
 315 0000 80B5     		push	{r7, lr}
 316              		.cfi_def_cfa_offset 8
 317              		.cfi_offset 7, -8
 318              		.cfi_offset 14, -4
 319 0002 00AF     		add	r7, sp, #0
 320              		.cfi_def_cfa_register 7
 455:.\Generated_Source\PSoC5/pwmAgitator_1.c ****             while(0u != (pwmAgitator_1_ReadStatusRegister() & pwmAgitator_1_STATUS_FIFONEMPTY))
 321              		.loc 1 455 0
 322 0004 01E0     		b	.L22
 323              	.L23:
 456:.\Generated_Source\PSoC5/pwmAgitator_1.c ****             {
 457:.\Generated_Source\PSoC5/pwmAgitator_1.c ****                 (void)pwmAgitator_1_ReadCapture();
 324              		.loc 1 457 0
 325 0006 FFF7FEFF 		bl	pwmAgitator_1_ReadCapture
 326              	.L22:
 455:.\Generated_Source\PSoC5/pwmAgitator_1.c ****             while(0u != (pwmAgitator_1_ReadStatusRegister() & pwmAgitator_1_STATUS_FIFONEMPTY))
 327              		.loc 1 455 0 discriminator 1
 328 000a FFF7FEFF 		bl	pwmAgitator_1_ReadStatusRegister
 329 000e 0346     		mov	r3, r0
 330 0010 03F01003 		and	r3, r3, #16
 331 0014 002B     		cmp	r3, #0
 332 0016 F6D1     		bne	.L23
 458:.\Generated_Source\PSoC5/pwmAgitator_1.c ****             }
 459:.\Generated_Source\PSoC5/pwmAgitator_1.c ****         }
 333              		.loc 1 459 0
 334 0018 80BD     		pop	{r7, pc}
 335              		.cfi_endproc
 336              	.LFE6:
 337              		.size	pwmAgitator_1_ClearFIFO, .-pwmAgitator_1_ClearFIFO
 338 001a 00BF     		.section	.text.pwmAgitator_1_WritePeriod,"ax",%progbits
ARM GAS  C:\Users\plod1602\AppData\Local\Temp\ccEpNM6u.s 			page 15


 339              		.align	2
 340              		.global	pwmAgitator_1_WritePeriod
 341              		.thumb
 342              		.thumb_func
 343              		.type	pwmAgitator_1_WritePeriod, %function
 344              	pwmAgitator_1_WritePeriod:
 345              	.LFB7:
 460:.\Generated_Source\PSoC5/pwmAgitator_1.c **** 
 461:.\Generated_Source\PSoC5/pwmAgitator_1.c ****     #endif /* pwmAgitator_1_UseStatus */
 462:.\Generated_Source\PSoC5/pwmAgitator_1.c **** 
 463:.\Generated_Source\PSoC5/pwmAgitator_1.c **** #endif /* !pwmAgitator_1_UsingFixedFunction */
 464:.\Generated_Source\PSoC5/pwmAgitator_1.c **** 
 465:.\Generated_Source\PSoC5/pwmAgitator_1.c **** 
 466:.\Generated_Source\PSoC5/pwmAgitator_1.c **** /*******************************************************************************
 467:.\Generated_Source\PSoC5/pwmAgitator_1.c **** * Function Name: pwmAgitator_1_WritePeriod
 468:.\Generated_Source\PSoC5/pwmAgitator_1.c **** ********************************************************************************
 469:.\Generated_Source\PSoC5/pwmAgitator_1.c **** *
 470:.\Generated_Source\PSoC5/pwmAgitator_1.c **** * Summary:
 471:.\Generated_Source\PSoC5/pwmAgitator_1.c **** *  This function is used to change the period of the counter.  The new period
 472:.\Generated_Source\PSoC5/pwmAgitator_1.c **** *  will be loaded the next time terminal count is detected.
 473:.\Generated_Source\PSoC5/pwmAgitator_1.c **** *
 474:.\Generated_Source\PSoC5/pwmAgitator_1.c **** * Parameters:
 475:.\Generated_Source\PSoC5/pwmAgitator_1.c **** *  period:  Period value. May be between 1 and (2^Resolution)-1.  A value of 0
 476:.\Generated_Source\PSoC5/pwmAgitator_1.c **** *           will result in the counter remaining at zero.
 477:.\Generated_Source\PSoC5/pwmAgitator_1.c **** *
 478:.\Generated_Source\PSoC5/pwmAgitator_1.c **** * Return:
 479:.\Generated_Source\PSoC5/pwmAgitator_1.c **** *  None
 480:.\Generated_Source\PSoC5/pwmAgitator_1.c **** *
 481:.\Generated_Source\PSoC5/pwmAgitator_1.c **** *******************************************************************************/
 482:.\Generated_Source\PSoC5/pwmAgitator_1.c **** void pwmAgitator_1_WritePeriod(uint8 period) 
 483:.\Generated_Source\PSoC5/pwmAgitator_1.c **** {
 346              		.loc 1 483 0
 347              		.cfi_startproc
 348              		@ args = 0, pretend = 0, frame = 8
 349              		@ frame_needed = 1, uses_anonymous_args = 0
 350              		@ link register save eliminated.
 351 0000 80B4     		push	{r7}
 352              		.cfi_def_cfa_offset 4
 353              		.cfi_offset 7, -4
 354 0002 83B0     		sub	sp, sp, #12
 355              		.cfi_def_cfa_offset 16
 356 0004 00AF     		add	r7, sp, #0
 357              		.cfi_def_cfa_register 7
 358 0006 0346     		mov	r3, r0
 359 0008 FB71     		strb	r3, [r7, #7]
 484:.\Generated_Source\PSoC5/pwmAgitator_1.c ****     #if(pwmAgitator_1_UsingFixedFunction)
 485:.\Generated_Source\PSoC5/pwmAgitator_1.c ****         CY_SET_REG16(pwmAgitator_1_PERIOD_LSB_PTR, (uint16)period);
 486:.\Generated_Source\PSoC5/pwmAgitator_1.c ****     #else
 487:.\Generated_Source\PSoC5/pwmAgitator_1.c ****         CY_SET_REG8(pwmAgitator_1_PERIOD_LSB_PTR, period);
 360              		.loc 1 487 0
 361 000a 044B     		ldr	r3, .L25
 362 000c FA79     		ldrb	r2, [r7, #7]
 363 000e 1A70     		strb	r2, [r3]
 488:.\Generated_Source\PSoC5/pwmAgitator_1.c ****     #endif /* (pwmAgitator_1_UsingFixedFunction) */
 489:.\Generated_Source\PSoC5/pwmAgitator_1.c **** }
 364              		.loc 1 489 0
 365 0010 0C37     		adds	r7, r7, #12
ARM GAS  C:\Users\plod1602\AppData\Local\Temp\ccEpNM6u.s 			page 16


 366 0012 BD46     		mov	sp, r7
 367              		@ sp needed
 368 0014 5DF8047B 		ldr	r7, [sp], #4
 369 0018 7047     		bx	lr
 370              	.L26:
 371 001a 00BF     		.align	2
 372              	.L25:
 373 001c 44640040 		.word	1073767492
 374              		.cfi_endproc
 375              	.LFE7:
 376              		.size	pwmAgitator_1_WritePeriod, .-pwmAgitator_1_WritePeriod
 377              		.section	.text.pwmAgitator_1_WriteCompare,"ax",%progbits
 378              		.align	2
 379              		.global	pwmAgitator_1_WriteCompare
 380              		.thumb
 381              		.thumb_func
 382              		.type	pwmAgitator_1_WriteCompare, %function
 383              	pwmAgitator_1_WriteCompare:
 384              	.LFB8:
 490:.\Generated_Source\PSoC5/pwmAgitator_1.c **** 
 491:.\Generated_Source\PSoC5/pwmAgitator_1.c **** #if (pwmAgitator_1_UseOneCompareMode)
 492:.\Generated_Source\PSoC5/pwmAgitator_1.c **** 
 493:.\Generated_Source\PSoC5/pwmAgitator_1.c **** 
 494:.\Generated_Source\PSoC5/pwmAgitator_1.c ****     /*******************************************************************************
 495:.\Generated_Source\PSoC5/pwmAgitator_1.c ****     * Function Name: pwmAgitator_1_WriteCompare
 496:.\Generated_Source\PSoC5/pwmAgitator_1.c ****     ********************************************************************************
 497:.\Generated_Source\PSoC5/pwmAgitator_1.c ****     *
 498:.\Generated_Source\PSoC5/pwmAgitator_1.c ****     * Summary:
 499:.\Generated_Source\PSoC5/pwmAgitator_1.c ****     *  This funtion is used to change the compare1 value when the PWM is in Dither
 500:.\Generated_Source\PSoC5/pwmAgitator_1.c ****     *  mode. The compare output will reflect the new value on the next UDB clock.
 501:.\Generated_Source\PSoC5/pwmAgitator_1.c ****     *  The compare output will be driven high when the present counter value is
 502:.\Generated_Source\PSoC5/pwmAgitator_1.c ****     *  compared to the compare value based on the compare mode defined in
 503:.\Generated_Source\PSoC5/pwmAgitator_1.c ****     *  Dither Mode.
 504:.\Generated_Source\PSoC5/pwmAgitator_1.c ****     *
 505:.\Generated_Source\PSoC5/pwmAgitator_1.c ****     * Parameters:
 506:.\Generated_Source\PSoC5/pwmAgitator_1.c ****     *  compare:  New compare value.
 507:.\Generated_Source\PSoC5/pwmAgitator_1.c ****     *
 508:.\Generated_Source\PSoC5/pwmAgitator_1.c ****     * Return:
 509:.\Generated_Source\PSoC5/pwmAgitator_1.c ****     *  None
 510:.\Generated_Source\PSoC5/pwmAgitator_1.c ****     *
 511:.\Generated_Source\PSoC5/pwmAgitator_1.c ****     * Side Effects:
 512:.\Generated_Source\PSoC5/pwmAgitator_1.c ****     *  This function is only available if the PWM mode parameter is set to
 513:.\Generated_Source\PSoC5/pwmAgitator_1.c ****     *  Dither Mode, Center Aligned Mode or One Output Mode
 514:.\Generated_Source\PSoC5/pwmAgitator_1.c ****     *
 515:.\Generated_Source\PSoC5/pwmAgitator_1.c ****     *******************************************************************************/
 516:.\Generated_Source\PSoC5/pwmAgitator_1.c ****     void pwmAgitator_1_WriteCompare(uint8 compare) \
 517:.\Generated_Source\PSoC5/pwmAgitator_1.c ****                                        
 518:.\Generated_Source\PSoC5/pwmAgitator_1.c ****     {
 385              		.loc 1 518 0
 386              		.cfi_startproc
 387              		@ args = 0, pretend = 0, frame = 8
 388              		@ frame_needed = 1, uses_anonymous_args = 0
 389              		@ link register save eliminated.
 390 0000 80B4     		push	{r7}
 391              		.cfi_def_cfa_offset 4
 392              		.cfi_offset 7, -4
 393 0002 83B0     		sub	sp, sp, #12
ARM GAS  C:\Users\plod1602\AppData\Local\Temp\ccEpNM6u.s 			page 17


 394              		.cfi_def_cfa_offset 16
 395 0004 00AF     		add	r7, sp, #0
 396              		.cfi_def_cfa_register 7
 397 0006 0346     		mov	r3, r0
 398 0008 FB71     		strb	r3, [r7, #7]
 519:.\Generated_Source\PSoC5/pwmAgitator_1.c ****         #if(pwmAgitator_1_UsingFixedFunction)
 520:.\Generated_Source\PSoC5/pwmAgitator_1.c ****             CY_SET_REG16(pwmAgitator_1_COMPARE1_LSB_PTR, (uint16)compare);
 521:.\Generated_Source\PSoC5/pwmAgitator_1.c ****         #else
 522:.\Generated_Source\PSoC5/pwmAgitator_1.c ****             CY_SET_REG8(pwmAgitator_1_COMPARE1_LSB_PTR, compare);
 399              		.loc 1 522 0
 400 000a 044B     		ldr	r3, .L28
 401 000c FA79     		ldrb	r2, [r7, #7]
 402 000e 1A70     		strb	r2, [r3]
 523:.\Generated_Source\PSoC5/pwmAgitator_1.c ****         #endif /* (pwmAgitator_1_UsingFixedFunction) */
 524:.\Generated_Source\PSoC5/pwmAgitator_1.c **** 
 525:.\Generated_Source\PSoC5/pwmAgitator_1.c ****         #if (pwmAgitator_1_PWMMode == pwmAgitator_1__B_PWM__DITHER)
 526:.\Generated_Source\PSoC5/pwmAgitator_1.c ****             #if(pwmAgitator_1_UsingFixedFunction)
 527:.\Generated_Source\PSoC5/pwmAgitator_1.c ****                 CY_SET_REG16(pwmAgitator_1_COMPARE2_LSB_PTR, (uint16)(compare + 1u));
 528:.\Generated_Source\PSoC5/pwmAgitator_1.c ****             #else
 529:.\Generated_Source\PSoC5/pwmAgitator_1.c ****                 CY_SET_REG8(pwmAgitator_1_COMPARE2_LSB_PTR, (compare + 1u));
 530:.\Generated_Source\PSoC5/pwmAgitator_1.c ****             #endif /* (pwmAgitator_1_UsingFixedFunction) */
 531:.\Generated_Source\PSoC5/pwmAgitator_1.c ****         #endif /* (pwmAgitator_1_PWMMode == pwmAgitator_1__B_PWM__DITHER) */
 532:.\Generated_Source\PSoC5/pwmAgitator_1.c ****     }
 403              		.loc 1 532 0
 404 0010 0C37     		adds	r7, r7, #12
 405 0012 BD46     		mov	sp, r7
 406              		@ sp needed
 407 0014 5DF8047B 		ldr	r7, [sp], #4
 408 0018 7047     		bx	lr
 409              	.L29:
 410 001a 00BF     		.align	2
 411              	.L28:
 412 001c 24640040 		.word	1073767460
 413              		.cfi_endproc
 414              	.LFE8:
 415              		.size	pwmAgitator_1_WriteCompare, .-pwmAgitator_1_WriteCompare
 416              		.section	.text.pwmAgitator_1_SetInterruptMode,"ax",%progbits
 417              		.align	2
 418              		.global	pwmAgitator_1_SetInterruptMode
 419              		.thumb
 420              		.thumb_func
 421              		.type	pwmAgitator_1_SetInterruptMode, %function
 422              	pwmAgitator_1_SetInterruptMode:
 423              	.LFB9:
 533:.\Generated_Source\PSoC5/pwmAgitator_1.c **** 
 534:.\Generated_Source\PSoC5/pwmAgitator_1.c **** 
 535:.\Generated_Source\PSoC5/pwmAgitator_1.c **** #else
 536:.\Generated_Source\PSoC5/pwmAgitator_1.c **** 
 537:.\Generated_Source\PSoC5/pwmAgitator_1.c **** 
 538:.\Generated_Source\PSoC5/pwmAgitator_1.c ****     /*******************************************************************************
 539:.\Generated_Source\PSoC5/pwmAgitator_1.c ****     * Function Name: pwmAgitator_1_WriteCompare1
 540:.\Generated_Source\PSoC5/pwmAgitator_1.c ****     ********************************************************************************
 541:.\Generated_Source\PSoC5/pwmAgitator_1.c ****     *
 542:.\Generated_Source\PSoC5/pwmAgitator_1.c ****     * Summary:
 543:.\Generated_Source\PSoC5/pwmAgitator_1.c ****     *  This funtion is used to change the compare1 value.  The compare output will
 544:.\Generated_Source\PSoC5/pwmAgitator_1.c ****     *  reflect the new value on the next UDB clock.  The compare output will be
 545:.\Generated_Source\PSoC5/pwmAgitator_1.c ****     *  driven high when the present counter value is less than or less than or
ARM GAS  C:\Users\plod1602\AppData\Local\Temp\ccEpNM6u.s 			page 18


 546:.\Generated_Source\PSoC5/pwmAgitator_1.c ****     *  equal to the compare register, depending on the mode.
 547:.\Generated_Source\PSoC5/pwmAgitator_1.c ****     *
 548:.\Generated_Source\PSoC5/pwmAgitator_1.c ****     * Parameters:
 549:.\Generated_Source\PSoC5/pwmAgitator_1.c ****     *  compare:  New compare value.
 550:.\Generated_Source\PSoC5/pwmAgitator_1.c ****     *
 551:.\Generated_Source\PSoC5/pwmAgitator_1.c ****     * Return:
 552:.\Generated_Source\PSoC5/pwmAgitator_1.c ****     *  None
 553:.\Generated_Source\PSoC5/pwmAgitator_1.c ****     *
 554:.\Generated_Source\PSoC5/pwmAgitator_1.c ****     *******************************************************************************/
 555:.\Generated_Source\PSoC5/pwmAgitator_1.c ****     void pwmAgitator_1_WriteCompare1(uint8 compare) \
 556:.\Generated_Source\PSoC5/pwmAgitator_1.c ****                                         
 557:.\Generated_Source\PSoC5/pwmAgitator_1.c ****     {
 558:.\Generated_Source\PSoC5/pwmAgitator_1.c ****         #if(pwmAgitator_1_UsingFixedFunction)
 559:.\Generated_Source\PSoC5/pwmAgitator_1.c ****             CY_SET_REG16(pwmAgitator_1_COMPARE1_LSB_PTR, (uint16)compare);
 560:.\Generated_Source\PSoC5/pwmAgitator_1.c ****         #else
 561:.\Generated_Source\PSoC5/pwmAgitator_1.c ****             CY_SET_REG8(pwmAgitator_1_COMPARE1_LSB_PTR, compare);
 562:.\Generated_Source\PSoC5/pwmAgitator_1.c ****         #endif /* (pwmAgitator_1_UsingFixedFunction) */
 563:.\Generated_Source\PSoC5/pwmAgitator_1.c ****     }
 564:.\Generated_Source\PSoC5/pwmAgitator_1.c **** 
 565:.\Generated_Source\PSoC5/pwmAgitator_1.c **** 
 566:.\Generated_Source\PSoC5/pwmAgitator_1.c ****     /*******************************************************************************
 567:.\Generated_Source\PSoC5/pwmAgitator_1.c ****     * Function Name: pwmAgitator_1_WriteCompare2
 568:.\Generated_Source\PSoC5/pwmAgitator_1.c ****     ********************************************************************************
 569:.\Generated_Source\PSoC5/pwmAgitator_1.c ****     *
 570:.\Generated_Source\PSoC5/pwmAgitator_1.c ****     * Summary:
 571:.\Generated_Source\PSoC5/pwmAgitator_1.c ****     *  This funtion is used to change the compare value, for compare1 output.
 572:.\Generated_Source\PSoC5/pwmAgitator_1.c ****     *  The compare output will reflect the new value on the next UDB clock.
 573:.\Generated_Source\PSoC5/pwmAgitator_1.c ****     *  The compare output will be driven high when the present counter value is
 574:.\Generated_Source\PSoC5/pwmAgitator_1.c ****     *  less than or less than or equal to the compare register, depending on the
 575:.\Generated_Source\PSoC5/pwmAgitator_1.c ****     *  mode.
 576:.\Generated_Source\PSoC5/pwmAgitator_1.c ****     *
 577:.\Generated_Source\PSoC5/pwmAgitator_1.c ****     * Parameters:
 578:.\Generated_Source\PSoC5/pwmAgitator_1.c ****     *  compare:  New compare value.
 579:.\Generated_Source\PSoC5/pwmAgitator_1.c ****     *
 580:.\Generated_Source\PSoC5/pwmAgitator_1.c ****     * Return:
 581:.\Generated_Source\PSoC5/pwmAgitator_1.c ****     *  None
 582:.\Generated_Source\PSoC5/pwmAgitator_1.c ****     *
 583:.\Generated_Source\PSoC5/pwmAgitator_1.c ****     *******************************************************************************/
 584:.\Generated_Source\PSoC5/pwmAgitator_1.c ****     void pwmAgitator_1_WriteCompare2(uint8 compare) \
 585:.\Generated_Source\PSoC5/pwmAgitator_1.c ****                                         
 586:.\Generated_Source\PSoC5/pwmAgitator_1.c ****     {
 587:.\Generated_Source\PSoC5/pwmAgitator_1.c ****         #if(pwmAgitator_1_UsingFixedFunction)
 588:.\Generated_Source\PSoC5/pwmAgitator_1.c ****             CY_SET_REG16(pwmAgitator_1_COMPARE2_LSB_PTR, compare);
 589:.\Generated_Source\PSoC5/pwmAgitator_1.c ****         #else
 590:.\Generated_Source\PSoC5/pwmAgitator_1.c ****             CY_SET_REG8(pwmAgitator_1_COMPARE2_LSB_PTR, compare);
 591:.\Generated_Source\PSoC5/pwmAgitator_1.c ****         #endif /* (pwmAgitator_1_UsingFixedFunction) */
 592:.\Generated_Source\PSoC5/pwmAgitator_1.c ****     }
 593:.\Generated_Source\PSoC5/pwmAgitator_1.c **** #endif /* UseOneCompareMode */
 594:.\Generated_Source\PSoC5/pwmAgitator_1.c **** 
 595:.\Generated_Source\PSoC5/pwmAgitator_1.c **** #if (pwmAgitator_1_DeadBandUsed)
 596:.\Generated_Source\PSoC5/pwmAgitator_1.c **** 
 597:.\Generated_Source\PSoC5/pwmAgitator_1.c **** 
 598:.\Generated_Source\PSoC5/pwmAgitator_1.c ****     /*******************************************************************************
 599:.\Generated_Source\PSoC5/pwmAgitator_1.c ****     * Function Name: pwmAgitator_1_WriteDeadTime
 600:.\Generated_Source\PSoC5/pwmAgitator_1.c ****     ********************************************************************************
 601:.\Generated_Source\PSoC5/pwmAgitator_1.c ****     *
 602:.\Generated_Source\PSoC5/pwmAgitator_1.c ****     * Summary:
ARM GAS  C:\Users\plod1602\AppData\Local\Temp\ccEpNM6u.s 			page 19


 603:.\Generated_Source\PSoC5/pwmAgitator_1.c ****     *  This function writes the dead-band counts to the corresponding register
 604:.\Generated_Source\PSoC5/pwmAgitator_1.c ****     *
 605:.\Generated_Source\PSoC5/pwmAgitator_1.c ****     * Parameters:
 606:.\Generated_Source\PSoC5/pwmAgitator_1.c ****     *  deadtime:  Number of counts for dead time
 607:.\Generated_Source\PSoC5/pwmAgitator_1.c ****     *
 608:.\Generated_Source\PSoC5/pwmAgitator_1.c ****     * Return:
 609:.\Generated_Source\PSoC5/pwmAgitator_1.c ****     *  None
 610:.\Generated_Source\PSoC5/pwmAgitator_1.c ****     *
 611:.\Generated_Source\PSoC5/pwmAgitator_1.c ****     *******************************************************************************/
 612:.\Generated_Source\PSoC5/pwmAgitator_1.c ****     void pwmAgitator_1_WriteDeadTime(uint8 deadtime) 
 613:.\Generated_Source\PSoC5/pwmAgitator_1.c ****     {
 614:.\Generated_Source\PSoC5/pwmAgitator_1.c ****         /* If using the Dead Band 1-255 mode then just write the register */
 615:.\Generated_Source\PSoC5/pwmAgitator_1.c ****         #if(!pwmAgitator_1_DeadBand2_4)
 616:.\Generated_Source\PSoC5/pwmAgitator_1.c ****             CY_SET_REG8(pwmAgitator_1_DEADBAND_COUNT_PTR, deadtime);
 617:.\Generated_Source\PSoC5/pwmAgitator_1.c ****         #else
 618:.\Generated_Source\PSoC5/pwmAgitator_1.c ****             /* Otherwise the data has to be masked and offset */
 619:.\Generated_Source\PSoC5/pwmAgitator_1.c ****             /* Clear existing data */
 620:.\Generated_Source\PSoC5/pwmAgitator_1.c ****             pwmAgitator_1_DEADBAND_COUNT &= ((uint8)(~pwmAgitator_1_DEADBAND_COUNT_MASK));
 621:.\Generated_Source\PSoC5/pwmAgitator_1.c **** 
 622:.\Generated_Source\PSoC5/pwmAgitator_1.c ****             /* Set new dead time */
 623:.\Generated_Source\PSoC5/pwmAgitator_1.c ****             #if(pwmAgitator_1_DEADBAND_COUNT_SHIFT)
 624:.\Generated_Source\PSoC5/pwmAgitator_1.c ****                 pwmAgitator_1_DEADBAND_COUNT |= ((uint8)((uint8)deadtime << pwmAgitator_1_DEADBAND_
 625:.\Generated_Source\PSoC5/pwmAgitator_1.c ****                                                     pwmAgitator_1_DEADBAND_COUNT_MASK;
 626:.\Generated_Source\PSoC5/pwmAgitator_1.c ****             #else
 627:.\Generated_Source\PSoC5/pwmAgitator_1.c ****                 pwmAgitator_1_DEADBAND_COUNT |= deadtime & pwmAgitator_1_DEADBAND_COUNT_MASK;
 628:.\Generated_Source\PSoC5/pwmAgitator_1.c ****             #endif /* (pwmAgitator_1_DEADBAND_COUNT_SHIFT) */
 629:.\Generated_Source\PSoC5/pwmAgitator_1.c **** 
 630:.\Generated_Source\PSoC5/pwmAgitator_1.c ****         #endif /* (!pwmAgitator_1_DeadBand2_4) */
 631:.\Generated_Source\PSoC5/pwmAgitator_1.c ****     }
 632:.\Generated_Source\PSoC5/pwmAgitator_1.c **** 
 633:.\Generated_Source\PSoC5/pwmAgitator_1.c **** 
 634:.\Generated_Source\PSoC5/pwmAgitator_1.c ****     /*******************************************************************************
 635:.\Generated_Source\PSoC5/pwmAgitator_1.c ****     * Function Name: pwmAgitator_1_ReadDeadTime
 636:.\Generated_Source\PSoC5/pwmAgitator_1.c ****     ********************************************************************************
 637:.\Generated_Source\PSoC5/pwmAgitator_1.c ****     *
 638:.\Generated_Source\PSoC5/pwmAgitator_1.c ****     * Summary:
 639:.\Generated_Source\PSoC5/pwmAgitator_1.c ****     *  This function reads the dead-band counts from the corresponding register
 640:.\Generated_Source\PSoC5/pwmAgitator_1.c ****     *
 641:.\Generated_Source\PSoC5/pwmAgitator_1.c ****     * Parameters:
 642:.\Generated_Source\PSoC5/pwmAgitator_1.c ****     *  None
 643:.\Generated_Source\PSoC5/pwmAgitator_1.c ****     *
 644:.\Generated_Source\PSoC5/pwmAgitator_1.c ****     * Return:
 645:.\Generated_Source\PSoC5/pwmAgitator_1.c ****     *  Dead Band Counts
 646:.\Generated_Source\PSoC5/pwmAgitator_1.c ****     *
 647:.\Generated_Source\PSoC5/pwmAgitator_1.c ****     *******************************************************************************/
 648:.\Generated_Source\PSoC5/pwmAgitator_1.c ****     uint8 pwmAgitator_1_ReadDeadTime(void) 
 649:.\Generated_Source\PSoC5/pwmAgitator_1.c ****     {
 650:.\Generated_Source\PSoC5/pwmAgitator_1.c ****         /* If using the Dead Band 1-255 mode then just read the register */
 651:.\Generated_Source\PSoC5/pwmAgitator_1.c ****         #if(!pwmAgitator_1_DeadBand2_4)
 652:.\Generated_Source\PSoC5/pwmAgitator_1.c ****             return (CY_GET_REG8(pwmAgitator_1_DEADBAND_COUNT_PTR));
 653:.\Generated_Source\PSoC5/pwmAgitator_1.c ****         #else
 654:.\Generated_Source\PSoC5/pwmAgitator_1.c **** 
 655:.\Generated_Source\PSoC5/pwmAgitator_1.c ****             /* Otherwise the data has to be masked and offset */
 656:.\Generated_Source\PSoC5/pwmAgitator_1.c ****             #if(pwmAgitator_1_DEADBAND_COUNT_SHIFT)
 657:.\Generated_Source\PSoC5/pwmAgitator_1.c ****                 return ((uint8)(((uint8)(pwmAgitator_1_DEADBAND_COUNT & pwmAgitator_1_DEADBAND_COUN
 658:.\Generated_Source\PSoC5/pwmAgitator_1.c ****                                                                            pwmAgitator_1_DEADBAND_C
 659:.\Generated_Source\PSoC5/pwmAgitator_1.c ****             #else
ARM GAS  C:\Users\plod1602\AppData\Local\Temp\ccEpNM6u.s 			page 20


 660:.\Generated_Source\PSoC5/pwmAgitator_1.c ****                 return (pwmAgitator_1_DEADBAND_COUNT & pwmAgitator_1_DEADBAND_COUNT_MASK);
 661:.\Generated_Source\PSoC5/pwmAgitator_1.c ****             #endif /* (pwmAgitator_1_DEADBAND_COUNT_SHIFT) */
 662:.\Generated_Source\PSoC5/pwmAgitator_1.c ****         #endif /* (!pwmAgitator_1_DeadBand2_4) */
 663:.\Generated_Source\PSoC5/pwmAgitator_1.c ****     }
 664:.\Generated_Source\PSoC5/pwmAgitator_1.c **** #endif /* DeadBandUsed */
 665:.\Generated_Source\PSoC5/pwmAgitator_1.c **** 
 666:.\Generated_Source\PSoC5/pwmAgitator_1.c **** #if (pwmAgitator_1_UseStatus || pwmAgitator_1_UsingFixedFunction)
 667:.\Generated_Source\PSoC5/pwmAgitator_1.c **** 
 668:.\Generated_Source\PSoC5/pwmAgitator_1.c **** 
 669:.\Generated_Source\PSoC5/pwmAgitator_1.c ****     /*******************************************************************************
 670:.\Generated_Source\PSoC5/pwmAgitator_1.c ****     * Function Name: pwmAgitator_1_SetInterruptMode
 671:.\Generated_Source\PSoC5/pwmAgitator_1.c ****     ********************************************************************************
 672:.\Generated_Source\PSoC5/pwmAgitator_1.c ****     *
 673:.\Generated_Source\PSoC5/pwmAgitator_1.c ****     * Summary:
 674:.\Generated_Source\PSoC5/pwmAgitator_1.c ****     *  This function configures the interrupts mask control of theinterrupt
 675:.\Generated_Source\PSoC5/pwmAgitator_1.c ****     *  source status register.
 676:.\Generated_Source\PSoC5/pwmAgitator_1.c ****     *
 677:.\Generated_Source\PSoC5/pwmAgitator_1.c ****     * Parameters:
 678:.\Generated_Source\PSoC5/pwmAgitator_1.c ****     *  uint8 interruptMode: Bit field containing the interrupt sources enabled
 679:.\Generated_Source\PSoC5/pwmAgitator_1.c ****     *
 680:.\Generated_Source\PSoC5/pwmAgitator_1.c ****     * Return:
 681:.\Generated_Source\PSoC5/pwmAgitator_1.c ****     *  None
 682:.\Generated_Source\PSoC5/pwmAgitator_1.c ****     *
 683:.\Generated_Source\PSoC5/pwmAgitator_1.c ****     *******************************************************************************/
 684:.\Generated_Source\PSoC5/pwmAgitator_1.c ****     void pwmAgitator_1_SetInterruptMode(uint8 interruptMode) 
 685:.\Generated_Source\PSoC5/pwmAgitator_1.c ****     {
 424              		.loc 1 685 0
 425              		.cfi_startproc
 426              		@ args = 0, pretend = 0, frame = 8
 427              		@ frame_needed = 1, uses_anonymous_args = 0
 428              		@ link register save eliminated.
 429 0000 80B4     		push	{r7}
 430              		.cfi_def_cfa_offset 4
 431              		.cfi_offset 7, -4
 432 0002 83B0     		sub	sp, sp, #12
 433              		.cfi_def_cfa_offset 16
 434 0004 00AF     		add	r7, sp, #0
 435              		.cfi_def_cfa_register 7
 436 0006 0346     		mov	r3, r0
 437 0008 FB71     		strb	r3, [r7, #7]
 686:.\Generated_Source\PSoC5/pwmAgitator_1.c ****         CY_SET_REG8(pwmAgitator_1_STATUS_MASK_PTR, interruptMode);
 438              		.loc 1 686 0
 439 000a 044B     		ldr	r3, .L31
 440 000c FA79     		ldrb	r2, [r7, #7]
 441 000e 1A70     		strb	r2, [r3]
 687:.\Generated_Source\PSoC5/pwmAgitator_1.c ****     }
 442              		.loc 1 687 0
 443 0010 0C37     		adds	r7, r7, #12
 444 0012 BD46     		mov	sp, r7
 445              		@ sp needed
 446 0014 5DF8047B 		ldr	r7, [sp], #4
 447 0018 7047     		bx	lr
 448              	.L32:
 449 001a 00BF     		.align	2
 450              	.L31:
 451 001c 84640040 		.word	1073767556
 452              		.cfi_endproc
ARM GAS  C:\Users\plod1602\AppData\Local\Temp\ccEpNM6u.s 			page 21


 453              	.LFE9:
 454              		.size	pwmAgitator_1_SetInterruptMode, .-pwmAgitator_1_SetInterruptMode
 455              		.section	.text.pwmAgitator_1_ReadStatusRegister,"ax",%progbits
 456              		.align	2
 457              		.global	pwmAgitator_1_ReadStatusRegister
 458              		.thumb
 459              		.thumb_func
 460              		.type	pwmAgitator_1_ReadStatusRegister, %function
 461              	pwmAgitator_1_ReadStatusRegister:
 462              	.LFB10:
 688:.\Generated_Source\PSoC5/pwmAgitator_1.c **** 
 689:.\Generated_Source\PSoC5/pwmAgitator_1.c **** 
 690:.\Generated_Source\PSoC5/pwmAgitator_1.c ****     /*******************************************************************************
 691:.\Generated_Source\PSoC5/pwmAgitator_1.c ****     * Function Name: pwmAgitator_1_ReadStatusRegister
 692:.\Generated_Source\PSoC5/pwmAgitator_1.c ****     ********************************************************************************
 693:.\Generated_Source\PSoC5/pwmAgitator_1.c ****     *
 694:.\Generated_Source\PSoC5/pwmAgitator_1.c ****     * Summary:
 695:.\Generated_Source\PSoC5/pwmAgitator_1.c ****     *  This function returns the current state of the status register.
 696:.\Generated_Source\PSoC5/pwmAgitator_1.c ****     *
 697:.\Generated_Source\PSoC5/pwmAgitator_1.c ****     * Parameters:
 698:.\Generated_Source\PSoC5/pwmAgitator_1.c ****     *  None
 699:.\Generated_Source\PSoC5/pwmAgitator_1.c ****     *
 700:.\Generated_Source\PSoC5/pwmAgitator_1.c ****     * Return:
 701:.\Generated_Source\PSoC5/pwmAgitator_1.c ****     *  uint8 : Current status register value. The status register bits are:
 702:.\Generated_Source\PSoC5/pwmAgitator_1.c ****     *  [7:6] : Unused(0)
 703:.\Generated_Source\PSoC5/pwmAgitator_1.c ****     *  [5]   : Kill event output
 704:.\Generated_Source\PSoC5/pwmAgitator_1.c ****     *  [4]   : FIFO not empty
 705:.\Generated_Source\PSoC5/pwmAgitator_1.c ****     *  [3]   : FIFO full
 706:.\Generated_Source\PSoC5/pwmAgitator_1.c ****     *  [2]   : Terminal count
 707:.\Generated_Source\PSoC5/pwmAgitator_1.c ****     *  [1]   : Compare output 2
 708:.\Generated_Source\PSoC5/pwmAgitator_1.c ****     *  [0]   : Compare output 1
 709:.\Generated_Source\PSoC5/pwmAgitator_1.c ****     *
 710:.\Generated_Source\PSoC5/pwmAgitator_1.c ****     *******************************************************************************/
 711:.\Generated_Source\PSoC5/pwmAgitator_1.c ****     uint8 pwmAgitator_1_ReadStatusRegister(void) 
 712:.\Generated_Source\PSoC5/pwmAgitator_1.c ****     {
 463              		.loc 1 712 0
 464              		.cfi_startproc
 465              		@ args = 0, pretend = 0, frame = 0
 466              		@ frame_needed = 1, uses_anonymous_args = 0
 467              		@ link register save eliminated.
 468 0000 80B4     		push	{r7}
 469              		.cfi_def_cfa_offset 4
 470              		.cfi_offset 7, -4
 471 0002 00AF     		add	r7, sp, #0
 472              		.cfi_def_cfa_register 7
 713:.\Generated_Source\PSoC5/pwmAgitator_1.c ****         return (CY_GET_REG8(pwmAgitator_1_STATUS_PTR));
 473              		.loc 1 713 0
 474 0004 034B     		ldr	r3, .L35
 475 0006 1B78     		ldrb	r3, [r3]
 476 0008 DBB2     		uxtb	r3, r3
 714:.\Generated_Source\PSoC5/pwmAgitator_1.c ****     }
 477              		.loc 1 714 0
 478 000a 1846     		mov	r0, r3
 479 000c BD46     		mov	sp, r7
 480              		@ sp needed
 481 000e 5DF8047B 		ldr	r7, [sp], #4
 482 0012 7047     		bx	lr
ARM GAS  C:\Users\plod1602\AppData\Local\Temp\ccEpNM6u.s 			page 22


 483              	.L36:
 484              		.align	2
 485              	.L35:
 486 0014 64640040 		.word	1073767524
 487              		.cfi_endproc
 488              	.LFE10:
 489              		.size	pwmAgitator_1_ReadStatusRegister, .-pwmAgitator_1_ReadStatusRegister
 490              		.section	.text.pwmAgitator_1_ReadControlRegister,"ax",%progbits
 491              		.align	2
 492              		.global	pwmAgitator_1_ReadControlRegister
 493              		.thumb
 494              		.thumb_func
 495              		.type	pwmAgitator_1_ReadControlRegister, %function
 496              	pwmAgitator_1_ReadControlRegister:
 497              	.LFB11:
 715:.\Generated_Source\PSoC5/pwmAgitator_1.c **** 
 716:.\Generated_Source\PSoC5/pwmAgitator_1.c **** #endif /* (pwmAgitator_1_UseStatus || pwmAgitator_1_UsingFixedFunction) */
 717:.\Generated_Source\PSoC5/pwmAgitator_1.c **** 
 718:.\Generated_Source\PSoC5/pwmAgitator_1.c **** 
 719:.\Generated_Source\PSoC5/pwmAgitator_1.c **** #if (pwmAgitator_1_UseControl)
 720:.\Generated_Source\PSoC5/pwmAgitator_1.c **** 
 721:.\Generated_Source\PSoC5/pwmAgitator_1.c **** 
 722:.\Generated_Source\PSoC5/pwmAgitator_1.c ****     /*******************************************************************************
 723:.\Generated_Source\PSoC5/pwmAgitator_1.c ****     * Function Name: pwmAgitator_1_ReadControlRegister
 724:.\Generated_Source\PSoC5/pwmAgitator_1.c ****     ********************************************************************************
 725:.\Generated_Source\PSoC5/pwmAgitator_1.c ****     *
 726:.\Generated_Source\PSoC5/pwmAgitator_1.c ****     * Summary:
 727:.\Generated_Source\PSoC5/pwmAgitator_1.c ****     *  Returns the current state of the control register. This API is available
 728:.\Generated_Source\PSoC5/pwmAgitator_1.c ****     *  only if the control register is not removed.
 729:.\Generated_Source\PSoC5/pwmAgitator_1.c ****     *
 730:.\Generated_Source\PSoC5/pwmAgitator_1.c ****     * Parameters:
 731:.\Generated_Source\PSoC5/pwmAgitator_1.c ****     *  None
 732:.\Generated_Source\PSoC5/pwmAgitator_1.c ****     *
 733:.\Generated_Source\PSoC5/pwmAgitator_1.c ****     * Return:
 734:.\Generated_Source\PSoC5/pwmAgitator_1.c ****     *  uint8 : Current control register value
 735:.\Generated_Source\PSoC5/pwmAgitator_1.c ****     *
 736:.\Generated_Source\PSoC5/pwmAgitator_1.c ****     *******************************************************************************/
 737:.\Generated_Source\PSoC5/pwmAgitator_1.c ****     uint8 pwmAgitator_1_ReadControlRegister(void) 
 738:.\Generated_Source\PSoC5/pwmAgitator_1.c ****     {
 498              		.loc 1 738 0
 499              		.cfi_startproc
 500              		@ args = 0, pretend = 0, frame = 8
 501              		@ frame_needed = 1, uses_anonymous_args = 0
 502              		@ link register save eliminated.
 503 0000 80B4     		push	{r7}
 504              		.cfi_def_cfa_offset 4
 505              		.cfi_offset 7, -4
 506 0002 83B0     		sub	sp, sp, #12
 507              		.cfi_def_cfa_offset 16
 508 0004 00AF     		add	r7, sp, #0
 509              		.cfi_def_cfa_register 7
 739:.\Generated_Source\PSoC5/pwmAgitator_1.c ****         uint8 result;
 740:.\Generated_Source\PSoC5/pwmAgitator_1.c **** 
 741:.\Generated_Source\PSoC5/pwmAgitator_1.c ****         result = CY_GET_REG8(pwmAgitator_1_CONTROL_PTR);
 510              		.loc 1 741 0
 511 0006 054B     		ldr	r3, .L39
 512 0008 1B78     		ldrb	r3, [r3]
ARM GAS  C:\Users\plod1602\AppData\Local\Temp\ccEpNM6u.s 			page 23


 513 000a FB71     		strb	r3, [r7, #7]
 742:.\Generated_Source\PSoC5/pwmAgitator_1.c ****         return (result);
 514              		.loc 1 742 0
 515 000c FB79     		ldrb	r3, [r7, #7]	@ zero_extendqisi2
 743:.\Generated_Source\PSoC5/pwmAgitator_1.c ****     }
 516              		.loc 1 743 0
 517 000e 1846     		mov	r0, r3
 518 0010 0C37     		adds	r7, r7, #12
 519 0012 BD46     		mov	sp, r7
 520              		@ sp needed
 521 0014 5DF8047B 		ldr	r7, [sp], #4
 522 0018 7047     		bx	lr
 523              	.L40:
 524 001a 00BF     		.align	2
 525              	.L39:
 526 001c 74640040 		.word	1073767540
 527              		.cfi_endproc
 528              	.LFE11:
 529              		.size	pwmAgitator_1_ReadControlRegister, .-pwmAgitator_1_ReadControlRegister
 530              		.section	.text.pwmAgitator_1_WriteControlRegister,"ax",%progbits
 531              		.align	2
 532              		.global	pwmAgitator_1_WriteControlRegister
 533              		.thumb
 534              		.thumb_func
 535              		.type	pwmAgitator_1_WriteControlRegister, %function
 536              	pwmAgitator_1_WriteControlRegister:
 537              	.LFB12:
 744:.\Generated_Source\PSoC5/pwmAgitator_1.c **** 
 745:.\Generated_Source\PSoC5/pwmAgitator_1.c **** 
 746:.\Generated_Source\PSoC5/pwmAgitator_1.c ****     /*******************************************************************************
 747:.\Generated_Source\PSoC5/pwmAgitator_1.c ****     * Function Name: pwmAgitator_1_WriteControlRegister
 748:.\Generated_Source\PSoC5/pwmAgitator_1.c ****     ********************************************************************************
 749:.\Generated_Source\PSoC5/pwmAgitator_1.c ****     *
 750:.\Generated_Source\PSoC5/pwmAgitator_1.c ****     * Summary:
 751:.\Generated_Source\PSoC5/pwmAgitator_1.c ****     *  Sets the bit field of the control register. This API is available only if
 752:.\Generated_Source\PSoC5/pwmAgitator_1.c ****     *  the control register is not removed.
 753:.\Generated_Source\PSoC5/pwmAgitator_1.c ****     *
 754:.\Generated_Source\PSoC5/pwmAgitator_1.c ****     * Parameters:
 755:.\Generated_Source\PSoC5/pwmAgitator_1.c ****     *  uint8 control: Control register bit field, The status register bits are:
 756:.\Generated_Source\PSoC5/pwmAgitator_1.c ****     *  [7]   : PWM Enable
 757:.\Generated_Source\PSoC5/pwmAgitator_1.c ****     *  [6]   : Reset
 758:.\Generated_Source\PSoC5/pwmAgitator_1.c ****     *  [5:3] : Compare Mode2
 759:.\Generated_Source\PSoC5/pwmAgitator_1.c ****     *  [2:0] : Compare Mode2
 760:.\Generated_Source\PSoC5/pwmAgitator_1.c ****     *
 761:.\Generated_Source\PSoC5/pwmAgitator_1.c ****     * Return:
 762:.\Generated_Source\PSoC5/pwmAgitator_1.c ****     *  None
 763:.\Generated_Source\PSoC5/pwmAgitator_1.c ****     *
 764:.\Generated_Source\PSoC5/pwmAgitator_1.c ****     *******************************************************************************/
 765:.\Generated_Source\PSoC5/pwmAgitator_1.c ****     void pwmAgitator_1_WriteControlRegister(uint8 control) 
 766:.\Generated_Source\PSoC5/pwmAgitator_1.c ****     {
 538              		.loc 1 766 0
 539              		.cfi_startproc
 540              		@ args = 0, pretend = 0, frame = 8
 541              		@ frame_needed = 1, uses_anonymous_args = 0
 542              		@ link register save eliminated.
 543 0000 80B4     		push	{r7}
 544              		.cfi_def_cfa_offset 4
ARM GAS  C:\Users\plod1602\AppData\Local\Temp\ccEpNM6u.s 			page 24


 545              		.cfi_offset 7, -4
 546 0002 83B0     		sub	sp, sp, #12
 547              		.cfi_def_cfa_offset 16
 548 0004 00AF     		add	r7, sp, #0
 549              		.cfi_def_cfa_register 7
 550 0006 0346     		mov	r3, r0
 551 0008 FB71     		strb	r3, [r7, #7]
 767:.\Generated_Source\PSoC5/pwmAgitator_1.c ****         CY_SET_REG8(pwmAgitator_1_CONTROL_PTR, control);
 552              		.loc 1 767 0
 553 000a 044B     		ldr	r3, .L42
 554 000c FA79     		ldrb	r2, [r7, #7]
 555 000e 1A70     		strb	r2, [r3]
 768:.\Generated_Source\PSoC5/pwmAgitator_1.c ****     }
 556              		.loc 1 768 0
 557 0010 0C37     		adds	r7, r7, #12
 558 0012 BD46     		mov	sp, r7
 559              		@ sp needed
 560 0014 5DF8047B 		ldr	r7, [sp], #4
 561 0018 7047     		bx	lr
 562              	.L43:
 563 001a 00BF     		.align	2
 564              	.L42:
 565 001c 74640040 		.word	1073767540
 566              		.cfi_endproc
 567              	.LFE12:
 568              		.size	pwmAgitator_1_WriteControlRegister, .-pwmAgitator_1_WriteControlRegister
 569              		.section	.text.pwmAgitator_1_ReadCapture,"ax",%progbits
 570              		.align	2
 571              		.global	pwmAgitator_1_ReadCapture
 572              		.thumb
 573              		.thumb_func
 574              		.type	pwmAgitator_1_ReadCapture, %function
 575              	pwmAgitator_1_ReadCapture:
 576              	.LFB13:
 769:.\Generated_Source\PSoC5/pwmAgitator_1.c **** 
 770:.\Generated_Source\PSoC5/pwmAgitator_1.c **** #endif /* (pwmAgitator_1_UseControl) */
 771:.\Generated_Source\PSoC5/pwmAgitator_1.c **** 
 772:.\Generated_Source\PSoC5/pwmAgitator_1.c **** 
 773:.\Generated_Source\PSoC5/pwmAgitator_1.c **** #if (!pwmAgitator_1_UsingFixedFunction)
 774:.\Generated_Source\PSoC5/pwmAgitator_1.c **** 
 775:.\Generated_Source\PSoC5/pwmAgitator_1.c **** 
 776:.\Generated_Source\PSoC5/pwmAgitator_1.c ****     /*******************************************************************************
 777:.\Generated_Source\PSoC5/pwmAgitator_1.c ****     * Function Name: pwmAgitator_1_ReadCapture
 778:.\Generated_Source\PSoC5/pwmAgitator_1.c ****     ********************************************************************************
 779:.\Generated_Source\PSoC5/pwmAgitator_1.c ****     *
 780:.\Generated_Source\PSoC5/pwmAgitator_1.c ****     * Summary:
 781:.\Generated_Source\PSoC5/pwmAgitator_1.c ****     *  Reads the capture value from the capture FIFO.
 782:.\Generated_Source\PSoC5/pwmAgitator_1.c ****     *
 783:.\Generated_Source\PSoC5/pwmAgitator_1.c ****     * Parameters:
 784:.\Generated_Source\PSoC5/pwmAgitator_1.c ****     *  None
 785:.\Generated_Source\PSoC5/pwmAgitator_1.c ****     *
 786:.\Generated_Source\PSoC5/pwmAgitator_1.c ****     * Return:
 787:.\Generated_Source\PSoC5/pwmAgitator_1.c ****     *  uint8/uint16: The current capture value
 788:.\Generated_Source\PSoC5/pwmAgitator_1.c ****     *
 789:.\Generated_Source\PSoC5/pwmAgitator_1.c ****     *******************************************************************************/
 790:.\Generated_Source\PSoC5/pwmAgitator_1.c ****     uint8 pwmAgitator_1_ReadCapture(void) 
 791:.\Generated_Source\PSoC5/pwmAgitator_1.c ****     {
ARM GAS  C:\Users\plod1602\AppData\Local\Temp\ccEpNM6u.s 			page 25


 577              		.loc 1 791 0
 578              		.cfi_startproc
 579              		@ args = 0, pretend = 0, frame = 0
 580              		@ frame_needed = 1, uses_anonymous_args = 0
 581              		@ link register save eliminated.
 582 0000 80B4     		push	{r7}
 583              		.cfi_def_cfa_offset 4
 584              		.cfi_offset 7, -4
 585 0002 00AF     		add	r7, sp, #0
 586              		.cfi_def_cfa_register 7
 792:.\Generated_Source\PSoC5/pwmAgitator_1.c ****         return (CY_GET_REG8(pwmAgitator_1_CAPTURE_LSB_PTR));
 587              		.loc 1 792 0
 588 0004 034B     		ldr	r3, .L46
 589 0006 1B78     		ldrb	r3, [r3]
 590 0008 DBB2     		uxtb	r3, r3
 793:.\Generated_Source\PSoC5/pwmAgitator_1.c ****     }
 591              		.loc 1 793 0
 592 000a 1846     		mov	r0, r3
 593 000c BD46     		mov	sp, r7
 594              		@ sp needed
 595 000e 5DF8047B 		ldr	r7, [sp], #4
 596 0012 7047     		bx	lr
 597              	.L47:
 598              		.align	2
 599              	.L46:
 600 0014 54640040 		.word	1073767508
 601              		.cfi_endproc
 602              	.LFE13:
 603              		.size	pwmAgitator_1_ReadCapture, .-pwmAgitator_1_ReadCapture
 604              		.section	.text.pwmAgitator_1_ReadCompare,"ax",%progbits
 605              		.align	2
 606              		.global	pwmAgitator_1_ReadCompare
 607              		.thumb
 608              		.thumb_func
 609              		.type	pwmAgitator_1_ReadCompare, %function
 610              	pwmAgitator_1_ReadCompare:
 611              	.LFB14:
 794:.\Generated_Source\PSoC5/pwmAgitator_1.c **** 
 795:.\Generated_Source\PSoC5/pwmAgitator_1.c **** #endif /* (!pwmAgitator_1_UsingFixedFunction) */
 796:.\Generated_Source\PSoC5/pwmAgitator_1.c **** 
 797:.\Generated_Source\PSoC5/pwmAgitator_1.c **** 
 798:.\Generated_Source\PSoC5/pwmAgitator_1.c **** #if (pwmAgitator_1_UseOneCompareMode)
 799:.\Generated_Source\PSoC5/pwmAgitator_1.c **** 
 800:.\Generated_Source\PSoC5/pwmAgitator_1.c **** 
 801:.\Generated_Source\PSoC5/pwmAgitator_1.c ****     /*******************************************************************************
 802:.\Generated_Source\PSoC5/pwmAgitator_1.c ****     * Function Name: pwmAgitator_1_ReadCompare
 803:.\Generated_Source\PSoC5/pwmAgitator_1.c ****     ********************************************************************************
 804:.\Generated_Source\PSoC5/pwmAgitator_1.c ****     *
 805:.\Generated_Source\PSoC5/pwmAgitator_1.c ****     * Summary:
 806:.\Generated_Source\PSoC5/pwmAgitator_1.c ****     *  Reads the compare value for the compare output when the PWM Mode parameter is
 807:.\Generated_Source\PSoC5/pwmAgitator_1.c ****     *  set to Dither mode, Center Aligned mode, or One Output mode.
 808:.\Generated_Source\PSoC5/pwmAgitator_1.c ****     *
 809:.\Generated_Source\PSoC5/pwmAgitator_1.c ****     * Parameters:
 810:.\Generated_Source\PSoC5/pwmAgitator_1.c ****     *  None
 811:.\Generated_Source\PSoC5/pwmAgitator_1.c ****     *
 812:.\Generated_Source\PSoC5/pwmAgitator_1.c ****     * Return:
 813:.\Generated_Source\PSoC5/pwmAgitator_1.c ****     *  uint8/uint16: Current compare value
ARM GAS  C:\Users\plod1602\AppData\Local\Temp\ccEpNM6u.s 			page 26


 814:.\Generated_Source\PSoC5/pwmAgitator_1.c ****     *
 815:.\Generated_Source\PSoC5/pwmAgitator_1.c ****     *******************************************************************************/
 816:.\Generated_Source\PSoC5/pwmAgitator_1.c ****     uint8 pwmAgitator_1_ReadCompare(void) 
 817:.\Generated_Source\PSoC5/pwmAgitator_1.c ****     {
 612              		.loc 1 817 0
 613              		.cfi_startproc
 614              		@ args = 0, pretend = 0, frame = 0
 615              		@ frame_needed = 1, uses_anonymous_args = 0
 616              		@ link register save eliminated.
 617 0000 80B4     		push	{r7}
 618              		.cfi_def_cfa_offset 4
 619              		.cfi_offset 7, -4
 620 0002 00AF     		add	r7, sp, #0
 621              		.cfi_def_cfa_register 7
 818:.\Generated_Source\PSoC5/pwmAgitator_1.c ****         #if(pwmAgitator_1_UsingFixedFunction)
 819:.\Generated_Source\PSoC5/pwmAgitator_1.c ****             return ((uint8)CY_GET_REG16(pwmAgitator_1_COMPARE1_LSB_PTR));
 820:.\Generated_Source\PSoC5/pwmAgitator_1.c ****         #else
 821:.\Generated_Source\PSoC5/pwmAgitator_1.c ****             return (CY_GET_REG8(pwmAgitator_1_COMPARE1_LSB_PTR));
 622              		.loc 1 821 0
 623 0004 034B     		ldr	r3, .L50
 624 0006 1B78     		ldrb	r3, [r3]
 625 0008 DBB2     		uxtb	r3, r3
 822:.\Generated_Source\PSoC5/pwmAgitator_1.c ****         #endif /* (pwmAgitator_1_UsingFixedFunction) */
 823:.\Generated_Source\PSoC5/pwmAgitator_1.c ****     }
 626              		.loc 1 823 0
 627 000a 1846     		mov	r0, r3
 628 000c BD46     		mov	sp, r7
 629              		@ sp needed
 630 000e 5DF8047B 		ldr	r7, [sp], #4
 631 0012 7047     		bx	lr
 632              	.L51:
 633              		.align	2
 634              	.L50:
 635 0014 24640040 		.word	1073767460
 636              		.cfi_endproc
 637              	.LFE14:
 638              		.size	pwmAgitator_1_ReadCompare, .-pwmAgitator_1_ReadCompare
 639              		.section	.text.pwmAgitator_1_ReadPeriod,"ax",%progbits
 640              		.align	2
 641              		.global	pwmAgitator_1_ReadPeriod
 642              		.thumb
 643              		.thumb_func
 644              		.type	pwmAgitator_1_ReadPeriod, %function
 645              	pwmAgitator_1_ReadPeriod:
 646              	.LFB15:
 824:.\Generated_Source\PSoC5/pwmAgitator_1.c **** 
 825:.\Generated_Source\PSoC5/pwmAgitator_1.c **** #else
 826:.\Generated_Source\PSoC5/pwmAgitator_1.c **** 
 827:.\Generated_Source\PSoC5/pwmAgitator_1.c **** 
 828:.\Generated_Source\PSoC5/pwmAgitator_1.c ****     /*******************************************************************************
 829:.\Generated_Source\PSoC5/pwmAgitator_1.c ****     * Function Name: pwmAgitator_1_ReadCompare1
 830:.\Generated_Source\PSoC5/pwmAgitator_1.c ****     ********************************************************************************
 831:.\Generated_Source\PSoC5/pwmAgitator_1.c ****     *
 832:.\Generated_Source\PSoC5/pwmAgitator_1.c ****     * Summary:
 833:.\Generated_Source\PSoC5/pwmAgitator_1.c ****     *  Reads the compare value for the compare1 output.
 834:.\Generated_Source\PSoC5/pwmAgitator_1.c ****     *
 835:.\Generated_Source\PSoC5/pwmAgitator_1.c ****     * Parameters:
ARM GAS  C:\Users\plod1602\AppData\Local\Temp\ccEpNM6u.s 			page 27


 836:.\Generated_Source\PSoC5/pwmAgitator_1.c ****     *  None
 837:.\Generated_Source\PSoC5/pwmAgitator_1.c ****     *
 838:.\Generated_Source\PSoC5/pwmAgitator_1.c ****     * Return:
 839:.\Generated_Source\PSoC5/pwmAgitator_1.c ****     *  uint8/uint16: Current compare value.
 840:.\Generated_Source\PSoC5/pwmAgitator_1.c ****     *
 841:.\Generated_Source\PSoC5/pwmAgitator_1.c ****     *******************************************************************************/
 842:.\Generated_Source\PSoC5/pwmAgitator_1.c ****     uint8 pwmAgitator_1_ReadCompare1(void) 
 843:.\Generated_Source\PSoC5/pwmAgitator_1.c ****     {
 844:.\Generated_Source\PSoC5/pwmAgitator_1.c ****         return (CY_GET_REG8(pwmAgitator_1_COMPARE1_LSB_PTR));
 845:.\Generated_Source\PSoC5/pwmAgitator_1.c ****     }
 846:.\Generated_Source\PSoC5/pwmAgitator_1.c **** 
 847:.\Generated_Source\PSoC5/pwmAgitator_1.c **** 
 848:.\Generated_Source\PSoC5/pwmAgitator_1.c ****     /*******************************************************************************
 849:.\Generated_Source\PSoC5/pwmAgitator_1.c ****     * Function Name: pwmAgitator_1_ReadCompare2
 850:.\Generated_Source\PSoC5/pwmAgitator_1.c ****     ********************************************************************************
 851:.\Generated_Source\PSoC5/pwmAgitator_1.c ****     *
 852:.\Generated_Source\PSoC5/pwmAgitator_1.c ****     * Summary:
 853:.\Generated_Source\PSoC5/pwmAgitator_1.c ****     *  Reads the compare value for the compare2 output.
 854:.\Generated_Source\PSoC5/pwmAgitator_1.c ****     *
 855:.\Generated_Source\PSoC5/pwmAgitator_1.c ****     * Parameters:
 856:.\Generated_Source\PSoC5/pwmAgitator_1.c ****     *  None
 857:.\Generated_Source\PSoC5/pwmAgitator_1.c ****     *
 858:.\Generated_Source\PSoC5/pwmAgitator_1.c ****     * Return:
 859:.\Generated_Source\PSoC5/pwmAgitator_1.c ****     *  uint8/uint16: Current compare value.
 860:.\Generated_Source\PSoC5/pwmAgitator_1.c ****     *
 861:.\Generated_Source\PSoC5/pwmAgitator_1.c ****     *******************************************************************************/
 862:.\Generated_Source\PSoC5/pwmAgitator_1.c ****     uint8 pwmAgitator_1_ReadCompare2(void) 
 863:.\Generated_Source\PSoC5/pwmAgitator_1.c ****     {
 864:.\Generated_Source\PSoC5/pwmAgitator_1.c ****         return (CY_GET_REG8(pwmAgitator_1_COMPARE2_LSB_PTR));
 865:.\Generated_Source\PSoC5/pwmAgitator_1.c ****     }
 866:.\Generated_Source\PSoC5/pwmAgitator_1.c **** 
 867:.\Generated_Source\PSoC5/pwmAgitator_1.c **** #endif /* (pwmAgitator_1_UseOneCompareMode) */
 868:.\Generated_Source\PSoC5/pwmAgitator_1.c **** 
 869:.\Generated_Source\PSoC5/pwmAgitator_1.c **** 
 870:.\Generated_Source\PSoC5/pwmAgitator_1.c **** /*******************************************************************************
 871:.\Generated_Source\PSoC5/pwmAgitator_1.c **** * Function Name: pwmAgitator_1_ReadPeriod
 872:.\Generated_Source\PSoC5/pwmAgitator_1.c **** ********************************************************************************
 873:.\Generated_Source\PSoC5/pwmAgitator_1.c **** *
 874:.\Generated_Source\PSoC5/pwmAgitator_1.c **** * Summary:
 875:.\Generated_Source\PSoC5/pwmAgitator_1.c **** *  Reads the period value used by the PWM hardware.
 876:.\Generated_Source\PSoC5/pwmAgitator_1.c **** *
 877:.\Generated_Source\PSoC5/pwmAgitator_1.c **** * Parameters:
 878:.\Generated_Source\PSoC5/pwmAgitator_1.c **** *  None
 879:.\Generated_Source\PSoC5/pwmAgitator_1.c **** *
 880:.\Generated_Source\PSoC5/pwmAgitator_1.c **** * Return:
 881:.\Generated_Source\PSoC5/pwmAgitator_1.c **** *  uint8/16: Period value
 882:.\Generated_Source\PSoC5/pwmAgitator_1.c **** *
 883:.\Generated_Source\PSoC5/pwmAgitator_1.c **** *******************************************************************************/
 884:.\Generated_Source\PSoC5/pwmAgitator_1.c **** uint8 pwmAgitator_1_ReadPeriod(void) 
 885:.\Generated_Source\PSoC5/pwmAgitator_1.c **** {
 647              		.loc 1 885 0
 648              		.cfi_startproc
 649              		@ args = 0, pretend = 0, frame = 0
 650              		@ frame_needed = 1, uses_anonymous_args = 0
 651              		@ link register save eliminated.
 652 0000 80B4     		push	{r7}
 653              		.cfi_def_cfa_offset 4
ARM GAS  C:\Users\plod1602\AppData\Local\Temp\ccEpNM6u.s 			page 28


 654              		.cfi_offset 7, -4
 655 0002 00AF     		add	r7, sp, #0
 656              		.cfi_def_cfa_register 7
 886:.\Generated_Source\PSoC5/pwmAgitator_1.c ****     #if(pwmAgitator_1_UsingFixedFunction)
 887:.\Generated_Source\PSoC5/pwmAgitator_1.c ****         return ((uint8)CY_GET_REG16(pwmAgitator_1_PERIOD_LSB_PTR));
 888:.\Generated_Source\PSoC5/pwmAgitator_1.c ****     #else
 889:.\Generated_Source\PSoC5/pwmAgitator_1.c ****         return (CY_GET_REG8(pwmAgitator_1_PERIOD_LSB_PTR));
 657              		.loc 1 889 0
 658 0004 034B     		ldr	r3, .L54
 659 0006 1B78     		ldrb	r3, [r3]
 660 0008 DBB2     		uxtb	r3, r3
 890:.\Generated_Source\PSoC5/pwmAgitator_1.c ****     #endif /* (pwmAgitator_1_UsingFixedFunction) */
 891:.\Generated_Source\PSoC5/pwmAgitator_1.c **** }
 661              		.loc 1 891 0
 662 000a 1846     		mov	r0, r3
 663 000c BD46     		mov	sp, r7
 664              		@ sp needed
 665 000e 5DF8047B 		ldr	r7, [sp], #4
 666 0012 7047     		bx	lr
 667              	.L55:
 668              		.align	2
 669              	.L54:
 670 0014 44640040 		.word	1073767492
 671              		.cfi_endproc
 672              	.LFE15:
 673              		.size	pwmAgitator_1_ReadPeriod, .-pwmAgitator_1_ReadPeriod
 674              		.text
 675              	.Letext0:
 676              		.file 2 ".\\Generated_Source\\PSoC5\\cytypes.h"