ARM GAS  C:\Users\plod1602\AppData\Local\Temp\ccrlyQPK.s 			page 1


   1              		.syntax unified
   2              		.cpu cortex-m3
   3              		.fpu softvfp
   4              		.eabi_attribute 20, 1
   5              		.eabi_attribute 21, 1
   6              		.eabi_attribute 23, 3
   7              		.eabi_attribute 24, 1
   8              		.eabi_attribute 25, 1
   9              		.eabi_attribute 26, 1
  10              		.eabi_attribute 30, 6
  11              		.eabi_attribute 34, 1
  12              		.eabi_attribute 18, 4
  13              		.thumb
  14              		.file	"Thermistor_1.c"
  15              		.text
  16              	.Ltext0:
  17              		.cfi_sections	.debug_frame
  18              		.section	.text.Thermistor_1_GetResistance,"ax",%progbits
  19              		.align	2
  20              		.global	Thermistor_1_GetResistance
  21              		.thumb
  22              		.thumb_func
  23              		.type	Thermistor_1_GetResistance, %function
  24              	Thermistor_1_GetResistance:
  25              	.LFB0:
  26              		.file 1 ".\\Generated_Source\\PSoC5\\Thermistor_1.c"
   1:.\Generated_Source\PSoC5/Thermistor_1.c **** /*******************************************************************************
   2:.\Generated_Source\PSoC5/Thermistor_1.c **** * File Name: Thermistor_1.c
   3:.\Generated_Source\PSoC5/Thermistor_1.c **** * Version 1.20
   4:.\Generated_Source\PSoC5/Thermistor_1.c **** *
   5:.\Generated_Source\PSoC5/Thermistor_1.c **** * Description:
   6:.\Generated_Source\PSoC5/Thermistor_1.c **** *  This file provides the source code to the API for the ThermistorCalc
   7:.\Generated_Source\PSoC5/Thermistor_1.c **** *  Component.
   8:.\Generated_Source\PSoC5/Thermistor_1.c **** *
   9:.\Generated_Source\PSoC5/Thermistor_1.c **** * Note:
  10:.\Generated_Source\PSoC5/Thermistor_1.c **** *  None.
  11:.\Generated_Source\PSoC5/Thermistor_1.c **** *
  12:.\Generated_Source\PSoC5/Thermistor_1.c **** ********************************************************************************
  13:.\Generated_Source\PSoC5/Thermistor_1.c **** * Copyright 2013, Cypress Semiconductor Corporation.  All rights reserved.
  14:.\Generated_Source\PSoC5/Thermistor_1.c **** * You may use this file only in accordance with the license, terms, conditions,
  15:.\Generated_Source\PSoC5/Thermistor_1.c **** * disclaimers, and limitations in the end user license agreement accompanying
  16:.\Generated_Source\PSoC5/Thermistor_1.c **** * the software package with which this file was provided.
  17:.\Generated_Source\PSoC5/Thermistor_1.c **** *******************************************************************************/
  18:.\Generated_Source\PSoC5/Thermistor_1.c **** 
  19:.\Generated_Source\PSoC5/Thermistor_1.c **** #include "Thermistor_1.h"
  20:.\Generated_Source\PSoC5/Thermistor_1.c **** 
  21:.\Generated_Source\PSoC5/Thermistor_1.c **** 
  22:.\Generated_Source\PSoC5/Thermistor_1.c **** /*******************************************************************************
  23:.\Generated_Source\PSoC5/Thermistor_1.c **** * Function Name: Thermistor_1_GetResistance
  24:.\Generated_Source\PSoC5/Thermistor_1.c **** ********************************************************************************
  25:.\Generated_Source\PSoC5/Thermistor_1.c **** *
  26:.\Generated_Source\PSoC5/Thermistor_1.c **** * Summary:
  27:.\Generated_Source\PSoC5/Thermistor_1.c **** *  The digital values of the voltages across the reference resistor and the
  28:.\Generated_Source\PSoC5/Thermistor_1.c **** *  thermistor are passed to this function as parameters. The function returns
  29:.\Generated_Source\PSoC5/Thermistor_1.c **** *  the resistance, based on the voltage values.
  30:.\Generated_Source\PSoC5/Thermistor_1.c **** *
  31:.\Generated_Source\PSoC5/Thermistor_1.c **** * Parameters:
ARM GAS  C:\Users\plod1602\AppData\Local\Temp\ccrlyQPK.s 			page 2


  32:.\Generated_Source\PSoC5/Thermistor_1.c **** *  vReference: the voltage across the reference resistor;
  33:.\Generated_Source\PSoC5/Thermistor_1.c **** *  vThermistor: the voltage across the thermistor.
  34:.\Generated_Source\PSoC5/Thermistor_1.c **** *  The ratio of these two voltages is used by this function. Therefore, the
  35:.\Generated_Source\PSoC5/Thermistor_1.c **** *  units for both parameters must be the same.
  36:.\Generated_Source\PSoC5/Thermistor_1.c **** *
  37:.\Generated_Source\PSoC5/Thermistor_1.c **** * Return:
  38:.\Generated_Source\PSoC5/Thermistor_1.c **** *  The return value is the resistance across the thermistor. The value returned
  39:.\Generated_Source\PSoC5/Thermistor_1.c **** *  is the resistance in Ohms.
  40:.\Generated_Source\PSoC5/Thermistor_1.c **** *
  41:.\Generated_Source\PSoC5/Thermistor_1.c **** *******************************************************************************/
  42:.\Generated_Source\PSoC5/Thermistor_1.c **** uint32 Thermistor_1_GetResistance(int16 vReference, int16 vThermistor)
  43:.\Generated_Source\PSoC5/Thermistor_1.c ****                                       
  44:.\Generated_Source\PSoC5/Thermistor_1.c **** {
  27              		.loc 1 44 0
  28              		.cfi_startproc
  29              		@ args = 0, pretend = 0, frame = 16
  30              		@ frame_needed = 1, uses_anonymous_args = 0
  31              		@ link register save eliminated.
  32 0000 80B4     		push	{r7}
  33              		.cfi_def_cfa_offset 4
  34              		.cfi_offset 7, -4
  35 0002 85B0     		sub	sp, sp, #20
  36              		.cfi_def_cfa_offset 24
  37 0004 00AF     		add	r7, sp, #0
  38              		.cfi_def_cfa_register 7
  39 0006 0246     		mov	r2, r0
  40 0008 0B46     		mov	r3, r1
  41 000a FA80     		strh	r2, [r7, #6]	@ movhi
  42 000c BB80     		strh	r3, [r7, #4]	@ movhi
  45:.\Generated_Source\PSoC5/Thermistor_1.c ****     int32 resT;
  46:.\Generated_Source\PSoC5/Thermistor_1.c ****     int16 temp;
  47:.\Generated_Source\PSoC5/Thermistor_1.c **** 
  48:.\Generated_Source\PSoC5/Thermistor_1.c ****     /* Calculate thermistor resistance from the voltages */
  49:.\Generated_Source\PSoC5/Thermistor_1.c ****     resT = Thermistor_1_REF_RESISTOR * ((int32)vThermistor);
  43              		.loc 1 49 0
  44 000e B7F90430 		ldrsh	r3, [r7, #4]
  45 0012 42F21072 		movw	r2, #10000
  46 0016 02FB03F3 		mul	r3, r2, r3
  47 001a BB60     		str	r3, [r7, #8]
  50:.\Generated_Source\PSoC5/Thermistor_1.c ****     if (vReference < 0)
  48              		.loc 1 50 0
  49 001c B7F90630 		ldrsh	r3, [r7, #6]
  50 0020 002B     		cmp	r3, #0
  51 0022 0CDA     		bge	.L2
  51:.\Generated_Source\PSoC5/Thermistor_1.c ****     {
  52:.\Generated_Source\PSoC5/Thermistor_1.c ****         temp = -vReference;
  52              		.loc 1 52 0
  53 0024 FB88     		ldrh	r3, [r7, #6]
  54 0026 5B42     		negs	r3, r3
  55 0028 9BB2     		uxth	r3, r3
  56 002a FB81     		strh	r3, [r7, #14]	@ movhi
  53:.\Generated_Source\PSoC5/Thermistor_1.c ****         temp = (int16)((uint16)((uint16)temp >> 1u));
  57              		.loc 1 53 0
  58 002c FB89     		ldrh	r3, [r7, #14]
  59 002e 5B08     		lsrs	r3, r3, #1
  60 0030 9BB2     		uxth	r3, r3
  61 0032 FB81     		strh	r3, [r7, #14]	@ movhi
ARM GAS  C:\Users\plod1602\AppData\Local\Temp\ccrlyQPK.s 			page 3


  54:.\Generated_Source\PSoC5/Thermistor_1.c ****         temp = -temp;
  62              		.loc 1 54 0
  63 0034 FB89     		ldrh	r3, [r7, #14]
  64 0036 5B42     		negs	r3, r3
  65 0038 9BB2     		uxth	r3, r3
  66 003a FB81     		strh	r3, [r7, #14]	@ movhi
  67 003c 03E0     		b	.L3
  68              	.L2:
  55:.\Generated_Source\PSoC5/Thermistor_1.c ****     }
  56:.\Generated_Source\PSoC5/Thermistor_1.c ****     else
  57:.\Generated_Source\PSoC5/Thermistor_1.c ****     {
  58:.\Generated_Source\PSoC5/Thermistor_1.c ****         temp = (int16)((uint16)((uint16)vReference >> 1u));
  69              		.loc 1 58 0
  70 003e FB88     		ldrh	r3, [r7, #6]
  71 0040 5B08     		lsrs	r3, r3, #1
  72 0042 9BB2     		uxth	r3, r3
  73 0044 FB81     		strh	r3, [r7, #14]	@ movhi
  74              	.L3:
  59:.\Generated_Source\PSoC5/Thermistor_1.c ****     }
  60:.\Generated_Source\PSoC5/Thermistor_1.c ****     resT += temp;
  75              		.loc 1 60 0
  76 0046 B7F90E30 		ldrsh	r3, [r7, #14]
  77 004a BA68     		ldr	r2, [r7, #8]
  78 004c 1344     		add	r3, r3, r2
  79 004e BB60     		str	r3, [r7, #8]
  61:.\Generated_Source\PSoC5/Thermistor_1.c ****     resT /= vReference;
  80              		.loc 1 61 0
  81 0050 B7F90630 		ldrsh	r3, [r7, #6]
  82 0054 BA68     		ldr	r2, [r7, #8]
  83 0056 92FBF3F3 		sdiv	r3, r2, r3
  84 005a BB60     		str	r3, [r7, #8]
  62:.\Generated_Source\PSoC5/Thermistor_1.c **** 
  63:.\Generated_Source\PSoC5/Thermistor_1.c ****     /* The ordering of Reference resistor value is specifically designed to keep the result from ov
  64:.\Generated_Source\PSoC5/Thermistor_1.c ****     return ((uint32)((uint32)resT << Thermistor_1_REF_RES_SHIFT));
  85              		.loc 1 64 0
  86 005c BB68     		ldr	r3, [r7, #8]
  65:.\Generated_Source\PSoC5/Thermistor_1.c **** }
  87              		.loc 1 65 0
  88 005e 1846     		mov	r0, r3
  89 0060 1437     		adds	r7, r7, #20
  90 0062 BD46     		mov	sp, r7
  91              		@ sp needed
  92 0064 5DF8047B 		ldr	r7, [sp], #4
  93 0068 7047     		bx	lr
  94              		.cfi_endproc
  95              	.LFE0:
  96              		.size	Thermistor_1_GetResistance, .-Thermistor_1_GetResistance
  97              		.global	__aeabi_ui2d
  98              		.global	__aeabi_d2f
  99              		.global	__aeabi_f2d
 100              		.global	__aeabi_dmul
 101              		.global	__aeabi_dadd
 102              		.global	__aeabi_ddiv
 103              		.global	__aeabi_dsub
 104              		.global	__aeabi_f2iz
 105 006a 00BF     		.section	.text.Thermistor_1_GetTemperature,"ax",%progbits
 106              		.align	2
ARM GAS  C:\Users\plod1602\AppData\Local\Temp\ccrlyQPK.s 			page 4


 107              		.global	Thermistor_1_GetTemperature
 108              		.thumb
 109              		.thumb_func
 110              		.type	Thermistor_1_GetTemperature, %function
 111              	Thermistor_1_GetTemperature:
 112              	.LFB1:
  66:.\Generated_Source\PSoC5/Thermistor_1.c **** 
  67:.\Generated_Source\PSoC5/Thermistor_1.c **** 
  68:.\Generated_Source\PSoC5/Thermistor_1.c **** /*******************************************************************************
  69:.\Generated_Source\PSoC5/Thermistor_1.c **** * Function Name: Thermistor_1_GetTemperature
  70:.\Generated_Source\PSoC5/Thermistor_1.c **** ********************************************************************************
  71:.\Generated_Source\PSoC5/Thermistor_1.c **** *
  72:.\Generated_Source\PSoC5/Thermistor_1.c **** * Summary:
  73:.\Generated_Source\PSoC5/Thermistor_1.c **** *  The value of the thermistor resistance is passed to this function as a
  74:.\Generated_Source\PSoC5/Thermistor_1.c **** *  parameter. The function returns the temperature, based on the resistance
  75:.\Generated_Source\PSoC5/Thermistor_1.c **** *  value. The method used to calculate the temperature is dependent on whether
  76:.\Generated_Source\PSoC5/Thermistor_1.c **** *  Equation or LUT was selected in the Customizer.
  77:.\Generated_Source\PSoC5/Thermistor_1.c **** *
  78:.\Generated_Source\PSoC5/Thermistor_1.c **** * Parameters:
  79:.\Generated_Source\PSoC5/Thermistor_1.c **** *  resT: the resistance across the thermistor in Ohms.
  80:.\Generated_Source\PSoC5/Thermistor_1.c **** *
  81:.\Generated_Source\PSoC5/Thermistor_1.c **** * Return:
  82:.\Generated_Source\PSoC5/Thermistor_1.c **** *  The return value is the temperature in 1/100ths of degrees C. For example,
  83:.\Generated_Source\PSoC5/Thermistor_1.c **** *  the return value is 2345, when the actual temperature is 23.45 degrees C.
  84:.\Generated_Source\PSoC5/Thermistor_1.c **** *
  85:.\Generated_Source\PSoC5/Thermistor_1.c **** *******************************************************************************/
  86:.\Generated_Source\PSoC5/Thermistor_1.c **** int16 Thermistor_1_GetTemperature(uint32 resT) 
  87:.\Generated_Source\PSoC5/Thermistor_1.c **** {
 113              		.loc 1 87 0
 114              		.cfi_startproc
 115              		@ args = 0, pretend = 0, frame = 24
 116              		@ frame_needed = 1, uses_anonymous_args = 0
 117 0000 B0B5     		push	{r4, r5, r7, lr}
 118              		.cfi_def_cfa_offset 16
 119              		.cfi_offset 4, -16
 120              		.cfi_offset 5, -12
 121              		.cfi_offset 7, -8
 122              		.cfi_offset 14, -4
 123 0002 86B0     		sub	sp, sp, #24
 124              		.cfi_def_cfa_offset 40
 125 0004 00AF     		add	r7, sp, #0
 126              		.cfi_def_cfa_register 7
 127 0006 7860     		str	r0, [r7, #4]
  88:.\Generated_Source\PSoC5/Thermistor_1.c ****     int16 tempTR;
  89:.\Generated_Source\PSoC5/Thermistor_1.c ****     
  90:.\Generated_Source\PSoC5/Thermistor_1.c ****     #if (Thermistor_1_IMPLEMENTATION == Thermistor_1_EQUATION_METHOD)
  91:.\Generated_Source\PSoC5/Thermistor_1.c **** 
  92:.\Generated_Source\PSoC5/Thermistor_1.c ****         float32 stEqn;
  93:.\Generated_Source\PSoC5/Thermistor_1.c ****         float32 logrT;
  94:.\Generated_Source\PSoC5/Thermistor_1.c **** 
  95:.\Generated_Source\PSoC5/Thermistor_1.c ****         /* Calculate thermistor resistance from the voltages */
  96:.\Generated_Source\PSoC5/Thermistor_1.c ****         #if(!CY_PSOC3)
  97:.\Generated_Source\PSoC5/Thermistor_1.c ****             logrT = (float32)log((float64)resT);
 128              		.loc 1 97 0
 129 0008 7868     		ldr	r0, [r7, #4]
 130 000a FFF7FEFF 		bl	__aeabi_ui2d
 131 000e 0246     		mov	r2, r0
ARM GAS  C:\Users\plod1602\AppData\Local\Temp\ccrlyQPK.s 			page 5


 132 0010 0B46     		mov	r3, r1
 133 0012 1046     		mov	r0, r2
 134 0014 1946     		mov	r1, r3
 135 0016 FFF7FEFF 		bl	log
 136 001a 0246     		mov	r2, r0
 137 001c 0B46     		mov	r3, r1
 138 001e 1046     		mov	r0, r2
 139 0020 1946     		mov	r1, r3
 140 0022 FFF7FEFF 		bl	__aeabi_d2f
 141 0026 0346     		mov	r3, r0
 142 0028 7B61     		str	r3, [r7, #20]	@ float
  98:.\Generated_Source\PSoC5/Thermistor_1.c ****         #else
  99:.\Generated_Source\PSoC5/Thermistor_1.c ****             logrT = log((float32)resT);
 100:.\Generated_Source\PSoC5/Thermistor_1.c ****         #endif  /* (!CY_PSOC3) */
 101:.\Generated_Source\PSoC5/Thermistor_1.c **** 
 102:.\Generated_Source\PSoC5/Thermistor_1.c ****         /* Calculate temperature from the resistance of thermistor using Steinhart-Hart Equation */
 103:.\Generated_Source\PSoC5/Thermistor_1.c ****         #if(!CY_PSOC3)
 104:.\Generated_Source\PSoC5/Thermistor_1.c ****             stEqn = (float32)(Thermistor_1_THA + (Thermistor_1_THB * logrT) + 
 143              		.loc 1 104 0
 144 002a 7869     		ldr	r0, [r7, #20]	@ float
 145 002c FFF7FEFF 		bl	__aeabi_f2d
 146 0030 0246     		mov	r2, r0
 147 0032 0B46     		mov	r3, r1
 148 0034 1046     		mov	r0, r2
 149 0036 1946     		mov	r1, r3
 150 0038 35A3     		adr	r3, .L7
 151 003a D3E90023 		ldrd	r2, [r3]
 152 003e FFF7FEFF 		bl	__aeabi_dmul
 153 0042 0246     		mov	r2, r0
 154 0044 0B46     		mov	r3, r1
 155 0046 1046     		mov	r0, r2
 156 0048 1946     		mov	r1, r3
 157 004a 33A3     		adr	r3, .L7+8
 158 004c D3E90023 		ldrd	r2, [r3]
 159 0050 FFF7FEFF 		bl	__aeabi_dadd
 160 0054 0246     		mov	r2, r0
 161 0056 0B46     		mov	r3, r1
 162 0058 1446     		mov	r4, r2
 163 005a 1D46     		mov	r5, r3
 105:.\Generated_Source\PSoC5/Thermistor_1.c ****                              (Thermistor_1_THC * pow((float64)logrT, (float32)3)));
 164              		.loc 1 105 0
 165 005c 7869     		ldr	r0, [r7, #20]	@ float
 166 005e FFF7FEFF 		bl	__aeabi_f2d
 167 0062 0246     		mov	r2, r0
 168 0064 0B46     		mov	r3, r1
 169 0066 1046     		mov	r0, r2
 170 0068 1946     		mov	r1, r3
 171 006a 4FF00002 		mov	r2, #0
 172 006e 304B     		ldr	r3, .L7+32
 173 0070 FFF7FEFF 		bl	pow
 174 0074 0246     		mov	r2, r0
 175 0076 0B46     		mov	r3, r1
 176 0078 1046     		mov	r0, r2
 177 007a 1946     		mov	r1, r3
 178 007c 28A3     		adr	r3, .L7+16
 179 007e D3E90023 		ldrd	r2, [r3]
 180 0082 FFF7FEFF 		bl	__aeabi_dmul
ARM GAS  C:\Users\plod1602\AppData\Local\Temp\ccrlyQPK.s 			page 6


 181 0086 0246     		mov	r2, r0
 182 0088 0B46     		mov	r3, r1
 104:.\Generated_Source\PSoC5/Thermistor_1.c ****             stEqn = (float32)(Thermistor_1_THA + (Thermistor_1_THB * logrT) + 
 183              		.loc 1 104 0
 184 008a 2046     		mov	r0, r4
 185 008c 2946     		mov	r1, r5
 186 008e FFF7FEFF 		bl	__aeabi_dadd
 187 0092 0246     		mov	r2, r0
 188 0094 0B46     		mov	r3, r1
 189 0096 1046     		mov	r0, r2
 190 0098 1946     		mov	r1, r3
 191 009a FFF7FEFF 		bl	__aeabi_d2f
 192 009e 0346     		mov	r3, r0
 193 00a0 3B61     		str	r3, [r7, #16]	@ float
 106:.\Generated_Source\PSoC5/Thermistor_1.c ****         #else
 107:.\Generated_Source\PSoC5/Thermistor_1.c ****             stEqn = (float32)(Thermistor_1_THA + (Thermistor_1_THB * logrT) + 
 108:.\Generated_Source\PSoC5/Thermistor_1.c ****                              (Thermistor_1_THC * pow(logrT, (float32)3)));
 109:.\Generated_Source\PSoC5/Thermistor_1.c ****         #endif  /* (!CY_PSOC3) */
 110:.\Generated_Source\PSoC5/Thermistor_1.c **** 
 111:.\Generated_Source\PSoC5/Thermistor_1.c ****         tempTR = (int16)((float32)((((1.0 / stEqn) - Thermistor_1_K2C) * (float32)Thermistor_1_SCAL
 194              		.loc 1 111 0
 195 00a2 3869     		ldr	r0, [r7, #16]	@ float
 196 00a4 FFF7FEFF 		bl	__aeabi_f2d
 197 00a8 0246     		mov	r2, r0
 198 00aa 0B46     		mov	r3, r1
 199 00ac 4FF00000 		mov	r0, #0
 200 00b0 2049     		ldr	r1, .L7+36
 201 00b2 FFF7FEFF 		bl	__aeabi_ddiv
 202 00b6 0246     		mov	r2, r0
 203 00b8 0B46     		mov	r3, r1
 204 00ba 1046     		mov	r0, r2
 205 00bc 1946     		mov	r1, r3
 206 00be 1AA3     		adr	r3, .L7+24
 207 00c0 D3E90023 		ldrd	r2, [r3]
 208 00c4 FFF7FEFF 		bl	__aeabi_dsub
 209 00c8 0246     		mov	r2, r0
 210 00ca 0B46     		mov	r3, r1
 211 00cc 1046     		mov	r0, r2
 212 00ce 1946     		mov	r1, r3
 213 00d0 4FF00002 		mov	r2, #0
 214 00d4 184B     		ldr	r3, .L7+40
 215 00d6 FFF7FEFF 		bl	__aeabi_dmul
 216 00da 0246     		mov	r2, r0
 217 00dc 0B46     		mov	r3, r1
 218 00de 1046     		mov	r0, r2
 219 00e0 1946     		mov	r1, r3
 220 00e2 4FF00002 		mov	r2, #0
 221 00e6 154B     		ldr	r3, .L7+44
 222 00e8 FFF7FEFF 		bl	__aeabi_dadd
 223 00ec 0246     		mov	r2, r0
 224 00ee 0B46     		mov	r3, r1
 225 00f0 1046     		mov	r0, r2
 226 00f2 1946     		mov	r1, r3
 227 00f4 FFF7FEFF 		bl	__aeabi_d2f
 228 00f8 0346     		mov	r3, r0
 229 00fa 1846     		mov	r0, r3
 230 00fc FFF7FEFF 		bl	__aeabi_f2iz
ARM GAS  C:\Users\plod1602\AppData\Local\Temp\ccrlyQPK.s 			page 7


 231 0100 0346     		mov	r3, r0
 232 0102 FB81     		strh	r3, [r7, #14]	@ movhi
 112:.\Generated_Source\PSoC5/Thermistor_1.c **** 
 113:.\Generated_Source\PSoC5/Thermistor_1.c ****     #else /* Thermistor_1_IMPLEMENTATION == Thermistor_1_LUT_METHOD */
 114:.\Generated_Source\PSoC5/Thermistor_1.c **** 
 115:.\Generated_Source\PSoC5/Thermistor_1.c ****         uint16 mid;
 116:.\Generated_Source\PSoC5/Thermistor_1.c ****         uint16 first = 0u;
 117:.\Generated_Source\PSoC5/Thermistor_1.c ****         uint16 last = Thermistor_1_LUT_SIZE - 1u;
 118:.\Generated_Source\PSoC5/Thermistor_1.c **** 
 119:.\Generated_Source\PSoC5/Thermistor_1.c ****         /* Calculate temperature from the resistance of thermistor by using the LUT */
 120:.\Generated_Source\PSoC5/Thermistor_1.c ****         while (first < last)
 121:.\Generated_Source\PSoC5/Thermistor_1.c ****         {
 122:.\Generated_Source\PSoC5/Thermistor_1.c ****             mid = (first + last) >> 1u;
 123:.\Generated_Source\PSoC5/Thermistor_1.c **** 
 124:.\Generated_Source\PSoC5/Thermistor_1.c ****             if ((0u == mid) || ((Thermistor_1_LUT_SIZE - 1u) == mid) || (resT == Thermistor_1_LUT[m
 125:.\Generated_Source\PSoC5/Thermistor_1.c ****             {
 126:.\Generated_Source\PSoC5/Thermistor_1.c ****                 last = mid;
 127:.\Generated_Source\PSoC5/Thermistor_1.c ****                 break;
 128:.\Generated_Source\PSoC5/Thermistor_1.c ****             }
 129:.\Generated_Source\PSoC5/Thermistor_1.c ****             else if (Thermistor_1_LUT[mid] > resT)
 130:.\Generated_Source\PSoC5/Thermistor_1.c ****             {
 131:.\Generated_Source\PSoC5/Thermistor_1.c ****                 first = mid + 1u;
 132:.\Generated_Source\PSoC5/Thermistor_1.c ****             }
 133:.\Generated_Source\PSoC5/Thermistor_1.c ****             else /* (Thermistor_1_LUT[mid] < resT) */
 134:.\Generated_Source\PSoC5/Thermistor_1.c ****             {
 135:.\Generated_Source\PSoC5/Thermistor_1.c ****                 last = mid - 1u;
 136:.\Generated_Source\PSoC5/Thermistor_1.c ****             }
 137:.\Generated_Source\PSoC5/Thermistor_1.c ****         }
 138:.\Generated_Source\PSoC5/Thermistor_1.c **** 
 139:.\Generated_Source\PSoC5/Thermistor_1.c ****         /* Calculation the closest entry in the LUT */
 140:.\Generated_Source\PSoC5/Thermistor_1.c ****         if ((Thermistor_1_LUT[last] > resT) && (last < (Thermistor_1_LUT_SIZE - 1u)) &&
 141:.\Generated_Source\PSoC5/Thermistor_1.c ****            ((Thermistor_1_LUT[last] - resT) > (resT - Thermistor_1_LUT[last + 1u])))
 142:.\Generated_Source\PSoC5/Thermistor_1.c ****         {
 143:.\Generated_Source\PSoC5/Thermistor_1.c ****             last++;
 144:.\Generated_Source\PSoC5/Thermistor_1.c ****         }
 145:.\Generated_Source\PSoC5/Thermistor_1.c ****         else if ((Thermistor_1_LUT[last] < resT) && (last > 0u) &&
 146:.\Generated_Source\PSoC5/Thermistor_1.c ****                 ((Thermistor_1_LUT[last - 1u] - resT) < (resT - Thermistor_1_LUT[last])))
 147:.\Generated_Source\PSoC5/Thermistor_1.c ****         {
 148:.\Generated_Source\PSoC5/Thermistor_1.c ****             last--;
 149:.\Generated_Source\PSoC5/Thermistor_1.c ****         }
 150:.\Generated_Source\PSoC5/Thermistor_1.c ****         else
 151:.\Generated_Source\PSoC5/Thermistor_1.c ****         {
 152:.\Generated_Source\PSoC5/Thermistor_1.c ****             /* Closest entry in the LUT already found */
 153:.\Generated_Source\PSoC5/Thermistor_1.c ****         }
 154:.\Generated_Source\PSoC5/Thermistor_1.c **** 
 155:.\Generated_Source\PSoC5/Thermistor_1.c ****         tempTR = Thermistor_1_MIN_TEMP + (int16)((uint16)(last * Thermistor_1_ACCURACY));
 156:.\Generated_Source\PSoC5/Thermistor_1.c **** 
 157:.\Generated_Source\PSoC5/Thermistor_1.c ****     #endif /* (Thermistor_1_IMPLEMENTATION == Thermistor_1_EQUATION_METHOD) */
 158:.\Generated_Source\PSoC5/Thermistor_1.c **** 
 159:.\Generated_Source\PSoC5/Thermistor_1.c ****     return (tempTR);
 233              		.loc 1 159 0
 234 0104 FB89     		ldrh	r3, [r7, #14]
 235 0106 1BB2     		sxth	r3, r3
 160:.\Generated_Source\PSoC5/Thermistor_1.c **** }
 236              		.loc 1 160 0
 237 0108 1846     		mov	r0, r3
 238 010a 1837     		adds	r7, r7, #24
ARM GAS  C:\Users\plod1602\AppData\Local\Temp\ccrlyQPK.s 			page 8


 239 010c BD46     		mov	sp, r7
 240              		@ sp needed
 241 010e B0BD     		pop	{r4, r5, r7, pc}
 242              	.L8:
 243              		.align	3
 244              	.L7:
 245 0110 6943AA9A 		.word	-1700117655
 246 0114 B34D303F 		.word	1060130227
 247 0118 D8FD850B 		.word	193330648
 248 011c 29994D3F 		.word	1062050089
 249 0120 4D33E444 		.word	1155806029
 250 0124 25658B3E 		.word	1049322789
 251 0128 66666666 		.word	1717986918
 252 012c 66127140 		.word	1081152102
 253 0130 00000840 		.word	1074266112
 254 0134 0000F03F 		.word	1072693248
 255 0138 00005940 		.word	1079574528
 256 013c 0000E03F 		.word	1071644672
 257              		.cfi_endproc
 258              	.LFE1:
 259              		.size	Thermistor_1_GetTemperature, .-Thermistor_1_GetTemperature
 260              		.text
 261              	.Letext0:
 262              		.file 2 ".\\Generated_Source\\PSoC5\\cytypes.h"