ARM GAS  C:\Users\plod1602\AppData\Local\Temp\cch3OT0y.s 			page 1


   1              		.syntax unified
   2              		.cpu cortex-m3
   3              		.fpu softvfp
   4              		.eabi_attribute 20, 1
   5              		.eabi_attribute 21, 1
   6              		.eabi_attribute 23, 3
   7              		.eabi_attribute 24, 1
   8              		.eabi_attribute 25, 1
   9              		.eabi_attribute 26, 1
  10              		.eabi_attribute 30, 6
  11              		.eabi_attribute 34, 1
  12              		.eabi_attribute 18, 4
  13              		.thumb
  14              		.file	"AgitatorControler.c"
  15              		.text
  16              	.Ltext0:
  17              		.cfi_sections	.debug_frame
  18              		.section	.text.changeAgitatorSpeed,"ax",%progbits
  19              		.align	2
  20              		.global	changeAgitatorSpeed
  21              		.thumb
  22              		.thumb_func
  23              		.type	changeAgitatorSpeed, %function
  24              	changeAgitatorSpeed:
  25              	.LFB56:
  26              		.file 1 ".\\AgitatorControler.c"
   1:.\AgitatorControler.c **** /* ========================================
   2:.\AgitatorControler.c ****  *
   3:.\AgitatorControler.c ****  * Copyright YOUR COMPANY, THE YEAR
   4:.\AgitatorControler.c ****  * All Rights Reserved
   5:.\AgitatorControler.c ****  * UNPUBLISHED, LICENSED SOFTWARE.
   6:.\AgitatorControler.c ****  *
   7:.\AgitatorControler.c ****  * CONFIDENTIAL AND PROPRIETARY INFORMATION
   8:.\AgitatorControler.c ****  * WHICH IS THE PROPERTY OF your company.
   9:.\AgitatorControler.c ****  *
  10:.\AgitatorControler.c ****  * ========================================
  11:.\AgitatorControler.c **** */
  12:.\AgitatorControler.c **** 
  13:.\AgitatorControler.c **** #include "AgitatorControler.h"
  14:.\AgitatorControler.c **** 
  15:.\AgitatorControler.c **** 
  16:.\AgitatorControler.c **** extern MC1_5Module  mc1_5Module [2];
  17:.\AgitatorControler.c **** 
  18:.\AgitatorControler.c **** 
  19:.\AgitatorControler.c **** void changeAgitatorSpeed(uint8 percentage, uint8 module)
  20:.\AgitatorControler.c **** {
  27              		.loc 1 20 0
  28              		.cfi_startproc
  29              		@ args = 0, pretend = 0, frame = 16
  30              		@ frame_needed = 1, uses_anonymous_args = 0
  31 0000 80B5     		push	{r7, lr}
  32              		.cfi_def_cfa_offset 8
  33              		.cfi_offset 7, -8
  34              		.cfi_offset 14, -4
  35 0002 84B0     		sub	sp, sp, #16
  36              		.cfi_def_cfa_offset 24
  37 0004 00AF     		add	r7, sp, #0
ARM GAS  C:\Users\plod1602\AppData\Local\Temp\cch3OT0y.s 			page 2


  38              		.cfi_def_cfa_register 7
  39 0006 0346     		mov	r3, r0
  40 0008 0A46     		mov	r2, r1
  41 000a FB71     		strb	r3, [r7, #7]
  42 000c 1346     		mov	r3, r2
  43 000e BB71     		strb	r3, [r7, #6]
  21:.\AgitatorControler.c ****     uint16 maxValue;
  22:.\AgitatorControler.c ****     uint16 toWrite;
  23:.\AgitatorControler.c ****     
  24:.\AgitatorControler.c ****     if(percentage > 100)  percentage = 100;
  44              		.loc 1 24 0
  45 0010 FB79     		ldrb	r3, [r7, #7]	@ zero_extendqisi2
  46 0012 642B     		cmp	r3, #100
  47 0014 01D9     		bls	.L6
  48              		.loc 1 24 0 is_stmt 0 discriminator 1
  49 0016 6423     		movs	r3, #100
  50 0018 FB71     		strb	r3, [r7, #7]
  51              	.L6:
  25:.\AgitatorControler.c ****     if(percentage < 0) percentage = 0;
  26:.\AgitatorControler.c ****     
  27:.\AgitatorControler.c ****     switch (module)
  52              		.loc 1 27 0 is_stmt 1
  53 001a BB79     		ldrb	r3, [r7, #6]	@ zero_extendqisi2
  54 001c 002B     		cmp	r3, #0
  55 001e 02D0     		beq	.L4
  56 0020 012B     		cmp	r3, #1
  57 0022 14D0     		beq	.L5
  58 0024 27E0     		b	.L3
  59              	.L4:
  60              	.LBB2:
  28:.\AgitatorControler.c ****     {
  29:.\AgitatorControler.c ****         case 0:
  30:.\AgitatorControler.c ****             maxValue = pwmAgitator_1_ReadPeriod();
  61              		.loc 1 30 0
  62 0026 FFF7FEFF 		bl	pwmAgitator_1_ReadPeriod
  63 002a 0346     		mov	r3, r0
  64 002c BB81     		strh	r3, [r7, #12]	@ movhi
  31:.\AgitatorControler.c ****             toWrite = (percentage*(maxValue/100));
  65              		.loc 1 31 0
  66 002e FB79     		ldrb	r3, [r7, #7]	@ zero_extendqisi2
  67 0030 9BB2     		uxth	r3, r3
  68 0032 BA89     		ldrh	r2, [r7, #12]
  69 0034 1749     		ldr	r1, .L7
  70 0036 A1FB0212 		umull	r1, r2, r1, r2
  71 003a 5209     		lsrs	r2, r2, #5
  72 003c 92B2     		uxth	r2, r2
  73 003e 02FB03F3 		mul	r3, r2, r3
  74 0042 FB81     		strh	r3, [r7, #14]	@ movhi
  32:.\AgitatorControler.c ****             pwmAgitator_1_WriteCompare(toWrite);
  75              		.loc 1 32 0
  76 0044 FB89     		ldrh	r3, [r7, #14]
  77 0046 1846     		mov	r0, r3
  78 0048 FFF7FEFF 		bl	pwmAgitator_1_WriteCompare
  33:.\AgitatorControler.c ****             break;
  79              		.loc 1 33 0
  80 004c 13E0     		b	.L3
  81              	.L5:
ARM GAS  C:\Users\plod1602\AppData\Local\Temp\cch3OT0y.s 			page 3


  34:.\AgitatorControler.c ****         case 1:
  35:.\AgitatorControler.c ****             maxValue = pwmAgitator_2_ReadPeriod();
  82              		.loc 1 35 0
  83 004e FFF7FEFF 		bl	pwmAgitator_2_ReadPeriod
  84 0052 0346     		mov	r3, r0
  85 0054 BB81     		strh	r3, [r7, #12]	@ movhi
  36:.\AgitatorControler.c ****             toWrite = (percentage*(maxValue/100));
  86              		.loc 1 36 0
  87 0056 FB79     		ldrb	r3, [r7, #7]	@ zero_extendqisi2
  88 0058 9BB2     		uxth	r3, r3
  89 005a BA89     		ldrh	r2, [r7, #12]
  90 005c 0D49     		ldr	r1, .L7
  91 005e A1FB0212 		umull	r1, r2, r1, r2
  92 0062 5209     		lsrs	r2, r2, #5
  93 0064 92B2     		uxth	r2, r2
  94 0066 02FB03F3 		mul	r3, r2, r3
  95 006a FB81     		strh	r3, [r7, #14]	@ movhi
  37:.\AgitatorControler.c ****             pwmAgitator_2_WriteCompare(toWrite);
  96              		.loc 1 37 0
  97 006c FB89     		ldrh	r3, [r7, #14]
  98 006e 1846     		mov	r0, r3
  99 0070 FFF7FEFF 		bl	pwmAgitator_2_WriteCompare
  38:.\AgitatorControler.c ****             break;
 100              		.loc 1 38 0
 101 0074 00BF     		nop
 102              	.L3:
 103              	.LBE2:
  39:.\AgitatorControler.c ****     }
  40:.\AgitatorControler.c ****     mc1_5Module [module].agitatorSpeed = toWrite;
 104              		.loc 1 40 0
 105 0076 BA79     		ldrb	r2, [r7, #6]	@ zero_extendqisi2
 106 0078 FB89     		ldrh	r3, [r7, #14]	@ movhi
 107 007a D8B2     		uxtb	r0, r3
 108 007c 0649     		ldr	r1, .L7+4
 109 007e 1346     		mov	r3, r2
 110 0080 9B00     		lsls	r3, r3, #2
 111 0082 1344     		add	r3, r3, r2
 112 0084 DB00     		lsls	r3, r3, #3
 113 0086 0B44     		add	r3, r3, r1
 114 0088 1033     		adds	r3, r3, #16
 115 008a 0246     		mov	r2, r0
 116 008c 1A70     		strb	r2, [r3]
  41:.\AgitatorControler.c **** }
 117              		.loc 1 41 0
 118 008e 1037     		adds	r7, r7, #16
 119              		.cfi_def_cfa_offset 8
 120 0090 BD46     		mov	sp, r7
 121              		.cfi_def_cfa_register 13
 122              		@ sp needed
 123 0092 80BD     		pop	{r7, pc}
 124              	.L8:
 125              		.align	2
 126              	.L7:
 127 0094 1F85EB51 		.word	1374389535
 128 0098 00000000 		.word	mc1_5Module
 129              		.cfi_endproc
 130              	.LFE56:
ARM GAS  C:\Users\plod1602\AppData\Local\Temp\cch3OT0y.s 			page 4


 131              		.size	changeAgitatorSpeed, .-changeAgitatorSpeed
 132              		.section	.text.changeAgitatorState,"ax",%progbits
 133              		.align	2
 134              		.global	changeAgitatorState
 135              		.thumb
 136              		.thumb_func
 137              		.type	changeAgitatorState, %function
 138              	changeAgitatorState:
 139              	.LFB57:
  42:.\AgitatorControler.c **** 
  43:.\AgitatorControler.c **** 
  44:.\AgitatorControler.c **** int8 changeAgitatorState(uint8 agitatorEnableState, uint8 module)
  45:.\AgitatorControler.c **** {    
 140              		.loc 1 45 0
 141              		.cfi_startproc
 142              		@ args = 0, pretend = 0, frame = 8
 143              		@ frame_needed = 1, uses_anonymous_args = 0
 144 0000 80B5     		push	{r7, lr}
 145              		.cfi_def_cfa_offset 8
 146              		.cfi_offset 7, -8
 147              		.cfi_offset 14, -4
 148 0002 82B0     		sub	sp, sp, #8
 149              		.cfi_def_cfa_offset 16
 150 0004 00AF     		add	r7, sp, #0
 151              		.cfi_def_cfa_register 7
 152 0006 0346     		mov	r3, r0
 153 0008 0A46     		mov	r2, r1
 154 000a FB71     		strb	r3, [r7, #7]
 155 000c 1346     		mov	r3, r2
 156 000e BB71     		strb	r3, [r7, #6]
  46:.\AgitatorControler.c ****     switch (module)
 157              		.loc 1 46 0
 158 0010 BB79     		ldrb	r3, [r7, #6]	@ zero_extendqisi2
 159 0012 002B     		cmp	r3, #0
 160 0014 02D0     		beq	.L11
 161 0016 012B     		cmp	r3, #1
 162 0018 05D0     		beq	.L12
 163 001a 09E0     		b	.L10
 164              	.L11:
 165              	.LBB3:
  47:.\AgitatorControler.c ****     {
  48:.\AgitatorControler.c ****         case 0:
  49:.\AgitatorControler.c ****             outputAgitator1_Enable_Write(agitatorEnableState);
 166              		.loc 1 49 0
 167 001c FB79     		ldrb	r3, [r7, #7]	@ zero_extendqisi2
 168 001e 1846     		mov	r0, r3
 169 0020 FFF7FEFF 		bl	outputAgitator1_Enable_Write
  50:.\AgitatorControler.c ****             break;
 170              		.loc 1 50 0
 171 0024 04E0     		b	.L10
 172              	.L12:
  51:.\AgitatorControler.c ****         case 1:
  52:.\AgitatorControler.c ****             outputAgitator2_Enable_Write(agitatorEnableState);
 173              		.loc 1 52 0
 174 0026 FB79     		ldrb	r3, [r7, #7]	@ zero_extendqisi2
 175 0028 1846     		mov	r0, r3
 176 002a FFF7FEFF 		bl	outputAgitator2_Enable_Write
ARM GAS  C:\Users\plod1602\AppData\Local\Temp\cch3OT0y.s 			page 5


  53:.\AgitatorControler.c ****             break;
 177              		.loc 1 53 0
 178 002e 00BF     		nop
 179              	.L10:
 180              	.LBE3:
  54:.\AgitatorControler.c ****     }
  55:.\AgitatorControler.c ****     mc1_5Module [module].agitatorState = agitatorEnableState;
 181              		.loc 1 55 0
 182 0030 BA79     		ldrb	r2, [r7, #6]	@ zero_extendqisi2
 183 0032 0749     		ldr	r1, .L14
 184 0034 1346     		mov	r3, r2
 185 0036 9B00     		lsls	r3, r3, #2
 186 0038 1344     		add	r3, r3, r2
 187 003a DB00     		lsls	r3, r3, #3
 188 003c 0B44     		add	r3, r3, r1
 189 003e 1033     		adds	r3, r3, #16
 190 0040 FA79     		ldrb	r2, [r7, #7]
 191 0042 5A70     		strb	r2, [r3, #1]
  56:.\AgitatorControler.c ****     return 1;
 192              		.loc 1 56 0
 193 0044 0123     		movs	r3, #1
 194 0046 5BB2     		sxtb	r3, r3
  57:.\AgitatorControler.c **** }
 195              		.loc 1 57 0
 196 0048 1846     		mov	r0, r3
 197 004a 0837     		adds	r7, r7, #8
 198              		.cfi_def_cfa_offset 8
 199 004c BD46     		mov	sp, r7
 200              		.cfi_def_cfa_register 13
 201              		@ sp needed
 202 004e 80BD     		pop	{r7, pc}
 203              	.L15:
 204              		.align	2
 205              	.L14:
 206 0050 00000000 		.word	mc1_5Module
 207              		.cfi_endproc
 208              	.LFE57:
 209              		.size	changeAgitatorState, .-changeAgitatorState
 210              		.text
 211              	.Letext0:
 212              		.file 2 "c:\\program files (x86)\\cypress\\psoc creator\\3.3\\psoc creator\\import\\gnu\\arm\\4.9.
 213              		.file 3 "c:\\program files (x86)\\cypress\\psoc creator\\3.3\\psoc creator\\import\\gnu\\arm\\4.9.
 214              		.file 4 "Generated_Source\\PSoC5/cytypes.h"
 215              		.file 5 ".\\Defines.h"
 216              		.file 6 "Generated_Source\\PSoC5/core_cm3.h"