ARM GAS  C:\Users\Lois\AppData\Local\Temp\ccjnaYvE.s 			page 1


   1              		.syntax unified
   2              		.cpu cortex-m3
   3              		.fpu softvfp
   4              		.eabi_attribute 20, 1
   5              		.eabi_attribute 21, 1
   6              		.eabi_attribute 23, 3
   7              		.eabi_attribute 24, 1
   8              		.eabi_attribute 25, 1
   9              		.eabi_attribute 26, 1
  10              		.eabi_attribute 30, 6
  11              		.eabi_attribute 34, 1
  12              		.eabi_attribute 18, 4
  13              		.thumb
  14              		.file	"ComputerCommunication.c"
  15              		.text
  16              	.Ltext0:
  17              		.cfi_sections	.debug_frame
  18              		.section	.text.sendTemperatureToCAN,"ax",%progbits
  19              		.align	2
  20              		.global	sendTemperatureToCAN
  21              		.thumb
  22              		.thumb_func
  23              		.type	sendTemperatureToCAN, %function
  24              	sendTemperatureToCAN:
  25              	.LFB56:
  26              		.file 1 ".\\ComputerCommunication.c"
   1:.\ComputerCommunication.c **** /* ========================================
   2:.\ComputerCommunication.c ****  *
   3:.\ComputerCommunication.c ****  * Copyright YOUR COMPANY, THE YEAR
   4:.\ComputerCommunication.c ****  * All Rights Reserved
   5:.\ComputerCommunication.c ****  * UNPUBLISHED, LICENSED SOFTWARE.
   6:.\ComputerCommunication.c ****  *
   7:.\ComputerCommunication.c ****  * CONFIDENTIAL AND PROPRIETARY INFORMATION
   8:.\ComputerCommunication.c ****  * WHICH IS THE PROPERTY OF your company.
   9:.\ComputerCommunication.c ****  *
  10:.\ComputerCommunication.c ****  * ========================================
  11:.\ComputerCommunication.c **** */
  12:.\ComputerCommunication.c **** 
  13:.\ComputerCommunication.c **** #include "ComputerCommunication.h"
  14:.\ComputerCommunication.c **** 
  15:.\ComputerCommunication.c **** 
  16:.\ComputerCommunication.c **** 
  17:.\ComputerCommunication.c **** void sendTemperatureToCAN(uint8 module, uint16 temperature, int8 command )
  18:.\ComputerCommunication.c **** {
  27              		.loc 1 18 0
  28              		.cfi_startproc
  29              		@ args = 0, pretend = 0, frame = 24
  30              		@ frame_needed = 1, uses_anonymous_args = 0
  31 0000 80B5     		push	{r7, lr}
  32              		.cfi_def_cfa_offset 8
  33              		.cfi_offset 7, -8
  34              		.cfi_offset 14, -4
  35 0002 86B0     		sub	sp, sp, #24
  36              		.cfi_def_cfa_offset 32
  37 0004 00AF     		add	r7, sp, #0
  38              		.cfi_def_cfa_register 7
  39 0006 0346     		mov	r3, r0
ARM GAS  C:\Users\Lois\AppData\Local\Temp\ccjnaYvE.s 			page 2


  40 0008 FB71     		strb	r3, [r7, #7]
  41 000a 0B46     		mov	r3, r1	@ movhi
  42 000c BB80     		strh	r3, [r7, #4]	@ movhi
  43 000e 1346     		mov	r3, r2
  44 0010 BB71     		strb	r3, [r7, #6]
  19:.\ComputerCommunication.c ****     CAN_MSG msgToSendBack = {{GET_CURRENT_TEMPERATURE,module,HARDWARE_CAN_ID,0,0,0,0,0},{8},{0xFF}}
  45              		.loc 1 19 0
  46 0012 0023     		movs	r3, #0
  47 0014 3B72     		strb	r3, [r7, #8]
  48 0016 FB79     		ldrb	r3, [r7, #7]
  49 0018 7B72     		strb	r3, [r7, #9]
  50 001a 7023     		movs	r3, #112
  51 001c BB72     		strb	r3, [r7, #10]
  52 001e 0023     		movs	r3, #0
  53 0020 FB72     		strb	r3, [r7, #11]
  54 0022 0023     		movs	r3, #0
  55 0024 3B73     		strb	r3, [r7, #12]
  56 0026 0023     		movs	r3, #0
  57 0028 7B73     		strb	r3, [r7, #13]
  58 002a 0023     		movs	r3, #0
  59 002c BB73     		strb	r3, [r7, #14]
  60 002e 0023     		movs	r3, #0
  61 0030 FB73     		strb	r3, [r7, #15]
  62 0032 0823     		movs	r3, #8
  63 0034 3B74     		strb	r3, [r7, #16]
  64 0036 FF23     		movs	r3, #255
  65 0038 7B61     		str	r3, [r7, #20]
  20:.\ComputerCommunication.c **** 
  21:.\ComputerCommunication.c ****     msgToSendBack.msgBytes.byte[4] = (uint8)temperature;
  66              		.loc 1 21 0
  67 003a BB88     		ldrh	r3, [r7, #4]	@ movhi
  68 003c DBB2     		uxtb	r3, r3
  69 003e 3B73     		strb	r3, [r7, #12]
  22:.\ComputerCommunication.c ****     msgToSendBack.msgBytes.byte[5] = (uint8)(temperature>>8);
  70              		.loc 1 22 0
  71 0040 BB88     		ldrh	r3, [r7, #4]
  72 0042 1B0A     		lsrs	r3, r3, #8
  73 0044 9BB2     		uxth	r3, r3
  74 0046 DBB2     		uxtb	r3, r3
  75 0048 7B73     		strb	r3, [r7, #13]
  23:.\ComputerCommunication.c ****     msgToSendBack.msgBytes.byte[6] = command;
  76              		.loc 1 23 0
  77 004a BB79     		ldrb	r3, [r7, #6]	@ zero_extendqisi2
  78 004c BB73     		strb	r3, [r7, #14]
  24:.\ComputerCommunication.c ****     sendMessage(&msgToSendBack,0xFF);  
  79              		.loc 1 24 0
  80 004e 07F10803 		add	r3, r7, #8
  81 0052 1846     		mov	r0, r3
  82 0054 FF21     		movs	r1, #255
  83 0056 FFF7FEFF 		bl	sendMessage
  25:.\ComputerCommunication.c **** }
  84              		.loc 1 25 0
  85 005a 1837     		adds	r7, r7, #24
  86              		.cfi_def_cfa_offset 8
  87 005c BD46     		mov	sp, r7
  88              		.cfi_def_cfa_register 13
  89              		@ sp needed
ARM GAS  C:\Users\Lois\AppData\Local\Temp\ccjnaYvE.s 			page 3


  90 005e 80BD     		pop	{r7, pc}
  91              		.cfi_endproc
  92              	.LFE56:
  93              		.size	sendTemperatureToCAN, .-sendTemperatureToCAN
  94              		.section	.text.sendDataToCAN,"ax",%progbits
  95              		.align	2
  96              		.global	sendDataToCAN
  97              		.thumb
  98              		.thumb_func
  99              		.type	sendDataToCAN, %function
 100              	sendDataToCAN:
 101              	.LFB57:
  26:.\ComputerCommunication.c **** 
  27:.\ComputerCommunication.c **** 
  28:.\ComputerCommunication.c **** void sendDataToCAN(uint8 instruction, uint8 module, uint8 byte3, uint8 byte4, uint8 byte5, uint8 by
  29:.\ComputerCommunication.c **** {
 102              		.loc 1 29 0
 103              		.cfi_startproc
 104              		@ args = 12, pretend = 0, frame = 24
 105              		@ frame_needed = 1, uses_anonymous_args = 0
 106 0000 90B5     		push	{r4, r7, lr}
 107              		.cfi_def_cfa_offset 12
 108              		.cfi_offset 4, -12
 109              		.cfi_offset 7, -8
 110              		.cfi_offset 14, -4
 111 0002 87B0     		sub	sp, sp, #28
 112              		.cfi_def_cfa_offset 40
 113 0004 00AF     		add	r7, sp, #0
 114              		.cfi_def_cfa_register 7
 115 0006 0446     		mov	r4, r0
 116 0008 0846     		mov	r0, r1
 117 000a 1146     		mov	r1, r2
 118 000c 1A46     		mov	r2, r3
 119 000e 2346     		mov	r3, r4
 120 0010 FB71     		strb	r3, [r7, #7]
 121 0012 0346     		mov	r3, r0
 122 0014 BB71     		strb	r3, [r7, #6]
 123 0016 0B46     		mov	r3, r1
 124 0018 7B71     		strb	r3, [r7, #5]
 125 001a 1346     		mov	r3, r2
 126 001c 3B71     		strb	r3, [r7, #4]
  30:.\ComputerCommunication.c ****     CAN_MSG msg = {{instruction,module,HARDWARE_CAN_ID,byte3,byte4,byte5,byte6,byte7},{8},{0xFF}}; 
 127              		.loc 1 30 0
 128 001e FB79     		ldrb	r3, [r7, #7]
 129 0020 3B72     		strb	r3, [r7, #8]
 130 0022 BB79     		ldrb	r3, [r7, #6]
 131 0024 7B72     		strb	r3, [r7, #9]
 132 0026 7023     		movs	r3, #112
 133 0028 BB72     		strb	r3, [r7, #10]
 134 002a 7B79     		ldrb	r3, [r7, #5]
 135 002c FB72     		strb	r3, [r7, #11]
 136 002e 3B79     		ldrb	r3, [r7, #4]
 137 0030 3B73     		strb	r3, [r7, #12]
 138 0032 97F82830 		ldrb	r3, [r7, #40]
 139 0036 7B73     		strb	r3, [r7, #13]
 140 0038 97F82C30 		ldrb	r3, [r7, #44]
 141 003c BB73     		strb	r3, [r7, #14]
ARM GAS  C:\Users\Lois\AppData\Local\Temp\ccjnaYvE.s 			page 4


 142 003e 97F83030 		ldrb	r3, [r7, #48]
 143 0042 FB73     		strb	r3, [r7, #15]
 144 0044 0823     		movs	r3, #8
 145 0046 3B74     		strb	r3, [r7, #16]
 146 0048 FF23     		movs	r3, #255
 147 004a 7B61     		str	r3, [r7, #20]
  31:.\ComputerCommunication.c ****     sendMessage(&msg,0xF); 
 148              		.loc 1 31 0
 149 004c 07F10803 		add	r3, r7, #8
 150 0050 1846     		mov	r0, r3
 151 0052 0F21     		movs	r1, #15
 152 0054 FFF7FEFF 		bl	sendMessage
  32:.\ComputerCommunication.c **** }
 153              		.loc 1 32 0
 154 0058 1C37     		adds	r7, r7, #28
 155              		.cfi_def_cfa_offset 12
 156 005a BD46     		mov	sp, r7
 157              		.cfi_def_cfa_register 13
 158              		@ sp needed
 159 005c 90BD     		pop	{r4, r7, pc}
 160              		.cfi_endproc
 161              	.LFE57:
 162              		.size	sendDataToCAN, .-sendDataToCAN
 163 005e 00BF     		.section	.text.sendDataToCAN2,"ax",%progbits
 164              		.align	2
 165              		.global	sendDataToCAN2
 166              		.thumb
 167              		.thumb_func
 168              		.type	sendDataToCAN2, %function
 169              	sendDataToCAN2:
 170              	.LFB58:
  33:.\ComputerCommunication.c **** 
  34:.\ComputerCommunication.c **** void sendDataToCAN2(uint8 instruction, uint8 byte1, uint8 byte2, uint8 byte3, uint8 byte4, uint8 by
  35:.\ComputerCommunication.c **** {
 171              		.loc 1 35 0
 172              		.cfi_startproc
 173              		@ args = 16, pretend = 0, frame = 24
 174              		@ frame_needed = 1, uses_anonymous_args = 0
 175 0000 90B5     		push	{r4, r7, lr}
 176              		.cfi_def_cfa_offset 12
 177              		.cfi_offset 4, -12
 178              		.cfi_offset 7, -8
 179              		.cfi_offset 14, -4
 180 0002 87B0     		sub	sp, sp, #28
 181              		.cfi_def_cfa_offset 40
 182 0004 00AF     		add	r7, sp, #0
 183              		.cfi_def_cfa_register 7
 184 0006 0446     		mov	r4, r0
 185 0008 0846     		mov	r0, r1
 186 000a 1146     		mov	r1, r2
 187 000c 1A46     		mov	r2, r3
 188 000e 2346     		mov	r3, r4
 189 0010 FB71     		strb	r3, [r7, #7]
 190 0012 0346     		mov	r3, r0
 191 0014 BB71     		strb	r3, [r7, #6]
 192 0016 0B46     		mov	r3, r1
 193 0018 7B71     		strb	r3, [r7, #5]
ARM GAS  C:\Users\Lois\AppData\Local\Temp\ccjnaYvE.s 			page 5


 194 001a 1346     		mov	r3, r2
 195 001c 3B71     		strb	r3, [r7, #4]
  36:.\ComputerCommunication.c ****     CAN_MSG msg = {{  instruction,
 196              		.loc 1 36 0
 197 001e FB79     		ldrb	r3, [r7, #7]
 198 0020 3B72     		strb	r3, [r7, #8]
 199 0022 BB79     		ldrb	r3, [r7, #6]
 200 0024 7B72     		strb	r3, [r7, #9]
 201 0026 7B79     		ldrb	r3, [r7, #5]
 202 0028 BB72     		strb	r3, [r7, #10]
 203 002a 3B79     		ldrb	r3, [r7, #4]
 204 002c FB72     		strb	r3, [r7, #11]
 205 002e 97F82830 		ldrb	r3, [r7, #40]
 206 0032 3B73     		strb	r3, [r7, #12]
 207 0034 97F82C30 		ldrb	r3, [r7, #44]
 208 0038 7B73     		strb	r3, [r7, #13]
 209 003a 97F83030 		ldrb	r3, [r7, #48]
 210 003e BB73     		strb	r3, [r7, #14]
 211 0040 97F83430 		ldrb	r3, [r7, #52]
 212 0044 FB73     		strb	r3, [r7, #15]
 213 0046 0823     		movs	r3, #8
 214 0048 3B74     		strb	r3, [r7, #16]
 215 004a FF23     		movs	r3, #255
 216 004c 7B61     		str	r3, [r7, #20]
  37:.\ComputerCommunication.c ****                       byte1,byte2,byte3,byte4,byte5,byte6,byte7},
  38:.\ComputerCommunication.c ****                       {8},{0xFF}}; // Sets the first bytes of the message.
  39:.\ComputerCommunication.c **** 
  40:.\ComputerCommunication.c ****     sendMessage(&msg,0xFF);  
 217              		.loc 1 40 0
 218 004e 07F10803 		add	r3, r7, #8
 219 0052 1846     		mov	r0, r3
 220 0054 FF21     		movs	r1, #255
 221 0056 FFF7FEFF 		bl	sendMessage
  41:.\ComputerCommunication.c **** }
 222              		.loc 1 41 0
 223 005a 1C37     		adds	r7, r7, #28
 224              		.cfi_def_cfa_offset 12
 225 005c BD46     		mov	sp, r7
 226              		.cfi_def_cfa_register 13
 227              		@ sp needed
 228 005e 90BD     		pop	{r4, r7, pc}
 229              		.cfi_endproc
 230              	.LFE58:
 231              		.size	sendDataToCAN2, .-sendDataToCAN2
 232              		.section	.text.sendFloatToCAN,"ax",%progbits
 233              		.align	2
 234              		.global	sendFloatToCAN
 235              		.thumb
 236              		.thumb_func
 237              		.type	sendFloatToCAN, %function
 238              	sendFloatToCAN:
 239              	.LFB59:
  42:.\ComputerCommunication.c **** 
  43:.\ComputerCommunication.c **** void sendFloatToCAN(uint8 instruction, uint8 module, float *datafloat)
  44:.\ComputerCommunication.c **** {
 240              		.loc 1 44 0
 241              		.cfi_startproc
ARM GAS  C:\Users\Lois\AppData\Local\Temp\ccjnaYvE.s 			page 6


 242              		@ args = 0, pretend = 0, frame = 32
 243              		@ frame_needed = 1, uses_anonymous_args = 0
 244 0000 80B5     		push	{r7, lr}
 245              		.cfi_def_cfa_offset 8
 246              		.cfi_offset 7, -8
 247              		.cfi_offset 14, -4
 248 0002 88B0     		sub	sp, sp, #32
 249              		.cfi_def_cfa_offset 40
 250 0004 00AF     		add	r7, sp, #0
 251              		.cfi_def_cfa_register 7
 252 0006 0346     		mov	r3, r0
 253 0008 3A60     		str	r2, [r7]
 254 000a FB71     		strb	r3, [r7, #7]
 255 000c 0B46     		mov	r3, r1
 256 000e BB71     		strb	r3, [r7, #6]
  45:.\ComputerCommunication.c ****     CAN_MSG msgToSendBack = {{instruction,module,HARDWARE_CAN_ID,0,0,0,0},{8},{0xFF}}; // Sets the 
 257              		.loc 1 45 0
 258 0010 07F11003 		add	r3, r7, #16
 259 0014 0022     		movs	r2, #0
 260 0016 1A60     		str	r2, [r3]
 261 0018 0433     		adds	r3, r3, #4
 262 001a 0022     		movs	r2, #0
 263 001c 1A60     		str	r2, [r3]
 264 001e 0433     		adds	r3, r3, #4
 265 0020 0022     		movs	r2, #0
 266 0022 1A60     		str	r2, [r3]
 267 0024 0433     		adds	r3, r3, #4
 268 0026 0022     		movs	r2, #0
 269 0028 1A60     		str	r2, [r3]
 270 002a 0433     		adds	r3, r3, #4
 271 002c FB79     		ldrb	r3, [r7, #7]
 272 002e 3B74     		strb	r3, [r7, #16]
 273 0030 BB79     		ldrb	r3, [r7, #6]
 274 0032 7B74     		strb	r3, [r7, #17]
 275 0034 7023     		movs	r3, #112
 276 0036 BB74     		strb	r3, [r7, #18]
 277 0038 0823     		movs	r3, #8
 278 003a 3B76     		strb	r3, [r7, #24]
 279 003c FF23     		movs	r3, #255
 280 003e FB61     		str	r3, [r7, #28]
  46:.\ComputerCommunication.c **** 
  47:.\ComputerCommunication.c **** 	uint8 d[4];
  48:.\ComputerCommunication.c ****     memcpy(d, datafloat, 4);
 281              		.loc 1 48 0
 282 0040 07F10C03 		add	r3, r7, #12
 283 0044 1846     		mov	r0, r3
 284 0046 3968     		ldr	r1, [r7]
 285 0048 0422     		movs	r2, #4
 286 004a FFF7FEFF 		bl	memcpy
  49:.\ComputerCommunication.c **** 	
  50:.\ComputerCommunication.c ****     msgToSendBack.msgBytes.byte[4] = d[0];
 287              		.loc 1 50 0
 288 004e 3B7B     		ldrb	r3, [r7, #12]	@ zero_extendqisi2
 289 0050 3B75     		strb	r3, [r7, #20]
  51:.\ComputerCommunication.c ****     msgToSendBack.msgBytes.byte[5] = d[1];
 290              		.loc 1 51 0
 291 0052 7B7B     		ldrb	r3, [r7, #13]	@ zero_extendqisi2
ARM GAS  C:\Users\Lois\AppData\Local\Temp\ccjnaYvE.s 			page 7


 292 0054 7B75     		strb	r3, [r7, #21]
  52:.\ComputerCommunication.c ****     msgToSendBack.msgBytes.byte[6] = d[2];
 293              		.loc 1 52 0
 294 0056 BB7B     		ldrb	r3, [r7, #14]	@ zero_extendqisi2
 295 0058 BB75     		strb	r3, [r7, #22]
  53:.\ComputerCommunication.c ****     msgToSendBack.msgBytes.byte[7] = d[3];
 296              		.loc 1 53 0
 297 005a FB7B     		ldrb	r3, [r7, #15]	@ zero_extendqisi2
 298 005c FB75     		strb	r3, [r7, #23]
  54:.\ComputerCommunication.c ****     sendMessage(&msgToSendBack,0xFF); 
 299              		.loc 1 54 0
 300 005e 07F11003 		add	r3, r7, #16
 301 0062 1846     		mov	r0, r3
 302 0064 FF21     		movs	r1, #255
 303 0066 FFF7FEFF 		bl	sendMessage
  55:.\ComputerCommunication.c **** }
 304              		.loc 1 55 0
 305 006a 2037     		adds	r7, r7, #32
 306              		.cfi_def_cfa_offset 8
 307 006c BD46     		mov	sp, r7
 308              		.cfi_def_cfa_register 13
 309              		@ sp needed
 310 006e 80BD     		pop	{r7, pc}
 311              		.cfi_endproc
 312              	.LFE59:
 313              		.size	sendFloatToCAN, .-sendFloatToCAN
 314              		.text
 315              	.Letext0:
 316              		.file 2 "c:\\program files (x86)\\cypress\\psoc creator\\3.3\\psoc creator\\import\\gnu\\arm\\4.9.
 317              		.file 3 "c:\\program files (x86)\\cypress\\psoc creator\\3.3\\psoc creator\\import\\gnu\\arm\\4.9.
 318              		.file 4 "Generated_Source\\PSoC5/cytypes.h"
 319              		.file 5 "Generated_Source\\PSoC5/CAN_1.h"
 320              		.file 6 ".\\CAN_Communication.h"
 321              		.file 7 "Generated_Source\\PSoC5/core_cm3.h"