ARM GAS  C:\Users\Lois\AppData\Local\Temp\ccmucEQ9.s 			page 1


   1              		.syntax unified
   2              		.cpu cortex-m3
   3              		.fpu softvfp
   4              		.eabi_attribute 20, 1
   5              		.eabi_attribute 21, 1
   6              		.eabi_attribute 23, 3
   7              		.eabi_attribute 24, 1
   8              		.eabi_attribute 25, 1
   9              		.eabi_attribute 26, 1
  10              		.eabi_attribute 30, 6
  11              		.eabi_attribute 34, 1
  12              		.eabi_attribute 18, 4
  13              		.thumb
  14              		.file	"cyfitter_cfg.c"
  15              		.text
  16              	.Ltext0:
  17              		.cfi_sections	.debug_frame
  18              		.section	.text.CYMEMZERO,"ax",%progbits
  19              		.align	2
  20              		.thumb
  21              		.thumb_func
  22              		.type	CYMEMZERO, %function
  23              	CYMEMZERO:
  24              	.LFB0:
  25              		.file 1 ".\\Generated_Source\\PSoC5\\cyfitter_cfg.c"
   1:.\Generated_Source\PSoC5/cyfitter_cfg.c **** /*******************************************************************************
   2:.\Generated_Source\PSoC5/cyfitter_cfg.c **** * File Name: cyfitter_cfg.c
   3:.\Generated_Source\PSoC5/cyfitter_cfg.c **** * 
   4:.\Generated_Source\PSoC5/cyfitter_cfg.c **** * PSoC Creator  3.3 CP1
   5:.\Generated_Source\PSoC5/cyfitter_cfg.c **** *
   6:.\Generated_Source\PSoC5/cyfitter_cfg.c **** * Description:
   7:.\Generated_Source\PSoC5/cyfitter_cfg.c **** * This file contains device initialization code.
   8:.\Generated_Source\PSoC5/cyfitter_cfg.c **** * Except for the user defined sections in CyClockStartupError(), this file should not be modified.
   9:.\Generated_Source\PSoC5/cyfitter_cfg.c **** * This file is automatically generated by PSoC Creator.
  10:.\Generated_Source\PSoC5/cyfitter_cfg.c **** *
  11:.\Generated_Source\PSoC5/cyfitter_cfg.c **** ********************************************************************************
  12:.\Generated_Source\PSoC5/cyfitter_cfg.c **** * Copyright (c) 2007-2015 Cypress Semiconductor.  All rights reserved.
  13:.\Generated_Source\PSoC5/cyfitter_cfg.c **** * You may use this file only in accordance with the license, terms, conditions, 
  14:.\Generated_Source\PSoC5/cyfitter_cfg.c **** * disclaimers, and limitations in the end user license agreement accompanying 
  15:.\Generated_Source\PSoC5/cyfitter_cfg.c **** * the software package with which this file was provided.
  16:.\Generated_Source\PSoC5/cyfitter_cfg.c **** ********************************************************************************/
  17:.\Generated_Source\PSoC5/cyfitter_cfg.c **** 
  18:.\Generated_Source\PSoC5/cyfitter_cfg.c **** #include <string.h>
  19:.\Generated_Source\PSoC5/cyfitter_cfg.c **** #include "cytypes.h"
  20:.\Generated_Source\PSoC5/cyfitter_cfg.c **** #include "cydevice_trm.h"
  21:.\Generated_Source\PSoC5/cyfitter_cfg.c **** #include "cyfitter.h"
  22:.\Generated_Source\PSoC5/cyfitter_cfg.c **** #include "CyLib.h"
  23:.\Generated_Source\PSoC5/cyfitter_cfg.c **** #include "cyfitter_cfg.h"
  24:.\Generated_Source\PSoC5/cyfitter_cfg.c **** 
  25:.\Generated_Source\PSoC5/cyfitter_cfg.c **** 
  26:.\Generated_Source\PSoC5/cyfitter_cfg.c **** #if defined(__GNUC__) || defined(__ARMCC_VERSION)
  27:.\Generated_Source\PSoC5/cyfitter_cfg.c ****     #define CYPACKED 
  28:.\Generated_Source\PSoC5/cyfitter_cfg.c ****     #define CYPACKED_ATTR __attribute__ ((packed))
  29:.\Generated_Source\PSoC5/cyfitter_cfg.c ****     #define CYALIGNED __attribute__ ((aligned))
  30:.\Generated_Source\PSoC5/cyfitter_cfg.c ****     #define CY_CFG_UNUSED __attribute__ ((unused))
  31:.\Generated_Source\PSoC5/cyfitter_cfg.c ****     #define CY_CFG_SECTION __attribute__ ((section(".psocinit")))
  32:.\Generated_Source\PSoC5/cyfitter_cfg.c ****     
ARM GAS  C:\Users\Lois\AppData\Local\Temp\ccmucEQ9.s 			page 2


  33:.\Generated_Source\PSoC5/cyfitter_cfg.c ****     #if defined(__ARMCC_VERSION)
  34:.\Generated_Source\PSoC5/cyfitter_cfg.c ****         #define CY_CFG_MEMORY_BARRIER() __memory_changed()
  35:.\Generated_Source\PSoC5/cyfitter_cfg.c ****     #else
  36:.\Generated_Source\PSoC5/cyfitter_cfg.c ****         #define CY_CFG_MEMORY_BARRIER() __sync_synchronize()
  37:.\Generated_Source\PSoC5/cyfitter_cfg.c ****     #endif
  38:.\Generated_Source\PSoC5/cyfitter_cfg.c ****     
  39:.\Generated_Source\PSoC5/cyfitter_cfg.c **** #elif defined(__ICCARM__)
  40:.\Generated_Source\PSoC5/cyfitter_cfg.c ****     #include <intrinsics.h>
  41:.\Generated_Source\PSoC5/cyfitter_cfg.c **** 
  42:.\Generated_Source\PSoC5/cyfitter_cfg.c ****     #define CYPACKED __packed
  43:.\Generated_Source\PSoC5/cyfitter_cfg.c ****     #define CYPACKED_ATTR 
  44:.\Generated_Source\PSoC5/cyfitter_cfg.c ****     #define CYALIGNED _Pragma("data_alignment=4")
  45:.\Generated_Source\PSoC5/cyfitter_cfg.c ****     #define CY_CFG_UNUSED _Pragma("diag_suppress=Pe177")
  46:.\Generated_Source\PSoC5/cyfitter_cfg.c ****     #define CY_CFG_SECTION _Pragma("location=\".psocinit\"")
  47:.\Generated_Source\PSoC5/cyfitter_cfg.c ****     
  48:.\Generated_Source\PSoC5/cyfitter_cfg.c ****     #define CY_CFG_MEMORY_BARRIER() __DMB()
  49:.\Generated_Source\PSoC5/cyfitter_cfg.c ****     
  50:.\Generated_Source\PSoC5/cyfitter_cfg.c **** #else
  51:.\Generated_Source\PSoC5/cyfitter_cfg.c ****     #error Unsupported toolchain
  52:.\Generated_Source\PSoC5/cyfitter_cfg.c **** #endif
  53:.\Generated_Source\PSoC5/cyfitter_cfg.c **** 
  54:.\Generated_Source\PSoC5/cyfitter_cfg.c **** 
  55:.\Generated_Source\PSoC5/cyfitter_cfg.c **** CY_CFG_UNUSED
  56:.\Generated_Source\PSoC5/cyfitter_cfg.c **** static void CYMEMZERO(void *s, size_t n);
  57:.\Generated_Source\PSoC5/cyfitter_cfg.c **** CY_CFG_UNUSED
  58:.\Generated_Source\PSoC5/cyfitter_cfg.c **** static void CYMEMZERO(void *s, size_t n)
  59:.\Generated_Source\PSoC5/cyfitter_cfg.c **** {
  26              		.loc 1 59 0
  27              		.cfi_startproc
  28              		@ args = 0, pretend = 0, frame = 8
  29              		@ frame_needed = 1, uses_anonymous_args = 0
  30 0000 80B5     		push	{r7, lr}
  31              		.cfi_def_cfa_offset 8
  32              		.cfi_offset 7, -8
  33              		.cfi_offset 14, -4
  34 0002 82B0     		sub	sp, sp, #8
  35              		.cfi_def_cfa_offset 16
  36 0004 00AF     		add	r7, sp, #0
  37              		.cfi_def_cfa_register 7
  38 0006 7860     		str	r0, [r7, #4]
  39 0008 3960     		str	r1, [r7]
  60:.\Generated_Source\PSoC5/cyfitter_cfg.c **** 	(void)memset(s, 0, n);
  40              		.loc 1 60 0
  41 000a 7868     		ldr	r0, [r7, #4]
  42 000c 0021     		movs	r1, #0
  43 000e 3A68     		ldr	r2, [r7]
  44 0010 FFF7FEFF 		bl	memset
  61:.\Generated_Source\PSoC5/cyfitter_cfg.c **** }
  45              		.loc 1 61 0
  46 0014 0837     		adds	r7, r7, #8
  47              		.cfi_def_cfa_offset 8
  48 0016 BD46     		mov	sp, r7
  49              		.cfi_def_cfa_register 13
  50              		@ sp needed
  51 0018 80BD     		pop	{r7, pc}
  52              		.cfi_endproc
  53              	.LFE0:
ARM GAS  C:\Users\Lois\AppData\Local\Temp\ccmucEQ9.s 			page 3


  54              		.size	CYMEMZERO, .-CYMEMZERO
  55 001a 00BF     		.section	.text.CYCONFIGCPY,"ax",%progbits
  56              		.align	2
  57              		.thumb
  58              		.thumb_func
  59              		.type	CYCONFIGCPY, %function
  60              	CYCONFIGCPY:
  61              	.LFB1:
  62:.\Generated_Source\PSoC5/cyfitter_cfg.c **** CY_CFG_UNUSED
  63:.\Generated_Source\PSoC5/cyfitter_cfg.c **** static void CYCONFIGCPY(void *dest, const void *src, size_t n);
  64:.\Generated_Source\PSoC5/cyfitter_cfg.c **** CY_CFG_UNUSED
  65:.\Generated_Source\PSoC5/cyfitter_cfg.c **** static void CYCONFIGCPY(void *dest, const void *src, size_t n)
  66:.\Generated_Source\PSoC5/cyfitter_cfg.c **** {
  62              		.loc 1 66 0
  63              		.cfi_startproc
  64              		@ args = 0, pretend = 0, frame = 16
  65              		@ frame_needed = 1, uses_anonymous_args = 0
  66 0000 80B5     		push	{r7, lr}
  67              		.cfi_def_cfa_offset 8
  68              		.cfi_offset 7, -8
  69              		.cfi_offset 14, -4
  70 0002 84B0     		sub	sp, sp, #16
  71              		.cfi_def_cfa_offset 24
  72 0004 00AF     		add	r7, sp, #0
  73              		.cfi_def_cfa_register 7
  74 0006 F860     		str	r0, [r7, #12]
  75 0008 B960     		str	r1, [r7, #8]
  76 000a 7A60     		str	r2, [r7, #4]
  67:.\Generated_Source\PSoC5/cyfitter_cfg.c **** 	(void)memcpy(dest, src, n);
  77              		.loc 1 67 0
  78 000c F868     		ldr	r0, [r7, #12]
  79 000e B968     		ldr	r1, [r7, #8]
  80 0010 7A68     		ldr	r2, [r7, #4]
  81 0012 FFF7FEFF 		bl	memcpy
  68:.\Generated_Source\PSoC5/cyfitter_cfg.c **** }
  82              		.loc 1 68 0
  83 0016 1037     		adds	r7, r7, #16
  84              		.cfi_def_cfa_offset 8
  85 0018 BD46     		mov	sp, r7
  86              		.cfi_def_cfa_register 13
  87              		@ sp needed
  88 001a 80BD     		pop	{r7, pc}
  89              		.cfi_endproc
  90              	.LFE1:
  91              		.size	CYCONFIGCPY, .-CYCONFIGCPY
  92              		.section	.text.CYCONFIGCPYCODE,"ax",%progbits
  93              		.align	2
  94              		.thumb
  95              		.thumb_func
  96              		.type	CYCONFIGCPYCODE, %function
  97              	CYCONFIGCPYCODE:
  98              	.LFB2:
  69:.\Generated_Source\PSoC5/cyfitter_cfg.c **** CY_CFG_UNUSED
  70:.\Generated_Source\PSoC5/cyfitter_cfg.c **** static void CYCONFIGCPYCODE(void *dest, const void *src, size_t n);
  71:.\Generated_Source\PSoC5/cyfitter_cfg.c **** CY_CFG_UNUSED
  72:.\Generated_Source\PSoC5/cyfitter_cfg.c **** static void CYCONFIGCPYCODE(void *dest, const void *src, size_t n)
  73:.\Generated_Source\PSoC5/cyfitter_cfg.c **** {
ARM GAS  C:\Users\Lois\AppData\Local\Temp\ccmucEQ9.s 			page 4


  99              		.loc 1 73 0
 100              		.cfi_startproc
 101              		@ args = 0, pretend = 0, frame = 16
 102              		@ frame_needed = 1, uses_anonymous_args = 0
 103 0000 80B5     		push	{r7, lr}
 104              		.cfi_def_cfa_offset 8
 105              		.cfi_offset 7, -8
 106              		.cfi_offset 14, -4
 107 0002 84B0     		sub	sp, sp, #16
 108              		.cfi_def_cfa_offset 24
 109 0004 00AF     		add	r7, sp, #0
 110              		.cfi_def_cfa_register 7
 111 0006 F860     		str	r0, [r7, #12]
 112 0008 B960     		str	r1, [r7, #8]
 113 000a 7A60     		str	r2, [r7, #4]
  74:.\Generated_Source\PSoC5/cyfitter_cfg.c **** 	(void)memcpy(dest, src, n);
 114              		.loc 1 74 0
 115 000c F868     		ldr	r0, [r7, #12]
 116 000e B968     		ldr	r1, [r7, #8]
 117 0010 7A68     		ldr	r2, [r7, #4]
 118 0012 FFF7FEFF 		bl	memcpy
  75:.\Generated_Source\PSoC5/cyfitter_cfg.c **** }
 119              		.loc 1 75 0
 120 0016 1037     		adds	r7, r7, #16
 121              		.cfi_def_cfa_offset 8
 122 0018 BD46     		mov	sp, r7
 123              		.cfi_def_cfa_register 13
 124              		@ sp needed
 125 001a 80BD     		pop	{r7, pc}
 126              		.cfi_endproc
 127              	.LFE2:
 128              		.size	CYCONFIGCPYCODE, .-CYCONFIGCPYCODE
 129              		.section	.text.cfg_write_bytes32,"ax",%progbits
 130              		.align	2
 131              		.thumb
 132              		.thumb_func
 133              		.type	cfg_write_bytes32, %function
 134              	cfg_write_bytes32:
 135              	.LFB3:
  76:.\Generated_Source\PSoC5/cyfitter_cfg.c **** 
  77:.\Generated_Source\PSoC5/cyfitter_cfg.c **** 
  78:.\Generated_Source\PSoC5/cyfitter_cfg.c **** 
  79:.\Generated_Source\PSoC5/cyfitter_cfg.c **** /* Clock startup error codes                                                   */
  80:.\Generated_Source\PSoC5/cyfitter_cfg.c **** #define CYCLOCKSTART_NO_ERROR    0u
  81:.\Generated_Source\PSoC5/cyfitter_cfg.c **** #define CYCLOCKSTART_XTAL_ERROR  1u
  82:.\Generated_Source\PSoC5/cyfitter_cfg.c **** #define CYCLOCKSTART_32KHZ_ERROR 2u
  83:.\Generated_Source\PSoC5/cyfitter_cfg.c **** #define CYCLOCKSTART_PLL_ERROR   3u
  84:.\Generated_Source\PSoC5/cyfitter_cfg.c **** 
  85:.\Generated_Source\PSoC5/cyfitter_cfg.c **** #ifdef CY_NEED_CYCLOCKSTARTUPERROR
  86:.\Generated_Source\PSoC5/cyfitter_cfg.c **** /*******************************************************************************
  87:.\Generated_Source\PSoC5/cyfitter_cfg.c **** * Function Name: CyClockStartupError
  88:.\Generated_Source\PSoC5/cyfitter_cfg.c **** ********************************************************************************
  89:.\Generated_Source\PSoC5/cyfitter_cfg.c **** * Summary:
  90:.\Generated_Source\PSoC5/cyfitter_cfg.c **** *  If an error is encountered during clock configuration (crystal startup error,
  91:.\Generated_Source\PSoC5/cyfitter_cfg.c **** *  PLL lock error, etc.), the system will end up here.  Unless reimplemented by
  92:.\Generated_Source\PSoC5/cyfitter_cfg.c **** *  the customer, this function will stop in an infinite loop.
  93:.\Generated_Source\PSoC5/cyfitter_cfg.c **** *
ARM GAS  C:\Users\Lois\AppData\Local\Temp\ccmucEQ9.s 			page 5


  94:.\Generated_Source\PSoC5/cyfitter_cfg.c **** * Parameters:
  95:.\Generated_Source\PSoC5/cyfitter_cfg.c **** *   void
  96:.\Generated_Source\PSoC5/cyfitter_cfg.c **** *
  97:.\Generated_Source\PSoC5/cyfitter_cfg.c **** * Return:
  98:.\Generated_Source\PSoC5/cyfitter_cfg.c **** *   void
  99:.\Generated_Source\PSoC5/cyfitter_cfg.c **** *
 100:.\Generated_Source\PSoC5/cyfitter_cfg.c **** *******************************************************************************/
 101:.\Generated_Source\PSoC5/cyfitter_cfg.c **** CY_CFG_UNUSED
 102:.\Generated_Source\PSoC5/cyfitter_cfg.c **** static void CyClockStartupError(uint8 errorCode);
 103:.\Generated_Source\PSoC5/cyfitter_cfg.c **** CY_CFG_UNUSED
 104:.\Generated_Source\PSoC5/cyfitter_cfg.c **** static void CyClockStartupError(uint8 errorCode)
 105:.\Generated_Source\PSoC5/cyfitter_cfg.c **** {
 106:.\Generated_Source\PSoC5/cyfitter_cfg.c ****     /* To remove the compiler warning if errorCode not used.                */
 107:.\Generated_Source\PSoC5/cyfitter_cfg.c ****     errorCode = errorCode;
 108:.\Generated_Source\PSoC5/cyfitter_cfg.c **** 
 109:.\Generated_Source\PSoC5/cyfitter_cfg.c ****     /* `#START CyClockStartupError` */
 110:.\Generated_Source\PSoC5/cyfitter_cfg.c **** 
 111:.\Generated_Source\PSoC5/cyfitter_cfg.c ****     /* If we have a clock startup error (bad MHz crystal, PLL lock, etc.),  */
 112:.\Generated_Source\PSoC5/cyfitter_cfg.c ****     /* we will end up here to allow the customer to implement something to  */
 113:.\Generated_Source\PSoC5/cyfitter_cfg.c ****     /* deal with the clock condition.                                       */
 114:.\Generated_Source\PSoC5/cyfitter_cfg.c **** 
 115:.\Generated_Source\PSoC5/cyfitter_cfg.c ****     /* `#END` */
 116:.\Generated_Source\PSoC5/cyfitter_cfg.c **** 
 117:.\Generated_Source\PSoC5/cyfitter_cfg.c ****     /* If nothing else, stop here since the clocks have not started         */
 118:.\Generated_Source\PSoC5/cyfitter_cfg.c ****     /* correctly.                                                           */
 119:.\Generated_Source\PSoC5/cyfitter_cfg.c ****     while(1) {}
 120:.\Generated_Source\PSoC5/cyfitter_cfg.c **** }
 121:.\Generated_Source\PSoC5/cyfitter_cfg.c **** #endif
 122:.\Generated_Source\PSoC5/cyfitter_cfg.c **** 
 123:.\Generated_Source\PSoC5/cyfitter_cfg.c **** #define CY_CFG_BASE_ADDR_COUNT 35u
 124:.\Generated_Source\PSoC5/cyfitter_cfg.c **** CYPACKED typedef struct
 125:.\Generated_Source\PSoC5/cyfitter_cfg.c **** {
 126:.\Generated_Source\PSoC5/cyfitter_cfg.c **** 	uint8 offset;
 127:.\Generated_Source\PSoC5/cyfitter_cfg.c **** 	uint8 value;
 128:.\Generated_Source\PSoC5/cyfitter_cfg.c **** } CYPACKED_ATTR cy_cfg_addrvalue_t;
 129:.\Generated_Source\PSoC5/cyfitter_cfg.c **** 
 130:.\Generated_Source\PSoC5/cyfitter_cfg.c **** #define cy_cfg_addr_table ((const uint32 CYFAR *)0x48000000u)
 131:.\Generated_Source\PSoC5/cyfitter_cfg.c **** #define cy_cfg_data_table ((const cy_cfg_addrvalue_t CYFAR *)0x4800008Cu)
 132:.\Generated_Source\PSoC5/cyfitter_cfg.c **** 
 133:.\Generated_Source\PSoC5/cyfitter_cfg.c **** /* IOPINS0_0 Address: CYREG_PRT0_DM0 Size (bytes): 8 */
 134:.\Generated_Source\PSoC5/cyfitter_cfg.c **** #define BS_IOPINS0_0_VAL ((const uint8 CYFAR *)0x480006ACu)
 135:.\Generated_Source\PSoC5/cyfitter_cfg.c **** 
 136:.\Generated_Source\PSoC5/cyfitter_cfg.c **** /* IOPINS0_7 Address: CYREG_PRT12_DM0 Size (bytes): 8 */
 137:.\Generated_Source\PSoC5/cyfitter_cfg.c **** #define BS_IOPINS0_7_VAL ((const uint8 CYFAR *)0x480006B4u)
 138:.\Generated_Source\PSoC5/cyfitter_cfg.c **** 
 139:.\Generated_Source\PSoC5/cyfitter_cfg.c **** /* IOPINS0_8 Address: CYREG_PRT15_DR Size (bytes): 10 */
 140:.\Generated_Source\PSoC5/cyfitter_cfg.c **** #define BS_IOPINS0_8_VAL ((const uint8 CYFAR *)0x480006BCu)
 141:.\Generated_Source\PSoC5/cyfitter_cfg.c **** 
 142:.\Generated_Source\PSoC5/cyfitter_cfg.c **** /* IOPINS0_1 Address: CYREG_PRT1_DR Size (bytes): 10 */
 143:.\Generated_Source\PSoC5/cyfitter_cfg.c **** #define BS_IOPINS0_1_VAL ((const uint8 CYFAR *)0x480006C8u)
 144:.\Generated_Source\PSoC5/cyfitter_cfg.c **** 
 145:.\Generated_Source\PSoC5/cyfitter_cfg.c **** /* IOPINS0_3 Address: CYREG_PRT3_DM0 Size (bytes): 8 */
 146:.\Generated_Source\PSoC5/cyfitter_cfg.c **** #define BS_IOPINS0_3_VAL ((const uint8 CYFAR *)0x480006D4u)
 147:.\Generated_Source\PSoC5/cyfitter_cfg.c **** 
 148:.\Generated_Source\PSoC5/cyfitter_cfg.c **** /* IOPINS0_4 Address: CYREG_PRT4_DM0 Size (bytes): 8 */
 149:.\Generated_Source\PSoC5/cyfitter_cfg.c **** #define BS_IOPINS0_4_VAL ((const uint8 CYFAR *)0x480006DCu)
 150:.\Generated_Source\PSoC5/cyfitter_cfg.c **** 
ARM GAS  C:\Users\Lois\AppData\Local\Temp\ccmucEQ9.s 			page 6


 151:.\Generated_Source\PSoC5/cyfitter_cfg.c **** /* IOPINS0_6 Address: CYREG_PRT6_DM0 Size (bytes): 8 */
 152:.\Generated_Source\PSoC5/cyfitter_cfg.c **** #define BS_IOPINS0_6_VAL ((const uint8 CYFAR *)0x480006E4u)
 153:.\Generated_Source\PSoC5/cyfitter_cfg.c **** 
 154:.\Generated_Source\PSoC5/cyfitter_cfg.c **** /* CYDEV_CLKDIST_ACFG0_CFG0 Address: CYREG_CLKDIST_ACFG0_CFG0 Size (bytes): 4 */
 155:.\Generated_Source\PSoC5/cyfitter_cfg.c **** #define BS_CYDEV_CLKDIST_ACFG0_CFG0_VAL ((const uint8 CYFAR *)0x480006ECu)
 156:.\Generated_Source\PSoC5/cyfitter_cfg.c **** 
 157:.\Generated_Source\PSoC5/cyfitter_cfg.c **** 
 158:.\Generated_Source\PSoC5/cyfitter_cfg.c **** /*******************************************************************************
 159:.\Generated_Source\PSoC5/cyfitter_cfg.c **** * Function Name: cfg_write_bytes32
 160:.\Generated_Source\PSoC5/cyfitter_cfg.c **** ********************************************************************************
 161:.\Generated_Source\PSoC5/cyfitter_cfg.c **** * Summary:
 162:.\Generated_Source\PSoC5/cyfitter_cfg.c **** *  This function is used for setting up the chip configuration areas that
 163:.\Generated_Source\PSoC5/cyfitter_cfg.c **** *  contain relatively sparse data.
 164:.\Generated_Source\PSoC5/cyfitter_cfg.c **** *
 165:.\Generated_Source\PSoC5/cyfitter_cfg.c **** * Parameters:
 166:.\Generated_Source\PSoC5/cyfitter_cfg.c **** *   void
 167:.\Generated_Source\PSoC5/cyfitter_cfg.c **** *
 168:.\Generated_Source\PSoC5/cyfitter_cfg.c **** * Return:
 169:.\Generated_Source\PSoC5/cyfitter_cfg.c **** *   void
 170:.\Generated_Source\PSoC5/cyfitter_cfg.c **** *
 171:.\Generated_Source\PSoC5/cyfitter_cfg.c **** *******************************************************************************/
 172:.\Generated_Source\PSoC5/cyfitter_cfg.c **** static void cfg_write_bytes32(const uint32 addr_table[], const cy_cfg_addrvalue_t data_table[]);
 173:.\Generated_Source\PSoC5/cyfitter_cfg.c **** static void cfg_write_bytes32(const uint32 addr_table[], const cy_cfg_addrvalue_t data_table[])
 174:.\Generated_Source\PSoC5/cyfitter_cfg.c **** {
 136              		.loc 1 174 0
 137              		.cfi_startproc
 138              		@ args = 0, pretend = 0, frame = 24
 139              		@ frame_needed = 1, uses_anonymous_args = 0
 140              		@ link register save eliminated.
 141 0000 80B4     		push	{r7}
 142              		.cfi_def_cfa_offset 4
 143              		.cfi_offset 7, -4
 144 0002 87B0     		sub	sp, sp, #28
 145              		.cfi_def_cfa_offset 32
 146 0004 00AF     		add	r7, sp, #0
 147              		.cfi_def_cfa_register 7
 148 0006 7860     		str	r0, [r7, #4]
 149 0008 3960     		str	r1, [r7]
 175:.\Generated_Source\PSoC5/cyfitter_cfg.c **** 	/* For 32-bit little-endian architectures */
 176:.\Generated_Source\PSoC5/cyfitter_cfg.c **** 	uint32 i, j = 0u;
 150              		.loc 1 176 0
 151 000a 0023     		movs	r3, #0
 152 000c 3B61     		str	r3, [r7, #16]
 177:.\Generated_Source\PSoC5/cyfitter_cfg.c **** 	for (i = 0u; i < CY_CFG_BASE_ADDR_COUNT; i++)
 153              		.loc 1 177 0
 154 000e 0023     		movs	r3, #0
 155 0010 7B61     		str	r3, [r7, #20]
 156 0012 27E0     		b	.L5
 157              	.L8:
 158              	.LBB2:
 178:.\Generated_Source\PSoC5/cyfitter_cfg.c **** 	{
 179:.\Generated_Source\PSoC5/cyfitter_cfg.c **** 		uint32 baseAddr = addr_table[i];
 159              		.loc 1 179 0
 160 0014 7B69     		ldr	r3, [r7, #20]
 161 0016 9B00     		lsls	r3, r3, #2
 162 0018 7A68     		ldr	r2, [r7, #4]
 163 001a 1344     		add	r3, r3, r2
ARM GAS  C:\Users\Lois\AppData\Local\Temp\ccmucEQ9.s 			page 7


 164 001c 1B68     		ldr	r3, [r3]
 165 001e BB60     		str	r3, [r7, #8]
 180:.\Generated_Source\PSoC5/cyfitter_cfg.c **** 		uint8 count = (uint8)baseAddr;
 166              		.loc 1 180 0
 167 0020 BB68     		ldr	r3, [r7, #8]
 168 0022 FB73     		strb	r3, [r7, #15]
 181:.\Generated_Source\PSoC5/cyfitter_cfg.c **** 		baseAddr &= 0xFFFFFF00u;
 169              		.loc 1 181 0
 170 0024 BB68     		ldr	r3, [r7, #8]
 171 0026 23F0FF03 		bic	r3, r3, #255
 172 002a BB60     		str	r3, [r7, #8]
 182:.\Generated_Source\PSoC5/cyfitter_cfg.c **** 		while (count != 0u)
 173              		.loc 1 182 0
 174 002c 14E0     		b	.L6
 175              	.L7:
 183:.\Generated_Source\PSoC5/cyfitter_cfg.c **** 		{
 184:.\Generated_Source\PSoC5/cyfitter_cfg.c **** 			CY_SET_XTND_REG8((void CYFAR *)(baseAddr + data_table[j].offset), data_table[j].value);
 176              		.loc 1 184 0
 177 002e 3B69     		ldr	r3, [r7, #16]
 178 0030 5B00     		lsls	r3, r3, #1
 179 0032 3A68     		ldr	r2, [r7]
 180 0034 1344     		add	r3, r3, r2
 181 0036 1B78     		ldrb	r3, [r3]	@ zero_extendqisi2
 182 0038 1A46     		mov	r2, r3
 183 003a BB68     		ldr	r3, [r7, #8]
 184 003c 1344     		add	r3, r3, r2
 185 003e 1946     		mov	r1, r3
 186 0040 3B69     		ldr	r3, [r7, #16]
 187 0042 5B00     		lsls	r3, r3, #1
 188 0044 3A68     		ldr	r2, [r7]
 189 0046 1344     		add	r3, r3, r2
 190 0048 5B78     		ldrb	r3, [r3, #1]	@ zero_extendqisi2
 191 004a 0B70     		strb	r3, [r1]
 185:.\Generated_Source\PSoC5/cyfitter_cfg.c **** 			j++;
 192              		.loc 1 185 0
 193 004c 3B69     		ldr	r3, [r7, #16]
 194 004e 0133     		adds	r3, r3, #1
 195 0050 3B61     		str	r3, [r7, #16]
 186:.\Generated_Source\PSoC5/cyfitter_cfg.c **** 			count--;
 196              		.loc 1 186 0
 197 0052 FB7B     		ldrb	r3, [r7, #15]	@ zero_extendqisi2
 198 0054 013B     		subs	r3, r3, #1
 199 0056 FB73     		strb	r3, [r7, #15]
 200              	.L6:
 182:.\Generated_Source\PSoC5/cyfitter_cfg.c **** 		{
 201              		.loc 1 182 0
 202 0058 FB7B     		ldrb	r3, [r7, #15]	@ zero_extendqisi2
 203 005a 002B     		cmp	r3, #0
 204 005c E7D1     		bne	.L7
 205              	.LBE2:
 177:.\Generated_Source\PSoC5/cyfitter_cfg.c **** 	{
 206              		.loc 1 177 0 discriminator 2
 207 005e 7B69     		ldr	r3, [r7, #20]
 208 0060 0133     		adds	r3, r3, #1
 209 0062 7B61     		str	r3, [r7, #20]
 210              	.L5:
 177:.\Generated_Source\PSoC5/cyfitter_cfg.c **** 	{
ARM GAS  C:\Users\Lois\AppData\Local\Temp\ccmucEQ9.s 			page 8


 211              		.loc 1 177 0 is_stmt 0 discriminator 1
 212 0064 7B69     		ldr	r3, [r7, #20]
 213 0066 222B     		cmp	r3, #34
 214 0068 D4D9     		bls	.L8
 187:.\Generated_Source\PSoC5/cyfitter_cfg.c **** 		}
 188:.\Generated_Source\PSoC5/cyfitter_cfg.c **** 	}
 189:.\Generated_Source\PSoC5/cyfitter_cfg.c **** }
 215              		.loc 1 189 0 is_stmt 1
 216 006a 1C37     		adds	r7, r7, #28
 217              		.cfi_def_cfa_offset 4
 218 006c BD46     		mov	sp, r7
 219              		.cfi_def_cfa_register 13
 220              		@ sp needed
 221 006e 5DF8047B 		ldr	r7, [sp], #4
 222              		.cfi_restore 7
 223              		.cfi_def_cfa_offset 0
 224 0072 7047     		bx	lr
 225              		.cfi_endproc
 226              	.LFE3:
 227              		.size	cfg_write_bytes32, .-cfg_write_bytes32
 228              		.section	.text.ClockSetup,"ax",%progbits
 229              		.align	2
 230              		.thumb
 231              		.thumb_func
 232              		.type	ClockSetup, %function
 233              	ClockSetup:
 234              	.LFB4:
 190:.\Generated_Source\PSoC5/cyfitter_cfg.c **** 
 191:.\Generated_Source\PSoC5/cyfitter_cfg.c **** /*******************************************************************************
 192:.\Generated_Source\PSoC5/cyfitter_cfg.c **** * Function Name: ClockSetup
 193:.\Generated_Source\PSoC5/cyfitter_cfg.c **** ********************************************************************************
 194:.\Generated_Source\PSoC5/cyfitter_cfg.c **** *
 195:.\Generated_Source\PSoC5/cyfitter_cfg.c **** * Summary:
 196:.\Generated_Source\PSoC5/cyfitter_cfg.c **** *  Performs the initialization of all of the clocks in the device based on the
 197:.\Generated_Source\PSoC5/cyfitter_cfg.c **** *  settings in the Clock tab of the DWR.  This includes enabling the requested
 198:.\Generated_Source\PSoC5/cyfitter_cfg.c **** *  clocks and setting the necessary dividers to produce the desired frequency. 
 199:.\Generated_Source\PSoC5/cyfitter_cfg.c **** *
 200:.\Generated_Source\PSoC5/cyfitter_cfg.c **** * Parameters:
 201:.\Generated_Source\PSoC5/cyfitter_cfg.c **** *  void
 202:.\Generated_Source\PSoC5/cyfitter_cfg.c **** *
 203:.\Generated_Source\PSoC5/cyfitter_cfg.c **** * Return:
 204:.\Generated_Source\PSoC5/cyfitter_cfg.c **** *  void
 205:.\Generated_Source\PSoC5/cyfitter_cfg.c **** *
 206:.\Generated_Source\PSoC5/cyfitter_cfg.c **** *******************************************************************************/
 207:.\Generated_Source\PSoC5/cyfitter_cfg.c **** static void ClockSetup(void);
 208:.\Generated_Source\PSoC5/cyfitter_cfg.c **** static void ClockSetup(void)
 209:.\Generated_Source\PSoC5/cyfitter_cfg.c **** {
 235              		.loc 1 209 0
 236              		.cfi_startproc
 237              		@ args = 0, pretend = 0, frame = 8
 238              		@ frame_needed = 1, uses_anonymous_args = 0
 239 0000 80B5     		push	{r7, lr}
 240              		.cfi_def_cfa_offset 8
 241              		.cfi_offset 7, -8
 242              		.cfi_offset 14, -4
 243 0002 82B0     		sub	sp, sp, #8
 244              		.cfi_def_cfa_offset 16
ARM GAS  C:\Users\Lois\AppData\Local\Temp\ccmucEQ9.s 			page 9


 245 0004 00AF     		add	r7, sp, #0
 246              		.cfi_def_cfa_register 7
 210:.\Generated_Source\PSoC5/cyfitter_cfg.c **** 	uint32 timeout;
 211:.\Generated_Source\PSoC5/cyfitter_cfg.c **** 	uint8 pllLock;
 212:.\Generated_Source\PSoC5/cyfitter_cfg.c **** 
 213:.\Generated_Source\PSoC5/cyfitter_cfg.c **** 
 214:.\Generated_Source\PSoC5/cyfitter_cfg.c **** 	/* Configure Digital Clocks based on settings from Clock DWR */
 215:.\Generated_Source\PSoC5/cyfitter_cfg.c **** 	CY_SET_XTND_REG16((void CYFAR *)(CYREG_CLKDIST_DCFG0_CFG0), 0x0000u);
 247              		.loc 1 215 0
 248 0006 3B4B     		ldr	r3, .L13
 249 0008 0022     		movs	r2, #0
 250 000a 1A80     		strh	r2, [r3]	@ movhi
 216:.\Generated_Source\PSoC5/cyfitter_cfg.c **** 	CY_SET_XTND_REG8((void CYFAR *)(CYREG_CLKDIST_DCFG0_CFG0 + 0x2u), 0x50u);
 251              		.loc 1 216 0
 252 000c 3A4B     		ldr	r3, .L13+4
 253 000e 5022     		movs	r2, #80
 254 0010 1A70     		strb	r2, [r3]
 217:.\Generated_Source\PSoC5/cyfitter_cfg.c **** 	CY_SET_XTND_REG16((void CYFAR *)(CYREG_CLKDIST_DCFG1_CFG0), 0x0077u);
 255              		.loc 1 217 0
 256 0012 3A4B     		ldr	r3, .L13+8
 257 0014 7722     		movs	r2, #119
 258 0016 1A80     		strh	r2, [r3]	@ movhi
 218:.\Generated_Source\PSoC5/cyfitter_cfg.c **** 	CY_SET_XTND_REG8((void CYFAR *)(CYREG_CLKDIST_DCFG1_CFG0 + 0x2u), 0x18u);
 259              		.loc 1 218 0
 260 0018 394B     		ldr	r3, .L13+12
 261 001a 1822     		movs	r2, #24
 262 001c 1A70     		strb	r2, [r3]
 219:.\Generated_Source\PSoC5/cyfitter_cfg.c **** 
 220:.\Generated_Source\PSoC5/cyfitter_cfg.c **** 	/* Configure Analog Clocks based on settings from Clock DWR */
 221:.\Generated_Source\PSoC5/cyfitter_cfg.c **** 	CYCONFIGCPY((void CYFAR *)(CYREG_CLKDIST_ACFG0_CFG0), (const void CYFAR *)(BS_CYDEV_CLKDIST_ACFG0_
 263              		.loc 1 221 0
 264 001e 3948     		ldr	r0, .L13+16
 265 0020 3949     		ldr	r1, .L13+20
 266 0022 0422     		movs	r2, #4
 267 0024 FFF7FEFF 		bl	CYCONFIGCPY
 222:.\Generated_Source\PSoC5/cyfitter_cfg.c **** 
 223:.\Generated_Source\PSoC5/cyfitter_cfg.c **** 	/* Configure ILO based on settings from Clock DWR */
 224:.\Generated_Source\PSoC5/cyfitter_cfg.c **** 	CY_SET_XTND_REG8((void CYFAR *)(CYREG_SLOWCLK_ILO_CR0), 0x06u);
 268              		.loc 1 224 0
 269 0028 384B     		ldr	r3, .L13+24
 270 002a 0622     		movs	r2, #6
 271 002c 1A70     		strb	r2, [r3]
 225:.\Generated_Source\PSoC5/cyfitter_cfg.c **** 
 226:.\Generated_Source\PSoC5/cyfitter_cfg.c **** 	/* Configure IMO based on settings from Clock DWR */
 227:.\Generated_Source\PSoC5/cyfitter_cfg.c **** 	CY_SET_XTND_REG8((void CYFAR *)(CYREG_FASTCLK_IMO_CR), 0x52u);
 272              		.loc 1 227 0
 273 002e 384B     		ldr	r3, .L13+28
 274 0030 5222     		movs	r2, #82
 275 0032 1A70     		strb	r2, [r3]
 228:.\Generated_Source\PSoC5/cyfitter_cfg.c **** 	CY_SET_XTND_REG8((void CYFAR *)(CYREG_IMO_TR1), (CY_GET_XTND_REG8((void CYFAR *)CYREG_FLSHID_CUST_
 276              		.loc 1 228 0
 277 0034 374B     		ldr	r3, .L13+32
 278 0036 384A     		ldr	r2, .L13+36
 279 0038 1278     		ldrb	r2, [r2]
 280 003a D2B2     		uxtb	r2, r2
 281 003c 1A70     		strb	r2, [r3]
 229:.\Generated_Source\PSoC5/cyfitter_cfg.c **** 
ARM GAS  C:\Users\Lois\AppData\Local\Temp\ccmucEQ9.s 			page 10


 230:.\Generated_Source\PSoC5/cyfitter_cfg.c **** 	/* Configure Bus/Master Clock based on settings from Clock DWR */
 231:.\Generated_Source\PSoC5/cyfitter_cfg.c **** 	CY_SET_XTND_REG16((void CYFAR *)(CYREG_CLKDIST_MSTR0), 0x0000u);
 282              		.loc 1 231 0
 283 003e 374B     		ldr	r3, .L13+40
 284 0040 0022     		movs	r2, #0
 285 0042 1A80     		strh	r2, [r3]	@ movhi
 232:.\Generated_Source\PSoC5/cyfitter_cfg.c **** 
 233:.\Generated_Source\PSoC5/cyfitter_cfg.c **** 	/* Configure PLL based on settings from Clock DWR */
 234:.\Generated_Source\PSoC5/cyfitter_cfg.c **** 	CY_SET_XTND_REG16((void CYFAR *)(CYREG_FASTCLK_PLL_P), 0x0710u);
 286              		.loc 1 234 0
 287 0044 364B     		ldr	r3, .L13+44
 288 0046 4FF4E262 		mov	r2, #1808
 289 004a 1A80     		strh	r2, [r3]	@ movhi
 235:.\Generated_Source\PSoC5/cyfitter_cfg.c **** 	CY_SET_XTND_REG16((void CYFAR *)(CYREG_FASTCLK_PLL_CFG0), 0x1251u);
 290              		.loc 1 235 0
 291 004c 354B     		ldr	r3, .L13+48
 292 004e 41F25122 		movw	r2, #4689
 293 0052 1A80     		strh	r2, [r3]	@ movhi
 236:.\Generated_Source\PSoC5/cyfitter_cfg.c **** 	/* Wait up to 250us for the PLL to lock */
 237:.\Generated_Source\PSoC5/cyfitter_cfg.c **** 	pllLock = 0u;
 294              		.loc 1 237 0
 295 0054 0023     		movs	r3, #0
 296 0056 FB70     		strb	r3, [r7, #3]
 238:.\Generated_Source\PSoC5/cyfitter_cfg.c **** 	for (timeout = 250u / 10u; (timeout > 0u) && (pllLock != 0x03u); timeout--)
 297              		.loc 1 238 0
 298 0058 1923     		movs	r3, #25
 299 005a 7B60     		str	r3, [r7, #4]
 300 005c 14E0     		b	.L10
 301              	.L12:
 239:.\Generated_Source\PSoC5/cyfitter_cfg.c **** 	{ 
 240:.\Generated_Source\PSoC5/cyfitter_cfg.c **** 		pllLock = 0x03u & ((uint8)((uint8)pllLock << 1) | ((CY_GET_XTND_REG8((void CYFAR *)CYREG_FASTCLK_
 302              		.loc 1 240 0 discriminator 4
 303 005e FB78     		ldrb	r3, [r7, #3]
 304 0060 5B00     		lsls	r3, r3, #1
 305 0062 DAB2     		uxtb	r2, r3
 306 0064 304B     		ldr	r3, .L13+52
 307 0066 1B78     		ldrb	r3, [r3]
 308 0068 DBB2     		uxtb	r3, r3
 309 006a 03F00103 		and	r3, r3, #1
 310 006e DBB2     		uxtb	r3, r3
 311 0070 1343     		orrs	r3, r3, r2
 312 0072 DBB2     		uxtb	r3, r3
 313 0074 03F00303 		and	r3, r3, #3
 314 0078 FB70     		strb	r3, [r7, #3]
 241:.\Generated_Source\PSoC5/cyfitter_cfg.c **** 		CyDelayCycles(10u * 48u); /* Delay 10us based on 48MHz clock */
 315              		.loc 1 241 0 discriminator 4
 316 007a 4FF4F070 		mov	r0, #480
 317 007e FFF7FEFF 		bl	CyDelayCycles
 238:.\Generated_Source\PSoC5/cyfitter_cfg.c **** 	for (timeout = 250u / 10u; (timeout > 0u) && (pllLock != 0x03u); timeout--)
 318              		.loc 1 238 0 discriminator 4
 319 0082 7B68     		ldr	r3, [r7, #4]
 320 0084 013B     		subs	r3, r3, #1
 321 0086 7B60     		str	r3, [r7, #4]
 322              	.L10:
 238:.\Generated_Source\PSoC5/cyfitter_cfg.c **** 	for (timeout = 250u / 10u; (timeout > 0u) && (pllLock != 0x03u); timeout--)
 323              		.loc 1 238 0 is_stmt 0 discriminator 1
 324 0088 7B68     		ldr	r3, [r7, #4]
ARM GAS  C:\Users\Lois\AppData\Local\Temp\ccmucEQ9.s 			page 11


 325 008a 002B     		cmp	r3, #0
 326 008c 02D0     		beq	.L11
 238:.\Generated_Source\PSoC5/cyfitter_cfg.c **** 	for (timeout = 250u / 10u; (timeout > 0u) && (pllLock != 0x03u); timeout--)
 327              		.loc 1 238 0 discriminator 3
 328 008e FB78     		ldrb	r3, [r7, #3]	@ zero_extendqisi2
 329 0090 032B     		cmp	r3, #3
 330 0092 E4D1     		bne	.L12
 331              	.L11:
 242:.\Generated_Source\PSoC5/cyfitter_cfg.c **** 	}
 243:.\Generated_Source\PSoC5/cyfitter_cfg.c **** 	CY_SET_XTND_REG8((void CYFAR *)(CYREG_CLKDIST_MSTR0), 0x07u);
 332              		.loc 1 243 0 is_stmt 1
 333 0094 214B     		ldr	r3, .L13+40
 334 0096 0722     		movs	r2, #7
 335 0098 1A70     		strb	r2, [r3]
 244:.\Generated_Source\PSoC5/cyfitter_cfg.c **** 	CY_SET_XTND_REG8((void CYFAR *)(CYREG_CLKDIST_BCFG0), 0x00u);
 336              		.loc 1 244 0
 337 009a 244B     		ldr	r3, .L13+56
 338 009c 0022     		movs	r2, #0
 339 009e 1A70     		strb	r2, [r3]
 245:.\Generated_Source\PSoC5/cyfitter_cfg.c **** 	CY_SET_XTND_REG8((void CYFAR *)(CYREG_CLKDIST_BCFG2), 0x48u);
 340              		.loc 1 245 0
 341 00a0 234B     		ldr	r3, .L13+60
 342 00a2 4822     		movs	r2, #72
 343 00a4 1A70     		strb	r2, [r3]
 246:.\Generated_Source\PSoC5/cyfitter_cfg.c **** 	CY_SET_XTND_REG8((void CYFAR *)(CYREG_CLKDIST_MSTR0), 0x00u);
 344              		.loc 1 246 0
 345 00a6 1D4B     		ldr	r3, .L13+40
 346 00a8 0022     		movs	r2, #0
 347 00aa 1A70     		strb	r2, [r3]
 247:.\Generated_Source\PSoC5/cyfitter_cfg.c **** 
 248:.\Generated_Source\PSoC5/cyfitter_cfg.c **** 	/* Configure USB Clock based on settings from Clock DWR */
 249:.\Generated_Source\PSoC5/cyfitter_cfg.c **** 	CY_SET_XTND_REG8((void CYFAR *)(CYREG_CLKDIST_UCFG), 0x00u);
 348              		.loc 1 249 0
 349 00ac 214B     		ldr	r3, .L13+64
 350 00ae 0022     		movs	r2, #0
 351 00b0 1A70     		strb	r2, [r3]
 250:.\Generated_Source\PSoC5/cyfitter_cfg.c **** 	CY_SET_XTND_REG8((void CYFAR *)(CYREG_CLKDIST_LD), 0x02u);
 352              		.loc 1 250 0
 353 00b2 214B     		ldr	r3, .L13+68
 354 00b4 0222     		movs	r2, #2
 355 00b6 1A70     		strb	r2, [r3]
 251:.\Generated_Source\PSoC5/cyfitter_cfg.c **** 	CY_SET_XTND_REG8((void CYFAR *)(CYREG_CLKDIST_DLY1), 0x04u);
 356              		.loc 1 251 0
 357 00b8 204B     		ldr	r3, .L13+72
 358 00ba 0422     		movs	r2, #4
 359 00bc 1A70     		strb	r2, [r3]
 252:.\Generated_Source\PSoC5/cyfitter_cfg.c **** 
 253:.\Generated_Source\PSoC5/cyfitter_cfg.c **** 	CY_SET_XTND_REG8((void CYFAR *)(CYREG_PM_ACT_CFG2), ((CY_GET_XTND_REG8((void CYFAR *)CYREG_PM_ACT_
 360              		.loc 1 253 0
 361 00be 204A     		ldr	r2, .L13+76
 362 00c0 1F4B     		ldr	r3, .L13+76
 363 00c2 1B78     		ldrb	r3, [r3]
 364 00c4 DBB2     		uxtb	r3, r3
 365 00c6 43F00303 		orr	r3, r3, #3
 366 00ca DBB2     		uxtb	r3, r3
 367 00cc 1370     		strb	r3, [r2]
 254:.\Generated_Source\PSoC5/cyfitter_cfg.c **** 	CY_SET_XTND_REG8((void CYFAR *)(CYREG_PM_ACT_CFG1), ((CY_GET_XTND_REG8((void CYFAR *)CYREG_PM_ACT_
ARM GAS  C:\Users\Lois\AppData\Local\Temp\ccmucEQ9.s 			page 12


 368              		.loc 1 254 0
 369 00ce 1D4A     		ldr	r2, .L13+80
 370 00d0 1C4B     		ldr	r3, .L13+80
 371 00d2 1B78     		ldrb	r3, [r3]
 372 00d4 DBB2     		uxtb	r3, r3
 373 00d6 43F00103 		orr	r3, r3, #1
 374 00da DBB2     		uxtb	r3, r3
 375 00dc 1370     		strb	r3, [r2]
 255:.\Generated_Source\PSoC5/cyfitter_cfg.c **** 	CY_SET_XTND_REG8((void CYFAR *)(CYREG_PM_ACT_CFG0), ((CY_GET_XTND_REG8((void CYFAR *)CYREG_PM_ACT_
 376              		.loc 1 255 0
 377 00de 1A4A     		ldr	r2, .L13+84
 378 00e0 194B     		ldr	r3, .L13+84
 379 00e2 1B78     		ldrb	r3, [r3]
 380 00e4 DBB2     		uxtb	r3, r3
 381 00e6 63F07F03 		orn	r3, r3, #127
 382 00ea DBB2     		uxtb	r3, r3
 383 00ec 1370     		strb	r3, [r2]
 256:.\Generated_Source\PSoC5/cyfitter_cfg.c **** }
 384              		.loc 1 256 0
 385 00ee 0837     		adds	r7, r7, #8
 386              		.cfi_def_cfa_offset 8
 387 00f0 BD46     		mov	sp, r7
 388              		.cfi_def_cfa_register 13
 389              		@ sp needed
 390 00f2 80BD     		pop	{r7, pc}
 391              	.L14:
 392              		.align	2
 393              	.L13:
 394 00f4 80400040 		.word	1073758336
 395 00f8 82400040 		.word	1073758338
 396 00fc 84400040 		.word	1073758340
 397 0100 86400040 		.word	1073758342
 398 0104 00410040 		.word	1073758464
 399 0108 EC060048 		.word	1207961324
 400 010c 00430040 		.word	1073758976
 401 0110 00420040 		.word	1073758720
 402 0114 A1460040 		.word	1073759905
 403 0118 0F010049 		.word	1224737039
 404 011c 04400040 		.word	1073758212
 405 0120 22420040 		.word	1073758754
 406 0124 20420040 		.word	1073758752
 407 0128 25420040 		.word	1073758757
 408 012c 06400040 		.word	1073758214
 409 0130 08400040 		.word	1073758216
 410 0134 09400040 		.word	1073758217
 411 0138 01400040 		.word	1073758209
 412 013c 0B400040 		.word	1073758219
 413 0140 A2430040 		.word	1073759138
 414 0144 A1430040 		.word	1073759137
 415 0148 A0430040 		.word	1073759136
 416              		.cfi_endproc
 417              	.LFE4:
 418              		.size	ClockSetup, .-ClockSetup
 419              		.section	.text.AnalogSetDefault,"ax",%progbits
 420              		.align	2
 421              		.thumb
 422              		.thumb_func
ARM GAS  C:\Users\Lois\AppData\Local\Temp\ccmucEQ9.s 			page 13


 423              		.type	AnalogSetDefault, %function
 424              	AnalogSetDefault:
 425              	.LFB5:
 257:.\Generated_Source\PSoC5/cyfitter_cfg.c **** 
 258:.\Generated_Source\PSoC5/cyfitter_cfg.c **** 
 259:.\Generated_Source\PSoC5/cyfitter_cfg.c **** /* Analog API Functions */
 260:.\Generated_Source\PSoC5/cyfitter_cfg.c **** 
 261:.\Generated_Source\PSoC5/cyfitter_cfg.c **** 
 262:.\Generated_Source\PSoC5/cyfitter_cfg.c **** /*******************************************************************************
 263:.\Generated_Source\PSoC5/cyfitter_cfg.c **** * Function Name: AnalogSetDefault
 264:.\Generated_Source\PSoC5/cyfitter_cfg.c **** ********************************************************************************
 265:.\Generated_Source\PSoC5/cyfitter_cfg.c **** *
 266:.\Generated_Source\PSoC5/cyfitter_cfg.c **** * Summary:
 267:.\Generated_Source\PSoC5/cyfitter_cfg.c **** *  Sets up the analog portions of the chip to default values based on chip
 268:.\Generated_Source\PSoC5/cyfitter_cfg.c **** *  configuration options from the project.
 269:.\Generated_Source\PSoC5/cyfitter_cfg.c **** *
 270:.\Generated_Source\PSoC5/cyfitter_cfg.c **** * Parameters:
 271:.\Generated_Source\PSoC5/cyfitter_cfg.c **** *  void
 272:.\Generated_Source\PSoC5/cyfitter_cfg.c **** *
 273:.\Generated_Source\PSoC5/cyfitter_cfg.c **** * Return:
 274:.\Generated_Source\PSoC5/cyfitter_cfg.c **** *  void
 275:.\Generated_Source\PSoC5/cyfitter_cfg.c **** *
 276:.\Generated_Source\PSoC5/cyfitter_cfg.c **** *******************************************************************************/
 277:.\Generated_Source\PSoC5/cyfitter_cfg.c **** static void AnalogSetDefault(void);
 278:.\Generated_Source\PSoC5/cyfitter_cfg.c **** static void AnalogSetDefault(void)
 279:.\Generated_Source\PSoC5/cyfitter_cfg.c **** {
 426              		.loc 1 279 0
 427              		.cfi_startproc
 428              		@ args = 0, pretend = 0, frame = 8
 429              		@ frame_needed = 1, uses_anonymous_args = 0
 430              		@ link register save eliminated.
 431 0000 80B4     		push	{r7}
 432              		.cfi_def_cfa_offset 4
 433              		.cfi_offset 7, -4
 434 0002 83B0     		sub	sp, sp, #12
 435              		.cfi_def_cfa_offset 16
 436 0004 00AF     		add	r7, sp, #0
 437              		.cfi_def_cfa_register 7
 280:.\Generated_Source\PSoC5/cyfitter_cfg.c **** 	uint8 bg_xover_inl_trim = CY_GET_XTND_REG8((void CYFAR *)(CYREG_FLSHID_MFG_CFG_BG_XOVER_INL_TRIM +
 438              		.loc 1 280 0
 439 0006 0F4B     		ldr	r3, .L16
 440 0008 1B78     		ldrb	r3, [r3]
 441 000a FB71     		strb	r3, [r7, #7]
 281:.\Generated_Source\PSoC5/cyfitter_cfg.c **** 	CY_SET_XTND_REG8((void CYFAR *)(CYREG_BG_DFT0), (bg_xover_inl_trim & 0x07u));
 442              		.loc 1 281 0
 443 000c 0E4A     		ldr	r2, .L16+4
 444 000e FB79     		ldrb	r3, [r7, #7]
 445 0010 03F00703 		and	r3, r3, #7
 446 0014 DBB2     		uxtb	r3, r3
 447 0016 1370     		strb	r3, [r2]
 282:.\Generated_Source\PSoC5/cyfitter_cfg.c **** 	CY_SET_XTND_REG8((void CYFAR *)(CYREG_BG_DFT1), ((bg_xover_inl_trim >> 4) & 0x0Fu));
 448              		.loc 1 282 0
 449 0018 0C4A     		ldr	r2, .L16+8
 450 001a FB79     		ldrb	r3, [r7, #7]	@ zero_extendqisi2
 451 001c 1B09     		lsrs	r3, r3, #4
 452 001e DBB2     		uxtb	r3, r3
 453 0020 1370     		strb	r3, [r2]
ARM GAS  C:\Users\Lois\AppData\Local\Temp\ccmucEQ9.s 			page 14


 283:.\Generated_Source\PSoC5/cyfitter_cfg.c **** 	CY_SET_XTND_REG8((void CYFAR *)CYREG_PRT3_AG, 0x20u);
 454              		.loc 1 283 0
 455 0022 0B4B     		ldr	r3, .L16+12
 456 0024 2022     		movs	r2, #32
 457 0026 1A70     		strb	r2, [r3]
 284:.\Generated_Source\PSoC5/cyfitter_cfg.c **** 	CY_SET_XTND_REG8((void CYFAR *)CYREG_DSM0_SW0, 0x20u);
 458              		.loc 1 284 0
 459 0028 0A4B     		ldr	r3, .L16+16
 460 002a 2022     		movs	r2, #32
 461 002c 1A70     		strb	r2, [r3]
 285:.\Generated_Source\PSoC5/cyfitter_cfg.c **** 	CY_SET_XTND_REG8((void CYFAR *)CYREG_BUS_SW0, 0x20u);
 462              		.loc 1 285 0
 463 002e 0A4B     		ldr	r3, .L16+20
 464 0030 2022     		movs	r2, #32
 465 0032 1A70     		strb	r2, [r3]
 286:.\Generated_Source\PSoC5/cyfitter_cfg.c **** 	CY_SET_XTND_REG8((void CYFAR *)CYREG_PUMP_CR0, 0x44u);
 466              		.loc 1 286 0
 467 0034 094B     		ldr	r3, .L16+24
 468 0036 4422     		movs	r2, #68
 469 0038 1A70     		strb	r2, [r3]
 287:.\Generated_Source\PSoC5/cyfitter_cfg.c **** }
 470              		.loc 1 287 0
 471 003a 0C37     		adds	r7, r7, #12
 472              		.cfi_def_cfa_offset 4
 473 003c BD46     		mov	sp, r7
 474              		.cfi_def_cfa_register 13
 475              		@ sp needed
 476 003e 5DF8047B 		ldr	r7, [sp], #4
 477              		.cfi_restore 7
 478              		.cfi_def_cfa_offset 0
 479 0042 7047     		bx	lr
 480              	.L17:
 481              		.align	2
 482              	.L16:
 483 0044 CF010049 		.word	1224737231
 484 0048 6E580040 		.word	1073764462
 485 004c 6F580040 		.word	1073764463
 486 0050 3D510040 		.word	1073762621
 487 0054 005B0040 		.word	1073765120
 488 0058 585B0040 		.word	1073765208
 489 005c 76580040 		.word	1073764470
 490              		.cfi_endproc
 491              	.LFE5:
 492              		.size	AnalogSetDefault, .-AnalogSetDefault
 493              		.section	.text.SetAnalogRoutingPumps,"ax",%progbits
 494              		.align	2
 495              		.global	SetAnalogRoutingPumps
 496              		.thumb
 497              		.thumb_func
 498              		.type	SetAnalogRoutingPumps, %function
 499              	SetAnalogRoutingPumps:
 500              	.LFB6:
 288:.\Generated_Source\PSoC5/cyfitter_cfg.c **** 
 289:.\Generated_Source\PSoC5/cyfitter_cfg.c **** 
 290:.\Generated_Source\PSoC5/cyfitter_cfg.c **** /*******************************************************************************
 291:.\Generated_Source\PSoC5/cyfitter_cfg.c **** * Function Name: SetAnalogRoutingPumps
 292:.\Generated_Source\PSoC5/cyfitter_cfg.c **** ********************************************************************************
ARM GAS  C:\Users\Lois\AppData\Local\Temp\ccmucEQ9.s 			page 15


 293:.\Generated_Source\PSoC5/cyfitter_cfg.c **** *
 294:.\Generated_Source\PSoC5/cyfitter_cfg.c **** * Summary:
 295:.\Generated_Source\PSoC5/cyfitter_cfg.c **** * Enables or disables the analog pumps feeding analog routing switches.
 296:.\Generated_Source\PSoC5/cyfitter_cfg.c **** * Intended to be called at startup, based on the Vdda system configuration;
 297:.\Generated_Source\PSoC5/cyfitter_cfg.c **** * may be called during operation when the user informs us that the Vdda voltage
 298:.\Generated_Source\PSoC5/cyfitter_cfg.c **** * crossed the pump threshold.
 299:.\Generated_Source\PSoC5/cyfitter_cfg.c **** *
 300:.\Generated_Source\PSoC5/cyfitter_cfg.c **** * Parameters:
 301:.\Generated_Source\PSoC5/cyfitter_cfg.c **** *  enabled - 1 to enable the pumps, 0 to disable the pumps
 302:.\Generated_Source\PSoC5/cyfitter_cfg.c **** *
 303:.\Generated_Source\PSoC5/cyfitter_cfg.c **** * Return:
 304:.\Generated_Source\PSoC5/cyfitter_cfg.c **** *  void
 305:.\Generated_Source\PSoC5/cyfitter_cfg.c **** *
 306:.\Generated_Source\PSoC5/cyfitter_cfg.c **** *******************************************************************************/
 307:.\Generated_Source\PSoC5/cyfitter_cfg.c **** void SetAnalogRoutingPumps(uint8 enabled)
 308:.\Generated_Source\PSoC5/cyfitter_cfg.c **** {
 501              		.loc 1 308 0
 502              		.cfi_startproc
 503              		@ args = 0, pretend = 0, frame = 16
 504              		@ frame_needed = 1, uses_anonymous_args = 0
 505              		@ link register save eliminated.
 506 0000 80B4     		push	{r7}
 507              		.cfi_def_cfa_offset 4
 508              		.cfi_offset 7, -4
 509 0002 85B0     		sub	sp, sp, #20
 510              		.cfi_def_cfa_offset 24
 511 0004 00AF     		add	r7, sp, #0
 512              		.cfi_def_cfa_register 7
 513 0006 0346     		mov	r3, r0
 514 0008 FB71     		strb	r3, [r7, #7]
 309:.\Generated_Source\PSoC5/cyfitter_cfg.c **** 	uint8 regValue = CY_GET_XTND_REG8((void CYFAR *)CYREG_PUMP_CR0);
 515              		.loc 1 309 0
 516 000a 0B4B     		ldr	r3, .L21
 517 000c 1B78     		ldrb	r3, [r3]
 518 000e FB73     		strb	r3, [r7, #15]
 310:.\Generated_Source\PSoC5/cyfitter_cfg.c **** 	if (enabled != 0u)
 519              		.loc 1 310 0
 520 0010 FB79     		ldrb	r3, [r7, #7]	@ zero_extendqisi2
 521 0012 002B     		cmp	r3, #0
 522 0014 04D0     		beq	.L19
 311:.\Generated_Source\PSoC5/cyfitter_cfg.c **** 	{
 312:.\Generated_Source\PSoC5/cyfitter_cfg.c **** 		regValue |= 0x22u;
 523              		.loc 1 312 0
 524 0016 FB7B     		ldrb	r3, [r7, #15]
 525 0018 43F02203 		orr	r3, r3, #34
 526 001c FB73     		strb	r3, [r7, #15]
 527 001e 03E0     		b	.L20
 528              	.L19:
 313:.\Generated_Source\PSoC5/cyfitter_cfg.c **** 	}
 314:.\Generated_Source\PSoC5/cyfitter_cfg.c **** 	else
 315:.\Generated_Source\PSoC5/cyfitter_cfg.c **** 	{
 316:.\Generated_Source\PSoC5/cyfitter_cfg.c **** 		regValue &= (uint8)~0x22u;
 529              		.loc 1 316 0
 530 0020 FB7B     		ldrb	r3, [r7, #15]
 531 0022 23F02203 		bic	r3, r3, #34
 532 0026 FB73     		strb	r3, [r7, #15]
 533              	.L20:
ARM GAS  C:\Users\Lois\AppData\Local\Temp\ccmucEQ9.s 			page 16


 317:.\Generated_Source\PSoC5/cyfitter_cfg.c **** 	}
 318:.\Generated_Source\PSoC5/cyfitter_cfg.c **** 	CY_SET_XTND_REG8((void CYFAR *)CYREG_PUMP_CR0, regValue);
 534              		.loc 1 318 0
 535 0028 034A     		ldr	r2, .L21
 536 002a FB7B     		ldrb	r3, [r7, #15]
 537 002c 1370     		strb	r3, [r2]
 319:.\Generated_Source\PSoC5/cyfitter_cfg.c **** }
 538              		.loc 1 319 0
 539 002e 1437     		adds	r7, r7, #20
 540              		.cfi_def_cfa_offset 4
 541 0030 BD46     		mov	sp, r7
 542              		.cfi_def_cfa_register 13
 543              		@ sp needed
 544 0032 5DF8047B 		ldr	r7, [sp], #4
 545              		.cfi_restore 7
 546              		.cfi_def_cfa_offset 0
 547 0036 7047     		bx	lr
 548              	.L22:
 549              		.align	2
 550              	.L21:
 551 0038 76580040 		.word	1073764470
 552              		.cfi_endproc
 553              	.LFE6:
 554              		.size	SetAnalogRoutingPumps, .-SetAnalogRoutingPumps
 555              		.global	ADC_AMux__addrTable
 556              		.section	.rodata
 557              		.align	2
 558              		.type	ADC_AMux__addrTable, %object
 559              		.size	ADC_AMux__addrTable, 8
 560              	ADC_AMux__addrTable:
 561 0000 035B0040 		.word	1073765123
 562 0004 24430040 		.word	1073759012
 563              		.global	ADC_AMux__maskTable
 564              		.align	2
 565              		.type	ADC_AMux__maskTable, %object
 566              		.size	ADC_AMux__maskTable, 2
 567              	ADC_AMux__maskTable:
 568 0008 40       		.byte	64
 569 0009 00       		.byte	0
 570              		.section	.text.ADC_AMux_Set,"ax",%progbits
 571              		.align	2
 572              		.global	ADC_AMux_Set
 573              		.thumb
 574              		.thumb_func
 575              		.type	ADC_AMux_Set, %function
 576              	ADC_AMux_Set:
 577              	.LFB7:
 320:.\Generated_Source\PSoC5/cyfitter_cfg.c **** 
 321:.\Generated_Source\PSoC5/cyfitter_cfg.c **** #define CY_AMUX_UNUSED CYREG_BOOST_SR
 322:.\Generated_Source\PSoC5/cyfitter_cfg.c **** /* This is an implementation detail of the AMux. Code that depends on it may be
 323:.\Generated_Source\PSoC5/cyfitter_cfg.c ****    incompatible with other versions of PSoC Creator. */
 324:.\Generated_Source\PSoC5/cyfitter_cfg.c **** uint8 CYXDATA * const CYCODE ADC_AMux__addrTable[2] = {
 325:.\Generated_Source\PSoC5/cyfitter_cfg.c **** 	(uint8 CYXDATA *)CYREG_DSM0_SW3, 
 326:.\Generated_Source\PSoC5/cyfitter_cfg.c **** 	(uint8 CYXDATA *)CY_AMUX_UNUSED, 
 327:.\Generated_Source\PSoC5/cyfitter_cfg.c **** };
 328:.\Generated_Source\PSoC5/cyfitter_cfg.c **** 
 329:.\Generated_Source\PSoC5/cyfitter_cfg.c **** /* This is an implementation detail of the AMux. Code that depends on it may be
ARM GAS  C:\Users\Lois\AppData\Local\Temp\ccmucEQ9.s 			page 17


 330:.\Generated_Source\PSoC5/cyfitter_cfg.c ****    incompatible with other versions of PSoC Creator. */
 331:.\Generated_Source\PSoC5/cyfitter_cfg.c **** const uint8 CYCODE ADC_AMux__maskTable[2] = {
 332:.\Generated_Source\PSoC5/cyfitter_cfg.c **** 	0x40u, 
 333:.\Generated_Source\PSoC5/cyfitter_cfg.c **** 	0x00u, 
 334:.\Generated_Source\PSoC5/cyfitter_cfg.c **** };
 335:.\Generated_Source\PSoC5/cyfitter_cfg.c **** 
 336:.\Generated_Source\PSoC5/cyfitter_cfg.c **** /*******************************************************************************
 337:.\Generated_Source\PSoC5/cyfitter_cfg.c **** * Function Name: ADC_AMux_Set
 338:.\Generated_Source\PSoC5/cyfitter_cfg.c **** ********************************************************************************
 339:.\Generated_Source\PSoC5/cyfitter_cfg.c **** * Summary:
 340:.\Generated_Source\PSoC5/cyfitter_cfg.c **** *  This function is used to set a particular channel as active on the AMux.
 341:.\Generated_Source\PSoC5/cyfitter_cfg.c **** *
 342:.\Generated_Source\PSoC5/cyfitter_cfg.c **** * Parameters:  
 343:.\Generated_Source\PSoC5/cyfitter_cfg.c **** *   channel - The mux channel input to set as active
 344:.\Generated_Source\PSoC5/cyfitter_cfg.c **** *
 345:.\Generated_Source\PSoC5/cyfitter_cfg.c **** * Return:
 346:.\Generated_Source\PSoC5/cyfitter_cfg.c **** *   void
 347:.\Generated_Source\PSoC5/cyfitter_cfg.c **** *
 348:.\Generated_Source\PSoC5/cyfitter_cfg.c **** *******************************************************************************/
 349:.\Generated_Source\PSoC5/cyfitter_cfg.c **** void ADC_AMux_Set(uint8 channel)
 350:.\Generated_Source\PSoC5/cyfitter_cfg.c **** {
 578              		.loc 1 350 0
 579              		.cfi_startproc
 580              		@ args = 0, pretend = 0, frame = 8
 581              		@ frame_needed = 1, uses_anonymous_args = 0
 582              		@ link register save eliminated.
 583 0000 80B4     		push	{r7}
 584              		.cfi_def_cfa_offset 4
 585              		.cfi_offset 7, -4
 586 0002 83B0     		sub	sp, sp, #12
 587              		.cfi_def_cfa_offset 16
 588 0004 00AF     		add	r7, sp, #0
 589              		.cfi_def_cfa_register 7
 590 0006 0346     		mov	r3, r0
 591 0008 FB71     		strb	r3, [r7, #7]
 351:.\Generated_Source\PSoC5/cyfitter_cfg.c **** 	if (channel < 2)
 592              		.loc 1 351 0
 593 000a FB79     		ldrb	r3, [r7, #7]	@ zero_extendqisi2
 594 000c 012B     		cmp	r3, #1
 595 000e 0ED8     		bhi	.L23
 352:.\Generated_Source\PSoC5/cyfitter_cfg.c **** 	{
 353:.\Generated_Source\PSoC5/cyfitter_cfg.c **** 		*ADC_AMux__addrTable[channel] |= ADC_AMux__maskTable[channel];
 596              		.loc 1 353 0
 597 0010 FB79     		ldrb	r3, [r7, #7]	@ zero_extendqisi2
 598 0012 094A     		ldr	r2, .L25
 599 0014 52F82330 		ldr	r3, [r2, r3, lsl #2]
 600 0018 FA79     		ldrb	r2, [r7, #7]	@ zero_extendqisi2
 601 001a 0749     		ldr	r1, .L25
 602 001c 51F82220 		ldr	r2, [r1, r2, lsl #2]
 603 0020 1178     		ldrb	r1, [r2]	@ zero_extendqisi2
 604 0022 FA79     		ldrb	r2, [r7, #7]	@ zero_extendqisi2
 605 0024 0548     		ldr	r0, .L25+4
 606 0026 825C     		ldrb	r2, [r0, r2]	@ zero_extendqisi2
 607 0028 0A43     		orrs	r2, r2, r1
 608 002a D2B2     		uxtb	r2, r2
 609 002c 1A70     		strb	r2, [r3]
 610              	.L23:
ARM GAS  C:\Users\Lois\AppData\Local\Temp\ccmucEQ9.s 			page 18


 354:.\Generated_Source\PSoC5/cyfitter_cfg.c **** 	}
 355:.\Generated_Source\PSoC5/cyfitter_cfg.c **** }
 611              		.loc 1 355 0
 612 002e 0C37     		adds	r7, r7, #12
 613              		.cfi_def_cfa_offset 4
 614 0030 BD46     		mov	sp, r7
 615              		.cfi_def_cfa_register 13
 616              		@ sp needed
 617 0032 5DF8047B 		ldr	r7, [sp], #4
 618              		.cfi_restore 7
 619              		.cfi_def_cfa_offset 0
 620 0036 7047     		bx	lr
 621              	.L26:
 622              		.align	2
 623              	.L25:
 624 0038 00000000 		.word	ADC_AMux__addrTable
 625 003c 00000000 		.word	ADC_AMux__maskTable
 626              		.cfi_endproc
 627              	.LFE7:
 628              		.size	ADC_AMux_Set, .-ADC_AMux_Set
 629              		.section	.text.ADC_AMux_Unset,"ax",%progbits
 630              		.align	2
 631              		.global	ADC_AMux_Unset
 632              		.thumb
 633              		.thumb_func
 634              		.type	ADC_AMux_Unset, %function
 635              	ADC_AMux_Unset:
 636              	.LFB8:
 356:.\Generated_Source\PSoC5/cyfitter_cfg.c **** 
 357:.\Generated_Source\PSoC5/cyfitter_cfg.c **** /*******************************************************************************
 358:.\Generated_Source\PSoC5/cyfitter_cfg.c **** * Function Name: ADC_AMux_Unset
 359:.\Generated_Source\PSoC5/cyfitter_cfg.c **** ********************************************************************************
 360:.\Generated_Source\PSoC5/cyfitter_cfg.c **** * Summary:
 361:.\Generated_Source\PSoC5/cyfitter_cfg.c **** *  This function is used to clear a particular channel from being active on the
 362:.\Generated_Source\PSoC5/cyfitter_cfg.c **** *  AMux.
 363:.\Generated_Source\PSoC5/cyfitter_cfg.c **** *
 364:.\Generated_Source\PSoC5/cyfitter_cfg.c **** * Parameters:  
 365:.\Generated_Source\PSoC5/cyfitter_cfg.c **** *   channel - The mux channel input to mark inactive
 366:.\Generated_Source\PSoC5/cyfitter_cfg.c **** *
 367:.\Generated_Source\PSoC5/cyfitter_cfg.c **** * Return:
 368:.\Generated_Source\PSoC5/cyfitter_cfg.c **** *   void
 369:.\Generated_Source\PSoC5/cyfitter_cfg.c **** *
 370:.\Generated_Source\PSoC5/cyfitter_cfg.c **** *******************************************************************************/
 371:.\Generated_Source\PSoC5/cyfitter_cfg.c **** void ADC_AMux_Unset(uint8 channel)
 372:.\Generated_Source\PSoC5/cyfitter_cfg.c **** {
 637              		.loc 1 372 0
 638              		.cfi_startproc
 639              		@ args = 0, pretend = 0, frame = 8
 640              		@ frame_needed = 1, uses_anonymous_args = 0
 641              		@ link register save eliminated.
 642 0000 80B4     		push	{r7}
 643              		.cfi_def_cfa_offset 4
 644              		.cfi_offset 7, -4
 645 0002 83B0     		sub	sp, sp, #12
 646              		.cfi_def_cfa_offset 16
 647 0004 00AF     		add	r7, sp, #0
 648              		.cfi_def_cfa_register 7
ARM GAS  C:\Users\Lois\AppData\Local\Temp\ccmucEQ9.s 			page 19


 649 0006 0346     		mov	r3, r0
 650 0008 FB71     		strb	r3, [r7, #7]
 373:.\Generated_Source\PSoC5/cyfitter_cfg.c **** 	if (channel < 2)
 651              		.loc 1 373 0
 652 000a FB79     		ldrb	r3, [r7, #7]	@ zero_extendqisi2
 653 000c 012B     		cmp	r3, #1
 654 000e 10D8     		bhi	.L27
 374:.\Generated_Source\PSoC5/cyfitter_cfg.c **** 	{
 375:.\Generated_Source\PSoC5/cyfitter_cfg.c **** 		*ADC_AMux__addrTable[channel] &= (uint8)~ADC_AMux__maskTable[channel];
 655              		.loc 1 375 0
 656 0010 FB79     		ldrb	r3, [r7, #7]	@ zero_extendqisi2
 657 0012 0A4A     		ldr	r2, .L29
 658 0014 52F82330 		ldr	r3, [r2, r3, lsl #2]
 659 0018 FA79     		ldrb	r2, [r7, #7]	@ zero_extendqisi2
 660 001a 0849     		ldr	r1, .L29
 661 001c 51F82220 		ldr	r2, [r1, r2, lsl #2]
 662 0020 1178     		ldrb	r1, [r2]	@ zero_extendqisi2
 663 0022 FA79     		ldrb	r2, [r7, #7]	@ zero_extendqisi2
 664 0024 0648     		ldr	r0, .L29+4
 665 0026 825C     		ldrb	r2, [r0, r2]	@ zero_extendqisi2
 666 0028 D243     		mvns	r2, r2
 667 002a D2B2     		uxtb	r2, r2
 668 002c 0A40     		ands	r2, r2, r1
 669 002e D2B2     		uxtb	r2, r2
 670 0030 1A70     		strb	r2, [r3]
 671              	.L27:
 376:.\Generated_Source\PSoC5/cyfitter_cfg.c **** 	}
 377:.\Generated_Source\PSoC5/cyfitter_cfg.c **** }
 672              		.loc 1 377 0
 673 0032 0C37     		adds	r7, r7, #12
 674              		.cfi_def_cfa_offset 4
 675 0034 BD46     		mov	sp, r7
 676              		.cfi_def_cfa_register 13
 677              		@ sp needed
 678 0036 5DF8047B 		ldr	r7, [sp], #4
 679              		.cfi_restore 7
 680              		.cfi_def_cfa_offset 0
 681 003a 7047     		bx	lr
 682              	.L30:
 683              		.align	2
 684              	.L29:
 685 003c 00000000 		.word	ADC_AMux__addrTable
 686 0040 00000000 		.word	ADC_AMux__maskTable
 687              		.cfi_endproc
 688              	.LFE8:
 689              		.size	ADC_AMux_Unset, .-ADC_AMux_Unset
 690              		.section	.text.cyfitter_cfg,"ax",%progbits
 691              		.align	2
 692              		.global	cyfitter_cfg
 693              		.thumb
 694              		.thumb_func
 695              		.type	cyfitter_cfg, %function
 696              	cyfitter_cfg:
 697              	.LFB9:
 378:.\Generated_Source\PSoC5/cyfitter_cfg.c **** 
 379:.\Generated_Source\PSoC5/cyfitter_cfg.c **** 
 380:.\Generated_Source\PSoC5/cyfitter_cfg.c **** 
ARM GAS  C:\Users\Lois\AppData\Local\Temp\ccmucEQ9.s 			page 20


 381:.\Generated_Source\PSoC5/cyfitter_cfg.c **** /*******************************************************************************
 382:.\Generated_Source\PSoC5/cyfitter_cfg.c **** * Function Name: cyfitter_cfg
 383:.\Generated_Source\PSoC5/cyfitter_cfg.c **** ********************************************************************************
 384:.\Generated_Source\PSoC5/cyfitter_cfg.c **** * Summary:
 385:.\Generated_Source\PSoC5/cyfitter_cfg.c **** *  This function is called by the start-up code for the selected device. It
 386:.\Generated_Source\PSoC5/cyfitter_cfg.c **** *  performs all of the necessary device configuration based on the design
 387:.\Generated_Source\PSoC5/cyfitter_cfg.c **** *  settings.  This includes settings from the Design Wide Resources (DWR) such
 388:.\Generated_Source\PSoC5/cyfitter_cfg.c **** *  as Clocks and Pins as well as any component configuration that is necessary.
 389:.\Generated_Source\PSoC5/cyfitter_cfg.c **** *
 390:.\Generated_Source\PSoC5/cyfitter_cfg.c **** * Parameters:  
 391:.\Generated_Source\PSoC5/cyfitter_cfg.c **** *   void
 392:.\Generated_Source\PSoC5/cyfitter_cfg.c **** *
 393:.\Generated_Source\PSoC5/cyfitter_cfg.c **** * Return:
 394:.\Generated_Source\PSoC5/cyfitter_cfg.c **** *   void
 395:.\Generated_Source\PSoC5/cyfitter_cfg.c **** *
 396:.\Generated_Source\PSoC5/cyfitter_cfg.c **** *******************************************************************************/
 397:.\Generated_Source\PSoC5/cyfitter_cfg.c **** 
 398:.\Generated_Source\PSoC5/cyfitter_cfg.c **** void cyfitter_cfg(void)
 399:.\Generated_Source\PSoC5/cyfitter_cfg.c **** {
 698              		.loc 1 399 0
 699              		.cfi_startproc
 700              		@ args = 0, pretend = 0, frame = 8
 701              		@ frame_needed = 1, uses_anonymous_args = 0
 702 0000 80B5     		push	{r7, lr}
 703              		.cfi_def_cfa_offset 8
 704              		.cfi_offset 7, -8
 705              		.cfi_offset 14, -4
 706 0002 82B0     		sub	sp, sp, #8
 707              		.cfi_def_cfa_offset 16
 708 0004 00AF     		add	r7, sp, #0
 709              		.cfi_def_cfa_register 7
 400:.\Generated_Source\PSoC5/cyfitter_cfg.c **** #ifdef CYGlobalIntDisable
 401:.\Generated_Source\PSoC5/cyfitter_cfg.c **** 	/* Disable interrupts by default. Let user enable if/when they want. */
 402:.\Generated_Source\PSoC5/cyfitter_cfg.c **** 	CYGlobalIntDisable
 710              		.loc 1 402 0
 711              	@ 402 ".\Generated_Source\PSoC5\cyfitter_cfg.c" 1
 712 0006 72B6     		CPSID   i
 713              	@ 0 "" 2
 714              		.thumb
 715              	.LBB3:
 403:.\Generated_Source\PSoC5/cyfitter_cfg.c **** #endif
 404:.\Generated_Source\PSoC5/cyfitter_cfg.c **** 
 405:.\Generated_Source\PSoC5/cyfitter_cfg.c **** 	{
 406:.\Generated_Source\PSoC5/cyfitter_cfg.c **** 
 407:.\Generated_Source\PSoC5/cyfitter_cfg.c **** 		CYPACKED typedef struct {
 408:.\Generated_Source\PSoC5/cyfitter_cfg.c **** 			void CYFAR *address;
 409:.\Generated_Source\PSoC5/cyfitter_cfg.c **** 			uint16 size;
 410:.\Generated_Source\PSoC5/cyfitter_cfg.c **** 		} CYPACKED_ATTR cfg_memset_t;
 411:.\Generated_Source\PSoC5/cyfitter_cfg.c **** 
 412:.\Generated_Source\PSoC5/cyfitter_cfg.c **** 		static const cfg_memset_t CYCODE cfg_memset_list [] = {
 413:.\Generated_Source\PSoC5/cyfitter_cfg.c **** 			/* address, size */
 414:.\Generated_Source\PSoC5/cyfitter_cfg.c **** 			{(void CYFAR *)(CYREG_PRT2_DR), 16u},
 415:.\Generated_Source\PSoC5/cyfitter_cfg.c **** 			{(void CYFAR *)(CYREG_PRT5_DR), 16u},
 416:.\Generated_Source\PSoC5/cyfitter_cfg.c **** 			{(void CYFAR *)(CYDEV_UCFG_B0_P0_U0_BASE), 4096u},
 417:.\Generated_Source\PSoC5/cyfitter_cfg.c **** 			{(void CYFAR *)(CYDEV_UCFG_B1_P2_U0_BASE), 2048u},
 418:.\Generated_Source\PSoC5/cyfitter_cfg.c **** 			{(void CYFAR *)(CYDEV_UCFG_DSI0_BASE), 2560u},
 419:.\Generated_Source\PSoC5/cyfitter_cfg.c **** 			{(void CYFAR *)(CYDEV_UCFG_DSI12_BASE), 512u},
ARM GAS  C:\Users\Lois\AppData\Local\Temp\ccmucEQ9.s 			page 21


 420:.\Generated_Source\PSoC5/cyfitter_cfg.c **** 			{(void CYFAR *)(CYREG_BCTL0_MDCLK_EN), 32u},
 421:.\Generated_Source\PSoC5/cyfitter_cfg.c **** 		};
 422:.\Generated_Source\PSoC5/cyfitter_cfg.c **** 
 423:.\Generated_Source\PSoC5/cyfitter_cfg.c **** 		uint8 CYDATA i;
 424:.\Generated_Source\PSoC5/cyfitter_cfg.c **** 
 425:.\Generated_Source\PSoC5/cyfitter_cfg.c **** 		/* Zero out critical memory blocks before beginning configuration */
 426:.\Generated_Source\PSoC5/cyfitter_cfg.c **** 		for (i = 0u; i < (sizeof(cfg_memset_list)/sizeof(cfg_memset_list[0])); i++)
 716              		.loc 1 426 0
 717 0008 0023     		movs	r3, #0
 718 000a FB71     		strb	r3, [r7, #7]
 719 000c 13E0     		b	.L32
 720              	.L33:
 721              	.LBB4:
 427:.\Generated_Source\PSoC5/cyfitter_cfg.c **** 		{
 428:.\Generated_Source\PSoC5/cyfitter_cfg.c **** 			const cfg_memset_t CYCODE * CYDATA ms = &cfg_memset_list[i];
 722              		.loc 1 428 0 discriminator 3
 723 000e FA79     		ldrb	r2, [r7, #7]	@ zero_extendqisi2
 724 0010 1346     		mov	r3, r2
 725 0012 5B00     		lsls	r3, r3, #1
 726 0014 1344     		add	r3, r3, r2
 727 0016 5B00     		lsls	r3, r3, #1
 728 0018 3B4A     		ldr	r2, .L34
 729 001a 1344     		add	r3, r3, r2
 730 001c 3B60     		str	r3, [r7]
 429:.\Generated_Source\PSoC5/cyfitter_cfg.c **** 			CYMEMZERO(ms->address, (size_t)(uint32)(ms->size));
 731              		.loc 1 429 0 discriminator 3
 732 001e 3B68     		ldr	r3, [r7]
 733 0020 1A68     		ldr	r2, [r3]	@ unaligned
 734 0022 3B68     		ldr	r3, [r7]
 735 0024 9B88     		ldrh	r3, [r3, #4]	@ unaligned
 736 0026 9BB2     		uxth	r3, r3
 737 0028 1046     		mov	r0, r2
 738 002a 1946     		mov	r1, r3
 739 002c FFF7FEFF 		bl	CYMEMZERO
 740              	.LBE4:
 426:.\Generated_Source\PSoC5/cyfitter_cfg.c **** 		{
 741              		.loc 1 426 0 discriminator 3
 742 0030 FB79     		ldrb	r3, [r7, #7]	@ zero_extendqisi2
 743 0032 0133     		adds	r3, r3, #1
 744 0034 FB71     		strb	r3, [r7, #7]
 745              	.L32:
 426:.\Generated_Source\PSoC5/cyfitter_cfg.c **** 		{
 746              		.loc 1 426 0 is_stmt 0 discriminator 1
 747 0036 FB79     		ldrb	r3, [r7, #7]	@ zero_extendqisi2
 748 0038 062B     		cmp	r3, #6
 749 003a E8D9     		bls	.L33
 430:.\Generated_Source\PSoC5/cyfitter_cfg.c **** 		}
 431:.\Generated_Source\PSoC5/cyfitter_cfg.c **** 
 432:.\Generated_Source\PSoC5/cyfitter_cfg.c **** 		cfg_write_bytes32(cy_cfg_addr_table, cy_cfg_data_table);
 750              		.loc 1 432 0 is_stmt 1
 751 003c 4FF09040 		mov	r0, #1207959552
 752 0040 3249     		ldr	r1, .L34+4
 753 0042 FFF7FEFF 		bl	cfg_write_bytes32
 433:.\Generated_Source\PSoC5/cyfitter_cfg.c **** 
 434:.\Generated_Source\PSoC5/cyfitter_cfg.c **** 		/* Perform normal device configuration. Order is not critical for these items. */
 435:.\Generated_Source\PSoC5/cyfitter_cfg.c **** 		CY_SET_XTND_REG8((void CYFAR *)(CYREG_DSM0_CR3), 0x0Au);
 754              		.loc 1 435 0
ARM GAS  C:\Users\Lois\AppData\Local\Temp\ccmucEQ9.s 			page 22


 755 0046 324B     		ldr	r3, .L34+8
 756 0048 0A22     		movs	r2, #10
 757 004a 1A70     		strb	r2, [r3]
 436:.\Generated_Source\PSoC5/cyfitter_cfg.c **** 
 437:.\Generated_Source\PSoC5/cyfitter_cfg.c **** 		/* Enable digital routing */
 438:.\Generated_Source\PSoC5/cyfitter_cfg.c **** 		CY_SET_XTND_REG8((void CYFAR *)CYREG_BCTL0_BANK_CTL, CY_GET_XTND_REG8((void CYFAR *)CYREG_BCTL0_B
 758              		.loc 1 438 0
 759 004c 314A     		ldr	r2, .L34+12
 760 004e 314B     		ldr	r3, .L34+12
 761 0050 1B78     		ldrb	r3, [r3]
 762 0052 DBB2     		uxtb	r3, r3
 763 0054 43F00203 		orr	r3, r3, #2
 764 0058 DBB2     		uxtb	r3, r3
 765 005a 1370     		strb	r3, [r2]
 439:.\Generated_Source\PSoC5/cyfitter_cfg.c **** 		CY_SET_XTND_REG8((void CYFAR *)CYREG_BCTL1_BANK_CTL, CY_GET_XTND_REG8((void CYFAR *)CYREG_BCTL1_B
 766              		.loc 1 439 0
 767 005c 2E4A     		ldr	r2, .L34+16
 768 005e 2E4B     		ldr	r3, .L34+16
 769 0060 1B78     		ldrb	r3, [r3]
 770 0062 DBB2     		uxtb	r3, r3
 771 0064 43F00203 		orr	r3, r3, #2
 772 0068 DBB2     		uxtb	r3, r3
 773 006a 1370     		strb	r3, [r2]
 440:.\Generated_Source\PSoC5/cyfitter_cfg.c **** 
 441:.\Generated_Source\PSoC5/cyfitter_cfg.c **** 		/* Enable UDB array */
 442:.\Generated_Source\PSoC5/cyfitter_cfg.c **** 		CY_SET_XTND_REG8((void CYFAR *)CYREG_PM_ACT_CFG0, CY_GET_XTND_REG8((void CYFAR *)CYREG_PM_ACT_CFG
 774              		.loc 1 442 0
 775 006c 2B4A     		ldr	r2, .L34+20
 776 006e 2B4B     		ldr	r3, .L34+20
 777 0070 1B78     		ldrb	r3, [r3]
 778 0072 DBB2     		uxtb	r3, r3
 779 0074 43F04003 		orr	r3, r3, #64
 780 0078 DBB2     		uxtb	r3, r3
 781 007a 1370     		strb	r3, [r2]
 443:.\Generated_Source\PSoC5/cyfitter_cfg.c **** 		CY_SET_XTND_REG8((void CYFAR *)CYREG_PM_AVAIL_CR2, CY_GET_XTND_REG8((void CYFAR *)CYREG_PM_AVAIL_
 782              		.loc 1 443 0
 783 007c 284A     		ldr	r2, .L34+24
 784 007e 284B     		ldr	r3, .L34+24
 785 0080 1B78     		ldrb	r3, [r3]
 786 0082 DBB2     		uxtb	r3, r3
 787 0084 43F01003 		orr	r3, r3, #16
 788 0088 DBB2     		uxtb	r3, r3
 789 008a 1370     		strb	r3, [r2]
 790              	.LBE3:
 444:.\Generated_Source\PSoC5/cyfitter_cfg.c **** 	}
 445:.\Generated_Source\PSoC5/cyfitter_cfg.c **** 
 446:.\Generated_Source\PSoC5/cyfitter_cfg.c **** 
 447:.\Generated_Source\PSoC5/cyfitter_cfg.c **** 	/* Perform second pass device configuration. These items must be configured in specific order afte
 448:.\Generated_Source\PSoC5/cyfitter_cfg.c **** 	CYCONFIGCPY((void CYFAR *)(CYREG_PRT0_DM0), (const void CYFAR *)(BS_IOPINS0_0_VAL), 8u);
 791              		.loc 1 448 0
 792 008c 2548     		ldr	r0, .L34+28
 793 008e 2649     		ldr	r1, .L34+32
 794 0090 0822     		movs	r2, #8
 795 0092 FFF7FEFF 		bl	CYCONFIGCPY
 449:.\Generated_Source\PSoC5/cyfitter_cfg.c **** 	CYCONFIGCPY((void CYFAR *)(CYREG_PRT12_DM0), (const void CYFAR *)(BS_IOPINS0_7_VAL), 8u);
 796              		.loc 1 449 0
 797 0096 2548     		ldr	r0, .L34+36
ARM GAS  C:\Users\Lois\AppData\Local\Temp\ccmucEQ9.s 			page 23


 798 0098 2549     		ldr	r1, .L34+40
 799 009a 0822     		movs	r2, #8
 800 009c FFF7FEFF 		bl	CYCONFIGCPY
 450:.\Generated_Source\PSoC5/cyfitter_cfg.c **** 	CYCONFIGCPY((void CYFAR *)(CYREG_PRT15_DR), (const void CYFAR *)(BS_IOPINS0_8_VAL), 10u);
 801              		.loc 1 450 0
 802 00a0 2448     		ldr	r0, .L34+44
 803 00a2 2549     		ldr	r1, .L34+48
 804 00a4 0A22     		movs	r2, #10
 805 00a6 FFF7FEFF 		bl	CYCONFIGCPY
 451:.\Generated_Source\PSoC5/cyfitter_cfg.c **** 	CYCONFIGCPY((void CYFAR *)(CYREG_PRT1_DR), (const void CYFAR *)(BS_IOPINS0_1_VAL), 10u);
 806              		.loc 1 451 0
 807 00aa 2448     		ldr	r0, .L34+52
 808 00ac 2449     		ldr	r1, .L34+56
 809 00ae 0A22     		movs	r2, #10
 810 00b0 FFF7FEFF 		bl	CYCONFIGCPY
 452:.\Generated_Source\PSoC5/cyfitter_cfg.c **** 	CYCONFIGCPY((void CYFAR *)(CYREG_PRT3_DM0), (const void CYFAR *)(BS_IOPINS0_3_VAL), 8u);
 811              		.loc 1 452 0
 812 00b4 2348     		ldr	r0, .L34+60
 813 00b6 2449     		ldr	r1, .L34+64
 814 00b8 0822     		movs	r2, #8
 815 00ba FFF7FEFF 		bl	CYCONFIGCPY
 453:.\Generated_Source\PSoC5/cyfitter_cfg.c **** 	CYCONFIGCPY((void CYFAR *)(CYREG_PRT4_DM0), (const void CYFAR *)(BS_IOPINS0_4_VAL), 8u);
 816              		.loc 1 453 0
 817 00be 2348     		ldr	r0, .L34+68
 818 00c0 2349     		ldr	r1, .L34+72
 819 00c2 0822     		movs	r2, #8
 820 00c4 FFF7FEFF 		bl	CYCONFIGCPY
 454:.\Generated_Source\PSoC5/cyfitter_cfg.c **** 	CYCONFIGCPY((void CYFAR *)(CYREG_PRT6_DM0), (const void CYFAR *)(BS_IOPINS0_6_VAL), 8u);
 821              		.loc 1 454 0
 822 00c8 2248     		ldr	r0, .L34+76
 823 00ca 2349     		ldr	r1, .L34+80
 824 00cc 0822     		movs	r2, #8
 825 00ce FFF7FEFF 		bl	CYCONFIGCPY
 455:.\Generated_Source\PSoC5/cyfitter_cfg.c **** 	/* Switch Boost to the precision bandgap reference from its internal reference */
 456:.\Generated_Source\PSoC5/cyfitter_cfg.c **** 	CY_SET_REG8((void CYXDATA *)CYREG_BOOST_CR2, (CY_GET_REG8((void CYXDATA *)CYREG_BOOST_CR2) | 0x08u
 826              		.loc 1 456 0
 827 00d2 224A     		ldr	r2, .L34+84
 828 00d4 214B     		ldr	r3, .L34+84
 829 00d6 1B78     		ldrb	r3, [r3]
 830 00d8 DBB2     		uxtb	r3, r3
 831 00da 43F00803 		orr	r3, r3, #8
 832 00de DBB2     		uxtb	r3, r3
 833 00e0 1370     		strb	r3, [r2]
 457:.\Generated_Source\PSoC5/cyfitter_cfg.c **** 
 458:.\Generated_Source\PSoC5/cyfitter_cfg.c **** 	/* Set Flash Cycles based on max possible frequency in case a glitch occurs during ClockSetup(). *
 459:.\Generated_Source\PSoC5/cyfitter_cfg.c **** 	CY_SET_XTND_REG8((void CYFAR *)(CYREG_CACHE_CC_CTL), (((CYDEV_INSTRUCT_CACHE_ENABLED) != 0) ? 0x01
 834              		.loc 1 459 0
 835 00e2 1F4B     		ldr	r3, .L34+88
 836 00e4 0122     		movs	r2, #1
 837 00e6 1A70     		strb	r2, [r3]
 460:.\Generated_Source\PSoC5/cyfitter_cfg.c **** 	/* Setup clocks based on selections from Clock DWR */
 461:.\Generated_Source\PSoC5/cyfitter_cfg.c **** 	ClockSetup();
 838              		.loc 1 461 0
 839 00e8 FFF7FEFF 		bl	ClockSetup
 462:.\Generated_Source\PSoC5/cyfitter_cfg.c **** 	/* Set Flash Cycles based on newly configured 24.00MHz Bus Clock. */
 463:.\Generated_Source\PSoC5/cyfitter_cfg.c **** 	CY_SET_XTND_REG8((void CYFAR *)(CYREG_CACHE_CC_CTL), (((CYDEV_INSTRUCT_CACHE_ENABLED) != 0) ? 0x81
 840              		.loc 1 463 0
ARM GAS  C:\Users\Lois\AppData\Local\Temp\ccmucEQ9.s 			page 24


 841 00ec 1C4B     		ldr	r3, .L34+88
 842 00ee 8122     		movs	r2, #129
 843 00f0 1A70     		strb	r2, [r3]
 464:.\Generated_Source\PSoC5/cyfitter_cfg.c **** 
 465:.\Generated_Source\PSoC5/cyfitter_cfg.c **** 	/* Perform basic analog initialization to defaults */
 466:.\Generated_Source\PSoC5/cyfitter_cfg.c **** 	AnalogSetDefault();
 844              		.loc 1 466 0
 845 00f2 FFF7FEFF 		bl	AnalogSetDefault
 467:.\Generated_Source\PSoC5/cyfitter_cfg.c **** 
 468:.\Generated_Source\PSoC5/cyfitter_cfg.c **** 	/* Configure alternate active mode */
 469:.\Generated_Source\PSoC5/cyfitter_cfg.c **** 	CYCONFIGCPY((void CYFAR *)CYDEV_PM_STBY_BASE, (const void CYFAR *)CYDEV_PM_ACT_BASE, 14u);
 846              		.loc 1 469 0
 847 00f6 1B48     		ldr	r0, .L34+92
 848 00f8 0849     		ldr	r1, .L34+20
 849 00fa 0E22     		movs	r2, #14
 850 00fc FFF7FEFF 		bl	CYCONFIGCPY
 470:.\Generated_Source\PSoC5/cyfitter_cfg.c **** }
 851              		.loc 1 470 0
 852 0100 0837     		adds	r7, r7, #8
 853              		.cfi_def_cfa_offset 8
 854 0102 BD46     		mov	sp, r7
 855              		.cfi_def_cfa_register 13
 856              		@ sp needed
 857 0104 80BD     		pop	{r7, pc}
 858              	.L35:
 859 0106 00BF     		.align	2
 860              	.L34:
 861 0108 0C000000 		.word	cfg_memset_list.4884
 862 010c 8C000048 		.word	1207959692
 863 0110 83580040 		.word	1073764483
 864 0114 03500140 		.word	1073827843
 865 0118 13500140 		.word	1073827859
 866 011c A0430040 		.word	1073759136
 867 0120 C2430040 		.word	1073759170
 868 0124 02510040 		.word	1073762562
 869 0128 AC060048 		.word	1207961260
 870 012c C2510040 		.word	1073762754
 871 0130 B4060048 		.word	1207961268
 872 0134 F0510040 		.word	1073762800
 873 0138 BC060048 		.word	1207961276
 874 013c 10510040 		.word	1073762576
 875 0140 C8060048 		.word	1207961288
 876 0144 32510040 		.word	1073762610
 877 0148 D4060048 		.word	1207961300
 878 014c 42510040 		.word	1073762626
 879 0150 DC060048 		.word	1207961308
 880 0154 62510040 		.word	1073762658
 881 0158 E4060048 		.word	1207961316
 882 015c 22430040 		.word	1073759010
 883 0160 00480040 		.word	1073760256
 884 0164 B0430040 		.word	1073759152
 885              		.cfi_endproc
 886              	.LFE9:
 887              		.size	cyfitter_cfg, .-cyfitter_cfg
 888              		.section	.rodata
 889 000a 0000     		.align	2
 890              		.type	cfg_memset_list.4884, %object
ARM GAS  C:\Users\Lois\AppData\Local\Temp\ccmucEQ9.s 			page 25


 891              		.size	cfg_memset_list.4884, 42
 892              	cfg_memset_list.4884:
 893 000c 20510040 		.word	1073762592
 894 0010 1000     		.short	16
 895 0012 50510040 		.4byte	1073762640
 896 0016 1000     		.short	16
 897 0018 00000140 		.word	1073807360
 898 001c 0010     		.short	4096
 899 001e 00140140 		.4byte	1073812480
 900 0022 0008     		.short	2048
 901 0024 00400140 		.word	1073823744
 902 0028 000A     		.short	2560
 903 002a 004C0140 		.4byte	1073826816
 904 002e 0002     		.short	512
 905 0030 00500140 		.word	1073827840
 906 0034 2000     		.short	32
 907 0036 0000     		.text
 908              	.Letext0:
 909              		.file 2 "c:\\program files (x86)\\cypress\\psoc creator\\3.3\\psoc creator\\import\\gnu\\arm\\4.9.
 910              		.file 3 ".\\Generated_Source\\PSoC5\\cytypes.h"
 911              		.section	.debug_info,"",%progbits
 912              	.Ldebug_info0:
 913 0000 0C040000 		.4byte	0x40c
 914 0004 0400     		.2byte	0x4
 915 0006 00000000 		.4byte	.Ldebug_abbrev0
 916 000a 04       		.byte	0x4
 917 000b 01       		.uleb128 0x1
 918 000c 22010000 		.4byte	.LASF49
 919 0010 01       		.byte	0x1
 920 0011 A2020000 		.4byte	.LASF50
 921 0015 68000000 		.4byte	.LASF51
 922 0019 00000000 		.4byte	.Ldebug_ranges0+0
 923 001d 00000000 		.4byte	0
 924 0021 00000000 		.4byte	.Ldebug_line0
 925 0025 02       		.uleb128 0x2
 926 0026 04       		.byte	0x4
 927 0027 05       		.byte	0x5
 928 0028 696E7400 		.ascii	"int\000"
 929 002c 03       		.uleb128 0x3
 930 002d 06000000 		.4byte	.LASF11
 931 0031 02       		.byte	0x2
 932 0032 D4       		.byte	0xd4
 933 0033 37000000 		.4byte	0x37
 934 0037 04       		.uleb128 0x4
 935 0038 04       		.byte	0x4
 936 0039 07       		.byte	0x7
 937 003a FA010000 		.4byte	.LASF0
 938 003e 04       		.uleb128 0x4
 939 003f 01       		.byte	0x1
 940 0040 06       		.byte	0x6
 941 0041 F2020000 		.4byte	.LASF1
 942 0045 04       		.uleb128 0x4
 943 0046 01       		.byte	0x1
 944 0047 08       		.byte	0x8
 945 0048 14010000 		.4byte	.LASF2
 946 004c 04       		.uleb128 0x4
 947 004d 02       		.byte	0x2
ARM GAS  C:\Users\Lois\AppData\Local\Temp\ccmucEQ9.s 			page 26


 948 004e 05       		.byte	0x5
 949 004f 98020000 		.4byte	.LASF3
 950 0053 04       		.uleb128 0x4
 951 0054 02       		.byte	0x2
 952 0055 07       		.byte	0x7
 953 0056 3D000000 		.4byte	.LASF4
 954 005a 04       		.uleb128 0x4
 955 005b 04       		.byte	0x4
 956 005c 05       		.byte	0x5
 957 005d D2020000 		.4byte	.LASF5
 958 0061 04       		.uleb128 0x4
 959 0062 04       		.byte	0x4
 960 0063 07       		.byte	0x7
 961 0064 C8000000 		.4byte	.LASF6
 962 0068 04       		.uleb128 0x4
 963 0069 08       		.byte	0x8
 964 006a 05       		.byte	0x5
 965 006b 59020000 		.4byte	.LASF7
 966 006f 04       		.uleb128 0x4
 967 0070 08       		.byte	0x8
 968 0071 07       		.byte	0x7
 969 0072 0F020000 		.4byte	.LASF8
 970 0076 04       		.uleb128 0x4
 971 0077 04       		.byte	0x4
 972 0078 07       		.byte	0x7
 973 0079 50020000 		.4byte	.LASF9
 974 007d 05       		.uleb128 0x5
 975 007e 04       		.byte	0x4
 976 007f 04       		.uleb128 0x4
 977 0080 01       		.byte	0x1
 978 0081 08       		.byte	0x8
 979 0082 DB020000 		.4byte	.LASF10
 980 0086 03       		.uleb128 0x3
 981 0087 DA000000 		.4byte	.LASF12
 982 008b 03       		.byte	0x3
 983 008c A1       		.byte	0xa1
 984 008d 45000000 		.4byte	0x45
 985 0091 03       		.uleb128 0x3
 986 0092 E1010000 		.4byte	.LASF13
 987 0096 03       		.byte	0x3
 988 0097 A2       		.byte	0xa2
 989 0098 53000000 		.4byte	0x53
 990 009c 03       		.uleb128 0x3
 991 009d F3010000 		.4byte	.LASF14
 992 00a1 03       		.byte	0x3
 993 00a2 A3       		.byte	0xa3
 994 00a3 61000000 		.4byte	0x61
 995 00a7 04       		.uleb128 0x4
 996 00a8 04       		.byte	0x4
 997 00a9 04       		.byte	0x4
 998 00aa 96000000 		.4byte	.LASF15
 999 00ae 04       		.uleb128 0x4
 1000 00af 08       		.byte	0x8
 1001 00b0 04       		.byte	0x4
 1002 00b1 B0010000 		.4byte	.LASF16
 1003 00b5 06       		.uleb128 0x6
 1004 00b6 B6000000 		.4byte	.LASF17
ARM GAS  C:\Users\Lois\AppData\Local\Temp\ccmucEQ9.s 			page 27


 1005 00ba 03       		.byte	0x3
 1006 00bb 4B01     		.2byte	0x14b
 1007 00bd C1000000 		.4byte	0xc1
 1008 00c1 07       		.uleb128 0x7
 1009 00c2 86000000 		.4byte	0x86
 1010 00c6 06       		.uleb128 0x6
 1011 00c7 00000000 		.4byte	.LASF18
 1012 00cb 03       		.byte	0x3
 1013 00cc 4C01     		.2byte	0x14c
 1014 00ce D2000000 		.4byte	0xd2
 1015 00d2 07       		.uleb128 0x7
 1016 00d3 91000000 		.4byte	0x91
 1017 00d7 08       		.uleb128 0x8
 1018 00d8 02       		.byte	0x2
 1019 00d9 01       		.byte	0x1
 1020 00da 7C       		.byte	0x7c
 1021 00db F8000000 		.4byte	0xf8
 1022 00df 09       		.uleb128 0x9
 1023 00e0 91020000 		.4byte	.LASF19
 1024 00e4 01       		.byte	0x1
 1025 00e5 7E       		.byte	0x7e
 1026 00e6 86000000 		.4byte	0x86
 1027 00ea 00       		.byte	0
 1028 00eb 09       		.uleb128 0x9
 1029 00ec 1E000000 		.4byte	.LASF20
 1030 00f0 01       		.byte	0x1
 1031 00f1 7F       		.byte	0x7f
 1032 00f2 86000000 		.4byte	0x86
 1033 00f6 01       		.byte	0x1
 1034 00f7 00       		.byte	0
 1035 00f8 03       		.uleb128 0x3
 1036 00f9 7E020000 		.4byte	.LASF21
 1037 00fd 01       		.byte	0x1
 1038 00fe 80       		.byte	0x80
 1039 00ff D7000000 		.4byte	0xd7
 1040 0103 0A       		.uleb128 0xa
 1041 0104 E0000000 		.4byte	.LASF22
 1042 0108 01       		.byte	0x1
 1043 0109 3A       		.byte	0x3a
 1044 010a 00000000 		.4byte	.LFB0
 1045 010e 1A000000 		.4byte	.LFE0-.LFB0
 1046 0112 01       		.uleb128 0x1
 1047 0113 9C       		.byte	0x9c
 1048 0114 31010000 		.4byte	0x131
 1049 0118 0B       		.uleb128 0xb
 1050 0119 7300     		.ascii	"s\000"
 1051 011b 01       		.byte	0x1
 1052 011c 3A       		.byte	0x3a
 1053 011d 7D000000 		.4byte	0x7d
 1054 0121 02       		.uleb128 0x2
 1055 0122 91       		.byte	0x91
 1056 0123 74       		.sleb128 -12
 1057 0124 0B       		.uleb128 0xb
 1058 0125 6E00     		.ascii	"n\000"
 1059 0127 01       		.byte	0x1
 1060 0128 3A       		.byte	0x3a
 1061 0129 2C000000 		.4byte	0x2c
ARM GAS  C:\Users\Lois\AppData\Local\Temp\ccmucEQ9.s 			page 28


 1062 012d 02       		.uleb128 0x2
 1063 012e 91       		.byte	0x91
 1064 012f 70       		.sleb128 -16
 1065 0130 00       		.byte	0
 1066 0131 0A       		.uleb128 0xa
 1067 0132 07030000 		.4byte	.LASF23
 1068 0136 01       		.byte	0x1
 1069 0137 41       		.byte	0x41
 1070 0138 00000000 		.4byte	.LFB1
 1071 013c 1C000000 		.4byte	.LFE1-.LFB1
 1072 0140 01       		.uleb128 0x1
 1073 0141 9C       		.byte	0x9c
 1074 0142 6F010000 		.4byte	0x16f
 1075 0146 0C       		.uleb128 0xc
 1076 0147 9C000000 		.4byte	.LASF24
 1077 014b 01       		.byte	0x1
 1078 014c 41       		.byte	0x41
 1079 014d 7D000000 		.4byte	0x7d
 1080 0151 02       		.uleb128 0x2
 1081 0152 91       		.byte	0x91
 1082 0153 74       		.sleb128 -12
 1083 0154 0B       		.uleb128 0xb
 1084 0155 73726300 		.ascii	"src\000"
 1085 0159 01       		.byte	0x1
 1086 015a 41       		.byte	0x41
 1087 015b 6F010000 		.4byte	0x16f
 1088 015f 02       		.uleb128 0x2
 1089 0160 91       		.byte	0x91
 1090 0161 70       		.sleb128 -16
 1091 0162 0B       		.uleb128 0xb
 1092 0163 6E00     		.ascii	"n\000"
 1093 0165 01       		.byte	0x1
 1094 0166 41       		.byte	0x41
 1095 0167 2C000000 		.4byte	0x2c
 1096 016b 02       		.uleb128 0x2
 1097 016c 91       		.byte	0x91
 1098 016d 6C       		.sleb128 -20
 1099 016e 00       		.byte	0
 1100 016f 0D       		.uleb128 0xd
 1101 0170 04       		.byte	0x4
 1102 0171 75010000 		.4byte	0x175
 1103 0175 0E       		.uleb128 0xe
 1104 0176 0A       		.uleb128 0xa
 1105 0177 50000000 		.4byte	.LASF25
 1106 017b 01       		.byte	0x1
 1107 017c 48       		.byte	0x48
 1108 017d 00000000 		.4byte	.LFB2
 1109 0181 1C000000 		.4byte	.LFE2-.LFB2
 1110 0185 01       		.uleb128 0x1
 1111 0186 9C       		.byte	0x9c
 1112 0187 B4010000 		.4byte	0x1b4
 1113 018b 0C       		.uleb128 0xc
 1114 018c 9C000000 		.4byte	.LASF24
 1115 0190 01       		.byte	0x1
 1116 0191 48       		.byte	0x48
 1117 0192 7D000000 		.4byte	0x7d
 1118 0196 02       		.uleb128 0x2
ARM GAS  C:\Users\Lois\AppData\Local\Temp\ccmucEQ9.s 			page 29


 1119 0197 91       		.byte	0x91
 1120 0198 74       		.sleb128 -12
 1121 0199 0B       		.uleb128 0xb
 1122 019a 73726300 		.ascii	"src\000"
 1123 019e 01       		.byte	0x1
 1124 019f 48       		.byte	0x48
 1125 01a0 6F010000 		.4byte	0x16f
 1126 01a4 02       		.uleb128 0x2
 1127 01a5 91       		.byte	0x91
 1128 01a6 70       		.sleb128 -16
 1129 01a7 0B       		.uleb128 0xb
 1130 01a8 6E00     		.ascii	"n\000"
 1131 01aa 01       		.byte	0x1
 1132 01ab 48       		.byte	0x48
 1133 01ac 2C000000 		.4byte	0x2c
 1134 01b0 02       		.uleb128 0x2
 1135 01b1 91       		.byte	0x91
 1136 01b2 6C       		.sleb128 -20
 1137 01b3 00       		.byte	0
 1138 01b4 0F       		.uleb128 0xf
 1139 01b5 B7010000 		.4byte	.LASF26
 1140 01b9 01       		.byte	0x1
 1141 01ba AD       		.byte	0xad
 1142 01bb 00000000 		.4byte	.LFB3
 1143 01bf 74000000 		.4byte	.LFE3-.LFB3
 1144 01c3 01       		.uleb128 0x1
 1145 01c4 9C       		.byte	0x9c
 1146 01c5 24020000 		.4byte	0x224
 1147 01c9 0C       		.uleb128 0xc
 1148 01ca D6010000 		.4byte	.LASF27
 1149 01ce 01       		.byte	0x1
 1150 01cf AD       		.byte	0xad
 1151 01d0 24020000 		.4byte	0x224
 1152 01d4 02       		.uleb128 0x2
 1153 01d5 91       		.byte	0x91
 1154 01d6 64       		.sleb128 -28
 1155 01d7 0C       		.uleb128 0xc
 1156 01d8 E8010000 		.4byte	.LASF28
 1157 01dc 01       		.byte	0x1
 1158 01dd AD       		.byte	0xad
 1159 01de 2F020000 		.4byte	0x22f
 1160 01e2 02       		.uleb128 0x2
 1161 01e3 91       		.byte	0x91
 1162 01e4 60       		.sleb128 -32
 1163 01e5 10       		.uleb128 0x10
 1164 01e6 6900     		.ascii	"i\000"
 1165 01e8 01       		.byte	0x1
 1166 01e9 B0       		.byte	0xb0
 1167 01ea 9C000000 		.4byte	0x9c
 1168 01ee 02       		.uleb128 0x2
 1169 01ef 91       		.byte	0x91
 1170 01f0 74       		.sleb128 -12
 1171 01f1 10       		.uleb128 0x10
 1172 01f2 6A00     		.ascii	"j\000"
 1173 01f4 01       		.byte	0x1
 1174 01f5 B0       		.byte	0xb0
 1175 01f6 9C000000 		.4byte	0x9c
ARM GAS  C:\Users\Lois\AppData\Local\Temp\ccmucEQ9.s 			page 30


 1176 01fa 02       		.uleb128 0x2
 1177 01fb 91       		.byte	0x91
 1178 01fc 70       		.sleb128 -16
 1179 01fd 11       		.uleb128 0x11
 1180 01fe 14000000 		.4byte	.LBB2
 1181 0202 4A000000 		.4byte	.LBE2-.LBB2
 1182 0206 12       		.uleb128 0x12
 1183 0207 47020000 		.4byte	.LASF29
 1184 020b 01       		.byte	0x1
 1185 020c B3       		.byte	0xb3
 1186 020d 9C000000 		.4byte	0x9c
 1187 0211 02       		.uleb128 0x2
 1188 0212 91       		.byte	0x91
 1189 0213 68       		.sleb128 -24
 1190 0214 12       		.uleb128 0x12
 1191 0215 24000000 		.4byte	.LASF30
 1192 0219 01       		.byte	0x1
 1193 021a B4       		.byte	0xb4
 1194 021b 86000000 		.4byte	0x86
 1195 021f 02       		.uleb128 0x2
 1196 0220 91       		.byte	0x91
 1197 0221 6F       		.sleb128 -17
 1198 0222 00       		.byte	0
 1199 0223 00       		.byte	0
 1200 0224 0D       		.uleb128 0xd
 1201 0225 04       		.byte	0x4
 1202 0226 2A020000 		.4byte	0x22a
 1203 022a 13       		.uleb128 0x13
 1204 022b 9C000000 		.4byte	0x9c
 1205 022f 0D       		.uleb128 0xd
 1206 0230 04       		.byte	0x4
 1207 0231 35020000 		.4byte	0x235
 1208 0235 13       		.uleb128 0x13
 1209 0236 F8000000 		.4byte	0xf8
 1210 023a 0A       		.uleb128 0xa
 1211 023b 2A000000 		.4byte	.LASF31
 1212 023f 01       		.byte	0x1
 1213 0240 D0       		.byte	0xd0
 1214 0241 00000000 		.4byte	.LFB4
 1215 0245 4C010000 		.4byte	.LFE4-.LFB4
 1216 0249 01       		.uleb128 0x1
 1217 024a 9C       		.byte	0x9c
 1218 024b 6C020000 		.4byte	0x26c
 1219 024f 12       		.uleb128 0x12
 1220 0250 67020000 		.4byte	.LASF32
 1221 0254 01       		.byte	0x1
 1222 0255 D2       		.byte	0xd2
 1223 0256 9C000000 		.4byte	0x9c
 1224 025a 02       		.uleb128 0x2
 1225 025b 91       		.byte	0x91
 1226 025c 74       		.sleb128 -12
 1227 025d 12       		.uleb128 0x12
 1228 025e 60000000 		.4byte	.LASF33
 1229 0262 01       		.byte	0x1
 1230 0263 D3       		.byte	0xd3
 1231 0264 86000000 		.4byte	0x86
 1232 0268 02       		.uleb128 0x2
ARM GAS  C:\Users\Lois\AppData\Local\Temp\ccmucEQ9.s 			page 31


 1233 0269 91       		.byte	0x91
 1234 026a 73       		.sleb128 -13
 1235 026b 00       		.byte	0
 1236 026c 14       		.uleb128 0x14
 1237 026d 0D000000 		.4byte	.LASF34
 1238 0271 01       		.byte	0x1
 1239 0272 1601     		.2byte	0x116
 1240 0274 00000000 		.4byte	.LFB5
 1241 0278 60000000 		.4byte	.LFE5-.LFB5
 1242 027c 01       		.uleb128 0x1
 1243 027d 9C       		.byte	0x9c
 1244 027e 92020000 		.4byte	0x292
 1245 0282 15       		.uleb128 0x15
 1246 0283 E0020000 		.4byte	.LASF35
 1247 0287 01       		.byte	0x1
 1248 0288 1801     		.2byte	0x118
 1249 028a 86000000 		.4byte	0x86
 1250 028e 02       		.uleb128 0x2
 1251 028f 91       		.byte	0x91
 1252 0290 77       		.sleb128 -9
 1253 0291 00       		.byte	0
 1254 0292 16       		.uleb128 0x16
 1255 0293 EA000000 		.4byte	.LASF38
 1256 0297 01       		.byte	0x1
 1257 0298 3301     		.2byte	0x133
 1258 029a 00000000 		.4byte	.LFB6
 1259 029e 3C000000 		.4byte	.LFE6-.LFB6
 1260 02a2 01       		.uleb128 0x1
 1261 02a3 9C       		.byte	0x9c
 1262 02a4 C7020000 		.4byte	0x2c7
 1263 02a8 17       		.uleb128 0x17
 1264 02a9 CA020000 		.4byte	.LASF36
 1265 02ad 01       		.byte	0x1
 1266 02ae 3301     		.2byte	0x133
 1267 02b0 86000000 		.4byte	0x86
 1268 02b4 02       		.uleb128 0x2
 1269 02b5 91       		.byte	0x91
 1270 02b6 6F       		.sleb128 -17
 1271 02b7 15       		.uleb128 0x15
 1272 02b8 FE020000 		.4byte	.LASF37
 1273 02bc 01       		.byte	0x1
 1274 02bd 3501     		.2byte	0x135
 1275 02bf 86000000 		.4byte	0x86
 1276 02c3 02       		.uleb128 0x2
 1277 02c4 91       		.byte	0x91
 1278 02c5 77       		.sleb128 -9
 1279 02c6 00       		.byte	0
 1280 02c7 16       		.uleb128 0x16
 1281 02c8 BB000000 		.4byte	.LASF39
 1282 02cc 01       		.byte	0x1
 1283 02cd 5D01     		.2byte	0x15d
 1284 02cf 00000000 		.4byte	.LFB7
 1285 02d3 40000000 		.4byte	.LFE7-.LFB7
 1286 02d7 01       		.uleb128 0x1
 1287 02d8 9C       		.byte	0x9c
 1288 02d9 ED020000 		.4byte	0x2ed
 1289 02dd 17       		.uleb128 0x17
ARM GAS  C:\Users\Lois\AppData\Local\Temp\ccmucEQ9.s 			page 32


 1290 02de 35000000 		.4byte	.LASF40
 1291 02e2 01       		.byte	0x1
 1292 02e3 5D01     		.2byte	0x15d
 1293 02e5 86000000 		.4byte	0x86
 1294 02e9 02       		.uleb128 0x2
 1295 02ea 91       		.byte	0x91
 1296 02eb 77       		.sleb128 -9
 1297 02ec 00       		.byte	0
 1298 02ed 16       		.uleb128 0x16
 1299 02ee 6F020000 		.4byte	.LASF41
 1300 02f2 01       		.byte	0x1
 1301 02f3 7301     		.2byte	0x173
 1302 02f5 00000000 		.4byte	.LFB8
 1303 02f9 44000000 		.4byte	.LFE8-.LFB8
 1304 02fd 01       		.uleb128 0x1
 1305 02fe 9C       		.byte	0x9c
 1306 02ff 13030000 		.4byte	0x313
 1307 0303 17       		.uleb128 0x17
 1308 0304 35000000 		.4byte	.LASF40
 1309 0308 01       		.byte	0x1
 1310 0309 7301     		.2byte	0x173
 1311 030b 86000000 		.4byte	0x86
 1312 030f 02       		.uleb128 0x2
 1313 0310 91       		.byte	0x91
 1314 0311 77       		.sleb128 -9
 1315 0312 00       		.byte	0
 1316 0313 18       		.uleb128 0x18
 1317 0314 C9010000 		.4byte	.LASF42
 1318 0318 01       		.byte	0x1
 1319 0319 8E01     		.2byte	0x18e
 1320 031b 00000000 		.4byte	.LFB9
 1321 031f 68010000 		.4byte	.LFE9-.LFB9
 1322 0323 01       		.uleb128 0x1
 1323 0324 9C       		.byte	0x9c
 1324 0325 BB030000 		.4byte	0x3bb
 1325 0329 11       		.uleb128 0x11
 1326 032a 08000000 		.4byte	.LBB3
 1327 032e 84000000 		.4byte	.LBE3-.LBB3
 1328 0332 19       		.uleb128 0x19
 1329 0333 06       		.byte	0x6
 1330 0334 01       		.byte	0x1
 1331 0335 9701     		.2byte	0x197
 1332 0337 56030000 		.4byte	0x356
 1333 033b 1A       		.uleb128 0x1a
 1334 033c 07020000 		.4byte	.LASF43
 1335 0340 01       		.byte	0x1
 1336 0341 9801     		.2byte	0x198
 1337 0343 7D000000 		.4byte	0x7d
 1338 0347 00       		.byte	0
 1339 0348 1A       		.uleb128 0x1a
 1340 0349 B1000000 		.4byte	.LASF44
 1341 034d 01       		.byte	0x1
 1342 034e 9901     		.2byte	0x199
 1343 0350 91000000 		.4byte	0x91
 1344 0354 04       		.byte	0x4
 1345 0355 00       		.byte	0
 1346 0356 06       		.uleb128 0x6
ARM GAS  C:\Users\Lois\AppData\Local\Temp\ccmucEQ9.s 			page 33


 1347 0357 3A020000 		.4byte	.LASF45
 1348 035b 01       		.byte	0x1
 1349 035c 9A01     		.2byte	0x19a
 1350 035e 32030000 		.4byte	0x332
 1351 0362 1B       		.uleb128 0x1b
 1352 0363 56030000 		.4byte	0x356
 1353 0367 72030000 		.4byte	0x372
 1354 036b 1C       		.uleb128 0x1c
 1355 036c 76000000 		.4byte	0x76
 1356 0370 06       		.byte	0x6
 1357 0371 00       		.byte	0
 1358 0372 15       		.uleb128 0x15
 1359 0373 A1000000 		.4byte	.LASF46
 1360 0377 01       		.byte	0x1
 1361 0378 9C01     		.2byte	0x19c
 1362 037a 84030000 		.4byte	0x384
 1363 037e 05       		.uleb128 0x5
 1364 037f 03       		.byte	0x3
 1365 0380 0C000000 		.4byte	cfg_memset_list.4884
 1366 0384 13       		.uleb128 0x13
 1367 0385 62030000 		.4byte	0x362
 1368 0389 1D       		.uleb128 0x1d
 1369 038a 6900     		.ascii	"i\000"
 1370 038c 01       		.byte	0x1
 1371 038d A701     		.2byte	0x1a7
 1372 038f 86000000 		.4byte	0x86
 1373 0393 02       		.uleb128 0x2
 1374 0394 91       		.byte	0x91
 1375 0395 77       		.sleb128 -9
 1376 0396 11       		.uleb128 0x11
 1377 0397 0E000000 		.4byte	.LBB4
 1378 039b 22000000 		.4byte	.LBE4-.LBB4
 1379 039f 1D       		.uleb128 0x1d
 1380 03a0 6D7300   		.ascii	"ms\000"
 1381 03a3 01       		.byte	0x1
 1382 03a4 AC01     		.2byte	0x1ac
 1383 03a6 AD030000 		.4byte	0x3ad
 1384 03aa 02       		.uleb128 0x2
 1385 03ab 91       		.byte	0x91
 1386 03ac 70       		.sleb128 -16
 1387 03ad 0D       		.uleb128 0xd
 1388 03ae 04       		.byte	0x4
 1389 03af B3030000 		.4byte	0x3b3
 1390 03b3 13       		.uleb128 0x13
 1391 03b4 56030000 		.4byte	0x356
 1392 03b8 00       		.byte	0
 1393 03b9 00       		.byte	0
 1394 03ba 00       		.byte	0
 1395 03bb 1B       		.uleb128 0x1b
 1396 03bc CB030000 		.4byte	0x3cb
 1397 03c0 CB030000 		.4byte	0x3cb
 1398 03c4 1C       		.uleb128 0x1c
 1399 03c5 76000000 		.4byte	0x76
 1400 03c9 01       		.byte	0x1
 1401 03ca 00       		.byte	0
 1402 03cb 0D       		.uleb128 0xd
 1403 03cc 04       		.byte	0x4
ARM GAS  C:\Users\Lois\AppData\Local\Temp\ccmucEQ9.s 			page 34


 1404 03cd 86000000 		.4byte	0x86
 1405 03d1 1E       		.uleb128 0x1e
 1406 03d2 00010000 		.4byte	.LASF47
 1407 03d6 01       		.byte	0x1
 1408 03d7 4401     		.2byte	0x144
 1409 03d9 E3030000 		.4byte	0x3e3
 1410 03dd 05       		.uleb128 0x5
 1411 03de 03       		.byte	0x3
 1412 03df 00000000 		.4byte	ADC_AMux__addrTable
 1413 03e3 13       		.uleb128 0x13
 1414 03e4 BB030000 		.4byte	0x3bb
 1415 03e8 1B       		.uleb128 0x1b
 1416 03e9 86000000 		.4byte	0x86
 1417 03ed F8030000 		.4byte	0x3f8
 1418 03f1 1C       		.uleb128 0x1c
 1419 03f2 76000000 		.4byte	0x76
 1420 03f6 01       		.byte	0x1
 1421 03f7 00       		.byte	0
 1422 03f8 1E       		.uleb128 0x1e
 1423 03f9 26020000 		.4byte	.LASF48
 1424 03fd 01       		.byte	0x1
 1425 03fe 4B01     		.2byte	0x14b
 1426 0400 0A040000 		.4byte	0x40a
 1427 0404 05       		.uleb128 0x5
 1428 0405 03       		.byte	0x3
 1429 0406 00000000 		.4byte	ADC_AMux__maskTable
 1430 040a 13       		.uleb128 0x13
 1431 040b E8030000 		.4byte	0x3e8
 1432 040f 00       		.byte	0
 1433              		.section	.debug_abbrev,"",%progbits
 1434              	.Ldebug_abbrev0:
 1435 0000 01       		.uleb128 0x1
 1436 0001 11       		.uleb128 0x11
 1437 0002 01       		.byte	0x1
 1438 0003 25       		.uleb128 0x25
 1439 0004 0E       		.uleb128 0xe
 1440 0005 13       		.uleb128 0x13
 1441 0006 0B       		.uleb128 0xb
 1442 0007 03       		.uleb128 0x3
 1443 0008 0E       		.uleb128 0xe
 1444 0009 1B       		.uleb128 0x1b
 1445 000a 0E       		.uleb128 0xe
 1446 000b 55       		.uleb128 0x55
 1447 000c 17       		.uleb128 0x17
 1448 000d 11       		.uleb128 0x11
 1449 000e 01       		.uleb128 0x1
 1450 000f 10       		.uleb128 0x10
 1451 0010 17       		.uleb128 0x17
 1452 0011 00       		.byte	0
 1453 0012 00       		.byte	0
 1454 0013 02       		.uleb128 0x2
 1455 0014 24       		.uleb128 0x24
 1456 0015 00       		.byte	0
 1457 0016 0B       		.uleb128 0xb
 1458 0017 0B       		.uleb128 0xb
 1459 0018 3E       		.uleb128 0x3e
 1460 0019 0B       		.uleb128 0xb
ARM GAS  C:\Users\Lois\AppData\Local\Temp\ccmucEQ9.s 			page 35


 1461 001a 03       		.uleb128 0x3
 1462 001b 08       		.uleb128 0x8
 1463 001c 00       		.byte	0
 1464 001d 00       		.byte	0
 1465 001e 03       		.uleb128 0x3
 1466 001f 16       		.uleb128 0x16
 1467 0020 00       		.byte	0
 1468 0021 03       		.uleb128 0x3
 1469 0022 0E       		.uleb128 0xe
 1470 0023 3A       		.uleb128 0x3a
 1471 0024 0B       		.uleb128 0xb
 1472 0025 3B       		.uleb128 0x3b
 1473 0026 0B       		.uleb128 0xb
 1474 0027 49       		.uleb128 0x49
 1475 0028 13       		.uleb128 0x13
 1476 0029 00       		.byte	0
 1477 002a 00       		.byte	0
 1478 002b 04       		.uleb128 0x4
 1479 002c 24       		.uleb128 0x24
 1480 002d 00       		.byte	0
 1481 002e 0B       		.uleb128 0xb
 1482 002f 0B       		.uleb128 0xb
 1483 0030 3E       		.uleb128 0x3e
 1484 0031 0B       		.uleb128 0xb
 1485 0032 03       		.uleb128 0x3
 1486 0033 0E       		.uleb128 0xe
 1487 0034 00       		.byte	0
 1488 0035 00       		.byte	0
 1489 0036 05       		.uleb128 0x5
 1490 0037 0F       		.uleb128 0xf
 1491 0038 00       		.byte	0
 1492 0039 0B       		.uleb128 0xb
 1493 003a 0B       		.uleb128 0xb
 1494 003b 00       		.byte	0
 1495 003c 00       		.byte	0
 1496 003d 06       		.uleb128 0x6
 1497 003e 16       		.uleb128 0x16
 1498 003f 00       		.byte	0
 1499 0040 03       		.uleb128 0x3
 1500 0041 0E       		.uleb128 0xe
 1501 0042 3A       		.uleb128 0x3a
 1502 0043 0B       		.uleb128 0xb
 1503 0044 3B       		.uleb128 0x3b
 1504 0045 05       		.uleb128 0x5
 1505 0046 49       		.uleb128 0x49
 1506 0047 13       		.uleb128 0x13
 1507 0048 00       		.byte	0
 1508 0049 00       		.byte	0
 1509 004a 07       		.uleb128 0x7
 1510 004b 35       		.uleb128 0x35
 1511 004c 00       		.byte	0
 1512 004d 49       		.uleb128 0x49
 1513 004e 13       		.uleb128 0x13
 1514 004f 00       		.byte	0
 1515 0050 00       		.byte	0
 1516 0051 08       		.uleb128 0x8
 1517 0052 13       		.uleb128 0x13
ARM GAS  C:\Users\Lois\AppData\Local\Temp\ccmucEQ9.s 			page 36


 1518 0053 01       		.byte	0x1
 1519 0054 0B       		.uleb128 0xb
 1520 0055 0B       		.uleb128 0xb
 1521 0056 3A       		.uleb128 0x3a
 1522 0057 0B       		.uleb128 0xb
 1523 0058 3B       		.uleb128 0x3b
 1524 0059 0B       		.uleb128 0xb
 1525 005a 01       		.uleb128 0x1
 1526 005b 13       		.uleb128 0x13
 1527 005c 00       		.byte	0
 1528 005d 00       		.byte	0
 1529 005e 09       		.uleb128 0x9
 1530 005f 0D       		.uleb128 0xd
 1531 0060 00       		.byte	0
 1532 0061 03       		.uleb128 0x3
 1533 0062 0E       		.uleb128 0xe
 1534 0063 3A       		.uleb128 0x3a
 1535 0064 0B       		.uleb128 0xb
 1536 0065 3B       		.uleb128 0x3b
 1537 0066 0B       		.uleb128 0xb
 1538 0067 49       		.uleb128 0x49
 1539 0068 13       		.uleb128 0x13
 1540 0069 38       		.uleb128 0x38
 1541 006a 0B       		.uleb128 0xb
 1542 006b 00       		.byte	0
 1543 006c 00       		.byte	0
 1544 006d 0A       		.uleb128 0xa
 1545 006e 2E       		.uleb128 0x2e
 1546 006f 01       		.byte	0x1
 1547 0070 03       		.uleb128 0x3
 1548 0071 0E       		.uleb128 0xe
 1549 0072 3A       		.uleb128 0x3a
 1550 0073 0B       		.uleb128 0xb
 1551 0074 3B       		.uleb128 0x3b
 1552 0075 0B       		.uleb128 0xb
 1553 0076 27       		.uleb128 0x27
 1554 0077 19       		.uleb128 0x19
 1555 0078 11       		.uleb128 0x11
 1556 0079 01       		.uleb128 0x1
 1557 007a 12       		.uleb128 0x12
 1558 007b 06       		.uleb128 0x6
 1559 007c 40       		.uleb128 0x40
 1560 007d 18       		.uleb128 0x18
 1561 007e 9642     		.uleb128 0x2116
 1562 0080 19       		.uleb128 0x19
 1563 0081 01       		.uleb128 0x1
 1564 0082 13       		.uleb128 0x13
 1565 0083 00       		.byte	0
 1566 0084 00       		.byte	0
 1567 0085 0B       		.uleb128 0xb
 1568 0086 05       		.uleb128 0x5
 1569 0087 00       		.byte	0
 1570 0088 03       		.uleb128 0x3
 1571 0089 08       		.uleb128 0x8
 1572 008a 3A       		.uleb128 0x3a
 1573 008b 0B       		.uleb128 0xb
 1574 008c 3B       		.uleb128 0x3b
ARM GAS  C:\Users\Lois\AppData\Local\Temp\ccmucEQ9.s 			page 37


 1575 008d 0B       		.uleb128 0xb
 1576 008e 49       		.uleb128 0x49
 1577 008f 13       		.uleb128 0x13
 1578 0090 02       		.uleb128 0x2
 1579 0091 18       		.uleb128 0x18
 1580 0092 00       		.byte	0
 1581 0093 00       		.byte	0
 1582 0094 0C       		.uleb128 0xc
 1583 0095 05       		.uleb128 0x5
 1584 0096 00       		.byte	0
 1585 0097 03       		.uleb128 0x3
 1586 0098 0E       		.uleb128 0xe
 1587 0099 3A       		.uleb128 0x3a
 1588 009a 0B       		.uleb128 0xb
 1589 009b 3B       		.uleb128 0x3b
 1590 009c 0B       		.uleb128 0xb
 1591 009d 49       		.uleb128 0x49
 1592 009e 13       		.uleb128 0x13
 1593 009f 02       		.uleb128 0x2
 1594 00a0 18       		.uleb128 0x18
 1595 00a1 00       		.byte	0
 1596 00a2 00       		.byte	0
 1597 00a3 0D       		.uleb128 0xd
 1598 00a4 0F       		.uleb128 0xf
 1599 00a5 00       		.byte	0
 1600 00a6 0B       		.uleb128 0xb
 1601 00a7 0B       		.uleb128 0xb
 1602 00a8 49       		.uleb128 0x49
 1603 00a9 13       		.uleb128 0x13
 1604 00aa 00       		.byte	0
 1605 00ab 00       		.byte	0
 1606 00ac 0E       		.uleb128 0xe
 1607 00ad 26       		.uleb128 0x26
 1608 00ae 00       		.byte	0
 1609 00af 00       		.byte	0
 1610 00b0 00       		.byte	0
 1611 00b1 0F       		.uleb128 0xf
 1612 00b2 2E       		.uleb128 0x2e
 1613 00b3 01       		.byte	0x1
 1614 00b4 03       		.uleb128 0x3
 1615 00b5 0E       		.uleb128 0xe
 1616 00b6 3A       		.uleb128 0x3a
 1617 00b7 0B       		.uleb128 0xb
 1618 00b8 3B       		.uleb128 0x3b
 1619 00b9 0B       		.uleb128 0xb
 1620 00ba 27       		.uleb128 0x27
 1621 00bb 19       		.uleb128 0x19
 1622 00bc 11       		.uleb128 0x11
 1623 00bd 01       		.uleb128 0x1
 1624 00be 12       		.uleb128 0x12
 1625 00bf 06       		.uleb128 0x6
 1626 00c0 40       		.uleb128 0x40
 1627 00c1 18       		.uleb128 0x18
 1628 00c2 9742     		.uleb128 0x2117
 1629 00c4 19       		.uleb128 0x19
 1630 00c5 01       		.uleb128 0x1
 1631 00c6 13       		.uleb128 0x13
ARM GAS  C:\Users\Lois\AppData\Local\Temp\ccmucEQ9.s 			page 38


 1632 00c7 00       		.byte	0
 1633 00c8 00       		.byte	0
 1634 00c9 10       		.uleb128 0x10
 1635 00ca 34       		.uleb128 0x34
 1636 00cb 00       		.byte	0
 1637 00cc 03       		.uleb128 0x3
 1638 00cd 08       		.uleb128 0x8
 1639 00ce 3A       		.uleb128 0x3a
 1640 00cf 0B       		.uleb128 0xb
 1641 00d0 3B       		.uleb128 0x3b
 1642 00d1 0B       		.uleb128 0xb
 1643 00d2 49       		.uleb128 0x49
 1644 00d3 13       		.uleb128 0x13
 1645 00d4 02       		.uleb128 0x2
 1646 00d5 18       		.uleb128 0x18
 1647 00d6 00       		.byte	0
 1648 00d7 00       		.byte	0
 1649 00d8 11       		.uleb128 0x11
 1650 00d9 0B       		.uleb128 0xb
 1651 00da 01       		.byte	0x1
 1652 00db 11       		.uleb128 0x11
 1653 00dc 01       		.uleb128 0x1
 1654 00dd 12       		.uleb128 0x12
 1655 00de 06       		.uleb128 0x6
 1656 00df 00       		.byte	0
 1657 00e0 00       		.byte	0
 1658 00e1 12       		.uleb128 0x12
 1659 00e2 34       		.uleb128 0x34
 1660 00e3 00       		.byte	0
 1661 00e4 03       		.uleb128 0x3
 1662 00e5 0E       		.uleb128 0xe
 1663 00e6 3A       		.uleb128 0x3a
 1664 00e7 0B       		.uleb128 0xb
 1665 00e8 3B       		.uleb128 0x3b
 1666 00e9 0B       		.uleb128 0xb
 1667 00ea 49       		.uleb128 0x49
 1668 00eb 13       		.uleb128 0x13
 1669 00ec 02       		.uleb128 0x2
 1670 00ed 18       		.uleb128 0x18
 1671 00ee 00       		.byte	0
 1672 00ef 00       		.byte	0
 1673 00f0 13       		.uleb128 0x13
 1674 00f1 26       		.uleb128 0x26
 1675 00f2 00       		.byte	0
 1676 00f3 49       		.uleb128 0x49
 1677 00f4 13       		.uleb128 0x13
 1678 00f5 00       		.byte	0
 1679 00f6 00       		.byte	0
 1680 00f7 14       		.uleb128 0x14
 1681 00f8 2E       		.uleb128 0x2e
 1682 00f9 01       		.byte	0x1
 1683 00fa 03       		.uleb128 0x3
 1684 00fb 0E       		.uleb128 0xe
 1685 00fc 3A       		.uleb128 0x3a
 1686 00fd 0B       		.uleb128 0xb
 1687 00fe 3B       		.uleb128 0x3b
 1688 00ff 05       		.uleb128 0x5
ARM GAS  C:\Users\Lois\AppData\Local\Temp\ccmucEQ9.s 			page 39


 1689 0100 27       		.uleb128 0x27
 1690 0101 19       		.uleb128 0x19
 1691 0102 11       		.uleb128 0x11
 1692 0103 01       		.uleb128 0x1
 1693 0104 12       		.uleb128 0x12
 1694 0105 06       		.uleb128 0x6
 1695 0106 40       		.uleb128 0x40
 1696 0107 18       		.uleb128 0x18
 1697 0108 9742     		.uleb128 0x2117
 1698 010a 19       		.uleb128 0x19
 1699 010b 01       		.uleb128 0x1
 1700 010c 13       		.uleb128 0x13
 1701 010d 00       		.byte	0
 1702 010e 00       		.byte	0
 1703 010f 15       		.uleb128 0x15
 1704 0110 34       		.uleb128 0x34
 1705 0111 00       		.byte	0
 1706 0112 03       		.uleb128 0x3
 1707 0113 0E       		.uleb128 0xe
 1708 0114 3A       		.uleb128 0x3a
 1709 0115 0B       		.uleb128 0xb
 1710 0116 3B       		.uleb128 0x3b
 1711 0117 05       		.uleb128 0x5
 1712 0118 49       		.uleb128 0x49
 1713 0119 13       		.uleb128 0x13
 1714 011a 02       		.uleb128 0x2
 1715 011b 18       		.uleb128 0x18
 1716 011c 00       		.byte	0
 1717 011d 00       		.byte	0
 1718 011e 16       		.uleb128 0x16
 1719 011f 2E       		.uleb128 0x2e
 1720 0120 01       		.byte	0x1
 1721 0121 3F       		.uleb128 0x3f
 1722 0122 19       		.uleb128 0x19
 1723 0123 03       		.uleb128 0x3
 1724 0124 0E       		.uleb128 0xe
 1725 0125 3A       		.uleb128 0x3a
 1726 0126 0B       		.uleb128 0xb
 1727 0127 3B       		.uleb128 0x3b
 1728 0128 05       		.uleb128 0x5
 1729 0129 27       		.uleb128 0x27
 1730 012a 19       		.uleb128 0x19
 1731 012b 11       		.uleb128 0x11
 1732 012c 01       		.uleb128 0x1
 1733 012d 12       		.uleb128 0x12
 1734 012e 06       		.uleb128 0x6
 1735 012f 40       		.uleb128 0x40
 1736 0130 18       		.uleb128 0x18
 1737 0131 9742     		.uleb128 0x2117
 1738 0133 19       		.uleb128 0x19
 1739 0134 01       		.uleb128 0x1
 1740 0135 13       		.uleb128 0x13
 1741 0136 00       		.byte	0
 1742 0137 00       		.byte	0
 1743 0138 17       		.uleb128 0x17
 1744 0139 05       		.uleb128 0x5
 1745 013a 00       		.byte	0
ARM GAS  C:\Users\Lois\AppData\Local\Temp\ccmucEQ9.s 			page 40


 1746 013b 03       		.uleb128 0x3
 1747 013c 0E       		.uleb128 0xe
 1748 013d 3A       		.uleb128 0x3a
 1749 013e 0B       		.uleb128 0xb
 1750 013f 3B       		.uleb128 0x3b
 1751 0140 05       		.uleb128 0x5
 1752 0141 49       		.uleb128 0x49
 1753 0142 13       		.uleb128 0x13
 1754 0143 02       		.uleb128 0x2
 1755 0144 18       		.uleb128 0x18
 1756 0145 00       		.byte	0
 1757 0146 00       		.byte	0
 1758 0147 18       		.uleb128 0x18
 1759 0148 2E       		.uleb128 0x2e
 1760 0149 01       		.byte	0x1
 1761 014a 3F       		.uleb128 0x3f
 1762 014b 19       		.uleb128 0x19
 1763 014c 03       		.uleb128 0x3
 1764 014d 0E       		.uleb128 0xe
 1765 014e 3A       		.uleb128 0x3a
 1766 014f 0B       		.uleb128 0xb
 1767 0150 3B       		.uleb128 0x3b
 1768 0151 05       		.uleb128 0x5
 1769 0152 27       		.uleb128 0x27
 1770 0153 19       		.uleb128 0x19
 1771 0154 11       		.uleb128 0x11
 1772 0155 01       		.uleb128 0x1
 1773 0156 12       		.uleb128 0x12
 1774 0157 06       		.uleb128 0x6
 1775 0158 40       		.uleb128 0x40
 1776 0159 18       		.uleb128 0x18
 1777 015a 9642     		.uleb128 0x2116
 1778 015c 19       		.uleb128 0x19
 1779 015d 01       		.uleb128 0x1
 1780 015e 13       		.uleb128 0x13
 1781 015f 00       		.byte	0
 1782 0160 00       		.byte	0
 1783 0161 19       		.uleb128 0x19
 1784 0162 13       		.uleb128 0x13
 1785 0163 01       		.byte	0x1
 1786 0164 0B       		.uleb128 0xb
 1787 0165 0B       		.uleb128 0xb
 1788 0166 3A       		.uleb128 0x3a
 1789 0167 0B       		.uleb128 0xb
 1790 0168 3B       		.uleb128 0x3b
 1791 0169 05       		.uleb128 0x5
 1792 016a 01       		.uleb128 0x1
 1793 016b 13       		.uleb128 0x13
 1794 016c 00       		.byte	0
 1795 016d 00       		.byte	0
 1796 016e 1A       		.uleb128 0x1a
 1797 016f 0D       		.uleb128 0xd
 1798 0170 00       		.byte	0
 1799 0171 03       		.uleb128 0x3
 1800 0172 0E       		.uleb128 0xe
 1801 0173 3A       		.uleb128 0x3a
 1802 0174 0B       		.uleb128 0xb
ARM GAS  C:\Users\Lois\AppData\Local\Temp\ccmucEQ9.s 			page 41


 1803 0175 3B       		.uleb128 0x3b
 1804 0176 05       		.uleb128 0x5
 1805 0177 49       		.uleb128 0x49
 1806 0178 13       		.uleb128 0x13
 1807 0179 38       		.uleb128 0x38
 1808 017a 0B       		.uleb128 0xb
 1809 017b 00       		.byte	0
 1810 017c 00       		.byte	0
 1811 017d 1B       		.uleb128 0x1b
 1812 017e 01       		.uleb128 0x1
 1813 017f 01       		.byte	0x1
 1814 0180 49       		.uleb128 0x49
 1815 0181 13       		.uleb128 0x13
 1816 0182 01       		.uleb128 0x1
 1817 0183 13       		.uleb128 0x13
 1818 0184 00       		.byte	0
 1819 0185 00       		.byte	0
 1820 0186 1C       		.uleb128 0x1c
 1821 0187 21       		.uleb128 0x21
 1822 0188 00       		.byte	0
 1823 0189 49       		.uleb128 0x49
 1824 018a 13       		.uleb128 0x13
 1825 018b 2F       		.uleb128 0x2f
 1826 018c 0B       		.uleb128 0xb
 1827 018d 00       		.byte	0
 1828 018e 00       		.byte	0
 1829 018f 1D       		.uleb128 0x1d
 1830 0190 34       		.uleb128 0x34
 1831 0191 00       		.byte	0
 1832 0192 03       		.uleb128 0x3
 1833 0193 08       		.uleb128 0x8
 1834 0194 3A       		.uleb128 0x3a
 1835 0195 0B       		.uleb128 0xb
 1836 0196 3B       		.uleb128 0x3b
 1837 0197 05       		.uleb128 0x5
 1838 0198 49       		.uleb128 0x49
 1839 0199 13       		.uleb128 0x13
 1840 019a 02       		.uleb128 0x2
 1841 019b 18       		.uleb128 0x18
 1842 019c 00       		.byte	0
 1843 019d 00       		.byte	0
 1844 019e 1E       		.uleb128 0x1e
 1845 019f 34       		.uleb128 0x34
 1846 01a0 00       		.byte	0
 1847 01a1 03       		.uleb128 0x3
 1848 01a2 0E       		.uleb128 0xe
 1849 01a3 3A       		.uleb128 0x3a
 1850 01a4 0B       		.uleb128 0xb
 1851 01a5 3B       		.uleb128 0x3b
 1852 01a6 05       		.uleb128 0x5
 1853 01a7 49       		.uleb128 0x49
 1854 01a8 13       		.uleb128 0x13
 1855 01a9 3F       		.uleb128 0x3f
 1856 01aa 19       		.uleb128 0x19
 1857 01ab 02       		.uleb128 0x2
 1858 01ac 18       		.uleb128 0x18
 1859 01ad 00       		.byte	0
ARM GAS  C:\Users\Lois\AppData\Local\Temp\ccmucEQ9.s 			page 42


 1860 01ae 00       		.byte	0
 1861 01af 00       		.byte	0
 1862              		.section	.debug_aranges,"",%progbits
 1863 0000 64000000 		.4byte	0x64
 1864 0004 0200     		.2byte	0x2
 1865 0006 00000000 		.4byte	.Ldebug_info0
 1866 000a 04       		.byte	0x4
 1867 000b 00       		.byte	0
 1868 000c 0000     		.2byte	0
 1869 000e 0000     		.2byte	0
 1870 0010 00000000 		.4byte	.LFB0
 1871 0014 1A000000 		.4byte	.LFE0-.LFB0
 1872 0018 00000000 		.4byte	.LFB1
 1873 001c 1C000000 		.4byte	.LFE1-.LFB1
 1874 0020 00000000 		.4byte	.LFB2
 1875 0024 1C000000 		.4byte	.LFE2-.LFB2
 1876 0028 00000000 		.4byte	.LFB3
 1877 002c 74000000 		.4byte	.LFE3-.LFB3
 1878 0030 00000000 		.4byte	.LFB4
 1879 0034 4C010000 		.4byte	.LFE4-.LFB4
 1880 0038 00000000 		.4byte	.LFB5
 1881 003c 60000000 		.4byte	.LFE5-.LFB5
 1882 0040 00000000 		.4byte	.LFB6
 1883 0044 3C000000 		.4byte	.LFE6-.LFB6
 1884 0048 00000000 		.4byte	.LFB7
 1885 004c 40000000 		.4byte	.LFE7-.LFB7
 1886 0050 00000000 		.4byte	.LFB8
 1887 0054 44000000 		.4byte	.LFE8-.LFB8
 1888 0058 00000000 		.4byte	.LFB9
 1889 005c 68010000 		.4byte	.LFE9-.LFB9
 1890 0060 00000000 		.4byte	0
 1891 0064 00000000 		.4byte	0
 1892              		.section	.debug_ranges,"",%progbits
 1893              	.Ldebug_ranges0:
 1894 0000 00000000 		.4byte	.LFB0
 1895 0004 1A000000 		.4byte	.LFE0
 1896 0008 00000000 		.4byte	.LFB1
 1897 000c 1C000000 		.4byte	.LFE1
 1898 0010 00000000 		.4byte	.LFB2
 1899 0014 1C000000 		.4byte	.LFE2
 1900 0018 00000000 		.4byte	.LFB3
 1901 001c 74000000 		.4byte	.LFE3
 1902 0020 00000000 		.4byte	.LFB4
 1903 0024 4C010000 		.4byte	.LFE4
 1904 0028 00000000 		.4byte	.LFB5
 1905 002c 60000000 		.4byte	.LFE5
 1906 0030 00000000 		.4byte	.LFB6
 1907 0034 3C000000 		.4byte	.LFE6
 1908 0038 00000000 		.4byte	.LFB7
 1909 003c 40000000 		.4byte	.LFE7
 1910 0040 00000000 		.4byte	.LFB8
 1911 0044 44000000 		.4byte	.LFE8
 1912 0048 00000000 		.4byte	.LFB9
 1913 004c 68010000 		.4byte	.LFE9
 1914 0050 00000000 		.4byte	0
 1915 0054 00000000 		.4byte	0
 1916              		.section	.debug_line,"",%progbits
ARM GAS  C:\Users\Lois\AppData\Local\Temp\ccmucEQ9.s 			page 43


 1917              	.Ldebug_line0:
 1918 0000 07020000 		.section	.debug_str,"MS",%progbits,1
 1918      0200CD00 
 1918      00000201 
 1918      FB0E0D00 
 1918      01010101 
 1919              	.LASF18:
 1920 0000 72656731 		.ascii	"reg16\000"
 1920      3600
 1921              	.LASF11:
 1922 0006 73697A65 		.ascii	"size_t\000"
 1922      5F7400
 1923              	.LASF34:
 1924 000d 416E616C 		.ascii	"AnalogSetDefault\000"
 1924      6F675365 
 1924      74446566 
 1924      61756C74 
 1924      00
 1925              	.LASF20:
 1926 001e 76616C75 		.ascii	"value\000"
 1926      6500
 1927              	.LASF30:
 1928 0024 636F756E 		.ascii	"count\000"
 1928      7400
 1929              	.LASF31:
 1930 002a 436C6F63 		.ascii	"ClockSetup\000"
 1930      6B536574 
 1930      757000
 1931              	.LASF40:
 1932 0035 6368616E 		.ascii	"channel\000"
 1932      6E656C00 
 1933              	.LASF4:
 1934 003d 73686F72 		.ascii	"short unsigned int\000"
 1934      7420756E 
 1934      7369676E 
 1934      65642069 
 1934      6E7400
 1935              	.LASF25:
 1936 0050 4359434F 		.ascii	"CYCONFIGCPYCODE\000"
 1936      4E464947 
 1936      43505943 
 1936      4F444500 
 1937              	.LASF33:
 1938 0060 706C6C4C 		.ascii	"pllLock\000"
 1938      6F636B00 
 1939              	.LASF51:
 1940 0068 433A5C55 		.ascii	"C:\\Users\\Lois\\Desktop\\MC1_5\\MC1_5_PSOC5.cydsn\000"
 1940      73657273 
 1940      5C4C6F69 
 1940      735C4465 
 1940      736B746F 
 1941              	.LASF15:
 1942 0096 666C6F61 		.ascii	"float\000"
 1942      7400
 1943              	.LASF24:
 1944 009c 64657374 		.ascii	"dest\000"
 1944      00
ARM GAS  C:\Users\Lois\AppData\Local\Temp\ccmucEQ9.s 			page 44


 1945              	.LASF46:
 1946 00a1 6366675F 		.ascii	"cfg_memset_list\000"
 1946      6D656D73 
 1946      65745F6C 
 1946      69737400 
 1947              	.LASF44:
 1948 00b1 73697A65 		.ascii	"size\000"
 1948      00
 1949              	.LASF17:
 1950 00b6 72656738 		.ascii	"reg8\000"
 1950      00
 1951              	.LASF39:
 1952 00bb 4144435F 		.ascii	"ADC_AMux_Set\000"
 1952      414D7578 
 1952      5F536574 
 1952      00
 1953              	.LASF6:
 1954 00c8 6C6F6E67 		.ascii	"long unsigned int\000"
 1954      20756E73 
 1954      69676E65 
 1954      6420696E 
 1954      7400
 1955              	.LASF12:
 1956 00da 75696E74 		.ascii	"uint8\000"
 1956      3800
 1957              	.LASF22:
 1958 00e0 43594D45 		.ascii	"CYMEMZERO\000"
 1958      4D5A4552 
 1958      4F00
 1959              	.LASF38:
 1960 00ea 53657441 		.ascii	"SetAnalogRoutingPumps\000"
 1960      6E616C6F 
 1960      67526F75 
 1960      74696E67 
 1960      50756D70 
 1961              	.LASF47:
 1962 0100 4144435F 		.ascii	"ADC_AMux__addrTable\000"
 1962      414D7578 
 1962      5F5F6164 
 1962      64725461 
 1962      626C6500 
 1963              	.LASF2:
 1964 0114 756E7369 		.ascii	"unsigned char\000"
 1964      676E6564 
 1964      20636861 
 1964      7200
 1965              	.LASF49:
 1966 0122 474E5520 		.ascii	"GNU C 4.9.3 20150303 (release) [ARM/embedded-4_9-br"
 1966      4320342E 
 1966      392E3320 
 1966      32303135 
 1966      30333033 
 1967 0155 616E6368 		.ascii	"anch revision 221220] -mcpu=cortex-m3 -mthumb -g -O"
 1967      20726576 
 1967      6973696F 
 1967      6E203232 
 1967      31323230 
ARM GAS  C:\Users\Lois\AppData\Local\Temp\ccmucEQ9.s 			page 45


 1968 0188 30202D66 		.ascii	"0 -ffunction-sections -ffat-lto-objects\000"
 1968      66756E63 
 1968      74696F6E 
 1968      2D736563 
 1968      74696F6E 
 1969              	.LASF16:
 1970 01b0 646F7562 		.ascii	"double\000"
 1970      6C6500
 1971              	.LASF26:
 1972 01b7 6366675F 		.ascii	"cfg_write_bytes32\000"
 1972      77726974 
 1972      655F6279 
 1972      74657333 
 1972      3200
 1973              	.LASF42:
 1974 01c9 63796669 		.ascii	"cyfitter_cfg\000"
 1974      74746572 
 1974      5F636667 
 1974      00
 1975              	.LASF27:
 1976 01d6 61646472 		.ascii	"addr_table\000"
 1976      5F746162 
 1976      6C6500
 1977              	.LASF13:
 1978 01e1 75696E74 		.ascii	"uint16\000"
 1978      313600
 1979              	.LASF28:
 1980 01e8 64617461 		.ascii	"data_table\000"
 1980      5F746162 
 1980      6C6500
 1981              	.LASF14:
 1982 01f3 75696E74 		.ascii	"uint32\000"
 1982      333200
 1983              	.LASF0:
 1984 01fa 756E7369 		.ascii	"unsigned int\000"
 1984      676E6564 
 1984      20696E74 
 1984      00
 1985              	.LASF43:
 1986 0207 61646472 		.ascii	"address\000"
 1986      65737300 
 1987              	.LASF8:
 1988 020f 6C6F6E67 		.ascii	"long long unsigned int\000"
 1988      206C6F6E 
 1988      6720756E 
 1988      7369676E 
 1988      65642069 
 1989              	.LASF48:
 1990 0226 4144435F 		.ascii	"ADC_AMux__maskTable\000"
 1990      414D7578 
 1990      5F5F6D61 
 1990      736B5461 
 1990      626C6500 
 1991              	.LASF45:
 1992 023a 6366675F 		.ascii	"cfg_memset_t\000"
 1992      6D656D73 
 1992      65745F74 
ARM GAS  C:\Users\Lois\AppData\Local\Temp\ccmucEQ9.s 			page 46


 1992      00
 1993              	.LASF29:
 1994 0247 62617365 		.ascii	"baseAddr\000"
 1994      41646472 
 1994      00
 1995              	.LASF9:
 1996 0250 73697A65 		.ascii	"sizetype\000"
 1996      74797065 
 1996      00
 1997              	.LASF7:
 1998 0259 6C6F6E67 		.ascii	"long long int\000"
 1998      206C6F6E 
 1998      6720696E 
 1998      7400
 1999              	.LASF32:
 2000 0267 74696D65 		.ascii	"timeout\000"
 2000      6F757400 
 2001              	.LASF41:
 2002 026f 4144435F 		.ascii	"ADC_AMux_Unset\000"
 2002      414D7578 
 2002      5F556E73 
 2002      657400
 2003              	.LASF21:
 2004 027e 63795F63 		.ascii	"cy_cfg_addrvalue_t\000"
 2004      66675F61 
 2004      64647276 
 2004      616C7565 
 2004      5F7400
 2005              	.LASF19:
 2006 0291 6F666673 		.ascii	"offset\000"
 2006      657400
 2007              	.LASF3:
 2008 0298 73686F72 		.ascii	"short int\000"
 2008      7420696E 
 2008      7400
 2009              	.LASF50:
 2010 02a2 2E5C4765 		.ascii	".\\Generated_Source\\PSoC5\\cyfitter_cfg.c\000"
 2010      6E657261 
 2010      7465645F 
 2010      536F7572 
 2010      63655C50 
 2011              	.LASF36:
 2012 02ca 656E6162 		.ascii	"enabled\000"
 2012      6C656400 
 2013              	.LASF5:
 2014 02d2 6C6F6E67 		.ascii	"long int\000"
 2014      20696E74 
 2014      00
 2015              	.LASF10:
 2016 02db 63686172 		.ascii	"char\000"
 2016      00
 2017              	.LASF35:
 2018 02e0 62675F78 		.ascii	"bg_xover_inl_trim\000"
 2018      6F766572 
 2018      5F696E6C 
 2018      5F747269 
 2018      6D00
ARM GAS  C:\Users\Lois\AppData\Local\Temp\ccmucEQ9.s 			page 47


 2019              	.LASF1:
 2020 02f2 7369676E 		.ascii	"signed char\000"
 2020      65642063 
 2020      68617200 
 2021              	.LASF37:
 2022 02fe 72656756 		.ascii	"regValue\000"
 2022      616C7565 
 2022      00
 2023              	.LASF23:
 2024 0307 4359434F 		.ascii	"CYCONFIGCPY\000"
 2024      4E464947 
 2024      43505900 
 2025              		.ident	"GCC: (GNU Tools for ARM Embedded Processors) 4.9.3 20150303 (release) [ARM/embedded-4_9-br
