ARM GAS  C:\Users\Lois\AppData\Local\Temp\ccmucEQ9.s 			page 1


   1              		.syntax unified
   2              		.cpu cortex-m3
   3              		.fpu softvfp
   4              		.eabi_attribute 20, 1
   5              		.eabi_attribute 21, 1
   6              		.eabi_attribute 23, 3
   7              		.eabi_attribute 24, 1
   8              		.eabi_attribute 25, 1
   9              		.eabi_attribute 26, 1
  10              		.eabi_attribute 30, 6
  11              		.eabi_attribute 34, 1
  12              		.eabi_attribute 18, 4
  13              		.thumb
  14              		.file	"cyfitter_cfg.c"
  15              		.text
  16              	.Ltext0:
  17              		.cfi_sections	.debug_frame
  18              		.section	.text.CYMEMZERO,"ax",%progbits
  19              		.align	2
  20              		.thumb
  21              		.thumb_func
  22              		.type	CYMEMZERO, %function
  23              	CYMEMZERO:
  24              	.LFB0:
  25              		.file 1 ".\\Generated_Source\\PSoC5\\cyfitter_cfg.c"
   1:.\Generated_Source\PSoC5/cyfitter_cfg.c **** /*******************************************************************************
   2:.\Generated_Source\PSoC5/cyfitter_cfg.c **** * File Name: cyfitter_cfg.c
   3:.\Generated_Source\PSoC5/cyfitter_cfg.c **** * 
   4:.\Generated_Source\PSoC5/cyfitter_cfg.c **** * PSoC Creator  3.3 CP1
   5:.\Generated_Source\PSoC5/cyfitter_cfg.c **** *
   6:.\Generated_Source\PSoC5/cyfitter_cfg.c **** * Description:
   7:.\Generated_Source\PSoC5/cyfitter_cfg.c **** * This file contains device initialization code.
   8:.\Generated_Source\PSoC5/cyfitter_cfg.c **** * Except for the user defined sections in CyClockStartupError(), this file should not be modified.
   9:.\Generated_Source\PSoC5/cyfitter_cfg.c **** * This file is automatically generated by PSoC Creator.
  10:.\Generated_Source\PSoC5/cyfitter_cfg.c **** *
  11:.\Generated_Source\PSoC5/cyfitter_cfg.c **** ********************************************************************************
  12:.\Generated_Source\PSoC5/cyfitter_cfg.c **** * Copyright (c) 2007-2015 Cypress Semiconductor.  All rights reserved.
  13:.\Generated_Source\PSoC5/cyfitter_cfg.c **** * You may use this file only in accordance with the license, terms, conditions, 
  14:.\Generated_Source\PSoC5/cyfitter_cfg.c **** * disclaimers, and limitations in the end user license agreement accompanying 
  15:.\Generated_Source\PSoC5/cyfitter_cfg.c **** * the software package with which this file was provided.
  16:.\Generated_Source\PSoC5/cyfitter_cfg.c **** ********************************************************************************/
  17:.\Generated_Source\PSoC5/cyfitter_cfg.c **** 
  18:.\Generated_Source\PSoC5/cyfitter_cfg.c **** #include <string.h>
  19:.\Generated_Source\PSoC5/cyfitter_cfg.c **** #include "cytypes.h"
  20:.\Generated_Source\PSoC5/cyfitter_cfg.c **** #include "cydevice_trm.h"
  21:.\Generated_Source\PSoC5/cyfitter_cfg.c **** #include "cyfitter.h"
  22:.\Generated_Source\PSoC5/cyfitter_cfg.c **** #include "CyLib.h"
  23:.\Generated_Source\PSoC5/cyfitter_cfg.c **** #include "cyfitter_cfg.h"
  24:.\Generated_Source\PSoC5/cyfitter_cfg.c **** 
  25:.\Generated_Source\PSoC5/cyfitter_cfg.c **** 
  26:.\Generated_Source\PSoC5/cyfitter_cfg.c **** #if defined(__GNUC__) || defined(__ARMCC_VERSION)
  27:.\Generated_Source\PSoC5/cyfitter_cfg.c ****     #define CYPACKED 
  28:.\Generated_Source\PSoC5/cyfitter_cfg.c ****     #define CYPACKED_ATTR __attribute__ ((packed))
  29:.\Generated_Source\PSoC5/cyfitter_cfg.c ****     #define CYALIGNED __attribute__ ((aligned))
  30:.\Generated_Source\PSoC5/cyfitter_cfg.c ****     #define CY_CFG_UNUSED __attribute__ ((unused))
  31:.\Generated_Source\PSoC5/cyfitter_cfg.c ****     #define CY_CFG_SECTION __attribute__ ((section(".psocinit")))
  32:.\Generated_Source\PSoC5/cyfitter_cfg.c ****     
ARM GAS  C:\Users\Lois\AppData\Local\Temp\ccmucEQ9.s 			page 2


  33:.\Generated_Source\PSoC5/cyfitter_cfg.c ****     #if defined(__ARMCC_VERSION)
  34:.\Generated_Source\PSoC5/cyfitter_cfg.c ****         #define CY_CFG_MEMORY_BARRIER() __memory_changed()
  35:.\Generated_Source\PSoC5/cyfitter_cfg.c ****     #else
  36:.\Generated_Source\PSoC5/cyfitter_cfg.c ****         #define CY_CFG_MEMORY_BARRIER() __sync_synchronize()
  37:.\Generated_Source\PSoC5/cyfitter_cfg.c ****     #endif
  38:.\Generated_Source\PSoC5/cyfitter_cfg.c ****     
  39:.\Generated_Source\PSoC5/cyfitter_cfg.c **** #elif defined(__ICCARM__)
  40:.\Generated_Source\PSoC5/cyfitter_cfg.c ****     #include <intrinsics.h>
  41:.\Generated_Source\PSoC5/cyfitter_cfg.c **** 
  42:.\Generated_Source\PSoC5/cyfitter_cfg.c ****     #define CYPACKED __packed
  43:.\Generated_Source\PSoC5/cyfitter_cfg.c ****     #define CYPACKED_ATTR 
  44:.\Generated_Source\PSoC5/cyfitter_cfg.c ****     #define CYALIGNED _Pragma("data_alignment=4")
  45:.\Generated_Source\PSoC5/cyfitter_cfg.c ****     #define CY_CFG_UNUSED _Pragma("diag_suppress=Pe177")
  46:.\Generated_Source\PSoC5/cyfitter_cfg.c ****     #define CY_CFG_SECTION _Pragma("location=\".psocinit\"")
  47:.\Generated_Source\PSoC5/cyfitter_cfg.c ****     
  48:.\Generated_Source\PSoC5/cyfitter_cfg.c ****     #define CY_CFG_MEMORY_BARRIER() __DMB()
  49:.\Generated_Source\PSoC5/cyfitter_cfg.c ****     
  50:.\Generated_Source\PSoC5/cyfitter_cfg.c **** #else
  51:.\Generated_Source\PSoC5/cyfitter_cfg.c ****     #error Unsupported toolchain
  52:.\Generated_Source\PSoC5/cyfitter_cfg.c **** #endif
  53:.\Generated_Source\PSoC5/cyfitter_cfg.c **** 
  54:.\Generated_Source\PSoC5/cyfitter_cfg.c **** 
  55:.\Generated_Source\PSoC5/cyfitter_cfg.c **** CY_CFG_UNUSED
  56:.\Generated_Source\PSoC5/cyfitter_cfg.c **** static void CYMEMZERO(void *s, size_t n);
  57:.\Generated_Source\PSoC5/cyfitter_cfg.c **** CY_CFG_UNUSED
  58:.\Generated_Source\PSoC5/cyfitter_cfg.c **** static void CYMEMZERO(void *s, size_t n)
  59:.\Generated_Source\PSoC5/cyfitter_cfg.c **** {
  26              		.loc 1 59 0
  27              		.cfi_startproc
  28              		@ args = 0, pretend = 0, frame = 8
  29              		@ frame_needed = 1, uses_anonymous_args = 0
  30 0000 80B5     		push	{r7, lr}
  31              		.cfi_def_cfa_offset 8
  32              		.cfi_offset 7, -8
  33              		.cfi_offset 14, -4
  34 0002 82B0     		sub	sp, sp, #8
  35              		.cfi_def_cfa_offset 16
  36 0004 00AF     		add	r7, sp, #0
  37              		.cfi_def_cfa_register 7
  38 0006 7860     		str	r0, [r7, #4]
  39 0008 3960     		str	r1, [r7]
  60:.\Generated_Source\PSoC5/cyfitter_cfg.c **** 	(void)memset(s, 0, n);
  40              		.loc 1 60 0
  41 000a 7868     		ldr	r0, [r7, #4]
  42 000c 0021     		movs	r1, #0
  43 000e 3A68     		ldr	r2, [r7]
  44 0010 FFF7FEFF 		bl	memset
  61:.\Generated_Source\PSoC5/cyfitter_cfg.c **** }
  45              		.loc 1 61 0
  46 0014 0837     		adds	r7, r7, #8
  47              		.cfi_def_cfa_offset 8
  48 0016 BD46     		mov	sp, r7
  49              		.cfi_def_cfa_register 13
  50              		@ sp needed
  51 0018 80BD     		pop	{r7, pc}
  52              		.cfi_endproc
  53              	.LFE0:
ARM GAS  C:\Users\Lois\AppData\Local\Temp\ccmucEQ9.s 			page 3


  54              		.size	CYMEMZERO, .-CYMEMZERO
  55 001a 00BF     		.section	.text.CYCONFIGCPY,"ax",%progbits
  56              		.align	2
  57              		.thumb
  58              		.thumb_func
  59              		.type	CYCONFIGCPY, %function
  60              	CYCONFIGCPY:
  61              	.LFB1:
  62:.\Generated_Source\PSoC5/cyfitter_cfg.c **** CY_CFG_UNUSED
  63:.\Generated_Source\PSoC5/cyfitter_cfg.c **** static void CYCONFIGCPY(void *dest, const void *src, size_t n);
  64:.\Generated_Source\PSoC5/cyfitter_cfg.c **** CY_CFG_UNUSED
  65:.\Generated_Source\PSoC5/cyfitter_cfg.c **** static void CYCONFIGCPY(void *dest, const void *src, size_t n)
  66:.\Generated_Source\PSoC5/cyfitter_cfg.c **** {
  62              		.loc 1 66 0
  63              		.cfi_startproc
  64              		@ args = 0, pretend = 0, frame = 16
  65              		@ frame_needed = 1, uses_anonymous_args = 0
  66 0000 80B5     		push	{r7, lr}
  67              		.cfi_def_cfa_offset 8
  68              		.cfi_offset 7, -8
  69              		.cfi_offset 14, -4
  70 0002 84B0     		sub	sp, sp, #16
  71              		.cfi_def_cfa_offset 24
  72 0004 00AF     		add	r7, sp, #0
  73              		.cfi_def_cfa_register 7
  74 0006 F860     		str	r0, [r7, #12]
  75 0008 B960     		str	r1, [r7, #8]
  76 000a 7A60     		str	r2, [r7, #4]
  67:.\Generated_Source\PSoC5/cyfitter_cfg.c **** 	(void)memcpy(dest, src, n);
  77              		.loc 1 67 0
  78 000c F868     		ldr	r0, [r7, #12]
  79 000e B968     		ldr	r1, [r7, #8]
  80 0010 7A68     		ldr	r2, [r7, #4]
  81 0012 FFF7FEFF 		bl	memcpy
  68:.\Generated_Source\PSoC5/cyfitter_cfg.c **** }
  82              		.loc 1 68 0
  83 0016 1037     		adds	r7, r7, #16
  84              		.cfi_def_cfa_offset 8
  85 0018 BD46     		mov	sp, r7
  86              		.cfi_def_cfa_register 13
  87              		@ sp needed
  88 001a 80BD     		pop	{r7, pc}
  89              		.cfi_endproc
  90              	.LFE1:
  91              		.size	CYCONFIGCPY, .-CYCONFIGCPY
  92              		.section	.text.CYCONFIGCPYCODE,"ax",%progbits
  93              		.align	2
  94              		.thumb
  95              		.thumb_func
  96              		.type	CYCONFIGCPYCODE, %function
  97              	CYCONFIGCPYCODE:
  98              	.LFB2:
  69:.\Generated_Source\PSoC5/cyfitter_cfg.c **** CY_CFG_UNUSED
  70:.\Generated_Source\PSoC5/cyfitter_cfg.c **** static void CYCONFIGCPYCODE(void *dest, const void *src, size_t n);
  71:.\Generated_Source\PSoC5/cyfitter_cfg.c **** CY_CFG_UNUSED
  72:.\Generated_Source\PSoC5/cyfitter_cfg.c **** static void CYCONFIGCPYCODE(void *dest, const void *src, size_t n)
  73:.\Generated_Source\PSoC5/cyfitter_cfg.c **** {
ARM GAS  C:\Users\Lois\AppData\Local\Temp\ccmucEQ9.s 			page 4


  99              		.loc 1 73 0
 100              		.cfi_startproc
 101              		@ args = 0, pretend = 0, frame = 16
 102              		@ frame_needed = 1, uses_anonymous_args = 0
 103 0000 80B5     		push	{r7, lr}
 104              		.cfi_def_cfa_offset 8
 105              		.cfi_offset 7, -8
 106              		.cfi_offset 14, -4
 107 0002 84B0     		sub	sp, sp, #16
 108              		.cfi_def_cfa_offset 24
 109 0004 00AF     		add	r7, sp, #0
 110              		.cfi_def_cfa_register 7
 111 0006 F860     		str	r0, [r7, #12]
 112 0008 B960     		str	r1, [r7, #8]
 113 000a 7A60     		str	r2, [r7, #4]
  74:.\Generated_Source\PSoC5/cyfitter_cfg.c **** 	(void)memcpy(dest, src, n);
 114              		.loc 1 74 0
 115 000c F868     		ldr	r0, [r7, #12]
 116 000e B968     		ldr	r1, [r7, #8]
 117 0010 7A68     		ldr	r2, [r7, #4]
 118 0012 FFF7FEFF 		bl	memcpy
  75:.\Generated_Source\PSoC5/cyfitter_cfg.c **** }
 119              		.loc 1 75 0
 120 0016 1037     		adds	r7, r7, #16
 121              		.cfi_def_cfa_offset 8
 122 0018 BD46     		mov	sp, r7
 123              		.cfi_def_cfa_register 13
 124              		@ sp needed
 125 001a 80BD     		pop	{r7, pc}
 126              		.cfi_endproc
 127              	.LFE2:
 128              		.size	CYCONFIGCPYCODE, .-CYCONFIGCPYCODE
 129              		.section	.text.cfg_write_bytes32,"ax",%progbits
 130              		.align	2
 131              		.thumb
 132              		.thumb_func
 133              		.type	cfg_write_bytes32, %function
 134              	cfg_write_bytes32:
 135              	.LFB3:
  76:.\Generated_Source\PSoC5/cyfitter_cfg.c **** 
  77:.\Generated_Source\PSoC5/cyfitter_cfg.c **** 
  78:.\Generated_Source\PSoC5/cyfitter_cfg.c **** 
  79:.\Generated_Source\PSoC5/cyfitter_cfg.c **** /* Clock startup error codes                                                   */
  80:.\Generated_Source\PSoC5/cyfitter_cfg.c **** #define CYCLOCKSTART_NO_ERROR    0u
  81:.\Generated_Source\PSoC5/cyfitter_cfg.c **** #define CYCLOCKSTART_XTAL_ERROR  1u
  82:.\Generated_Source\PSoC5/cyfitter_cfg.c **** #define CYCLOCKSTART_32KHZ_ERROR 2u
  83:.\Generated_Source\PSoC5/cyfitter_cfg.c **** #define CYCLOCKSTART_PLL_ERROR   3u
  84:.\Generated_Source\PSoC5/cyfitter_cfg.c **** 
  85:.\Generated_Source\PSoC5/cyfitter_cfg.c **** #ifdef CY_NEED_CYCLOCKSTARTUPERROR
  86:.\Generated_Source\PSoC5/cyfitter_cfg.c **** /*******************************************************************************
  87:.\Generated_Source\PSoC5/cyfitter_cfg.c **** * Function Name: CyClockStartupError
  88:.\Generated_Source\PSoC5/cyfitter_cfg.c **** ********************************************************************************
  89:.\Generated_Source\PSoC5/cyfitter_cfg.c **** * Summary:
  90:.\Generated_Source\PSoC5/cyfitter_cfg.c **** *  If an error is encountered during clock configuration (crystal startup error,
  91:.\Generated_Source\PSoC5/cyfitter_cfg.c **** *  PLL lock error, etc.), the system will end up here.  Unless reimplemented by
  92:.\Generated_Source\PSoC5/cyfitter_cfg.c **** *  the customer, this function will stop in an infinite loop.
  93:.\Generated_Source\PSoC5/cyfitter_cfg.c **** *
ARM GAS  C:\Users\Lois\AppData\Local\Temp\ccmucEQ9.s 			page 5


  94:.\Generated_Source\PSoC5/cyfitter_cfg.c **** * Parameters:
  95:.\Generated_Source\PSoC5/cyfitter_cfg.c **** *   void
  96:.\Generated_Source\PSoC5/cyfitter_cfg.c **** *
  97:.\Generated_Source\PSoC5/cyfitter_cfg.c **** * Return:
  98:.\Generated_Source\PSoC5/cyfitter_cfg.c **** *   void
  99:.\Generated_Source\PSoC5/cyfitter_cfg.c **** *
 100:.\Generated_Source\PSoC5/cyfitter_cfg.c **** *******************************************************************************/
 101:.\Generated_Source\PSoC5/cyfitter_cfg.c **** CY_CFG_UNUSED
 102:.\Generated_Source\PSoC5/cyfitter_cfg.c **** static void CyClockStartupError(uint8 errorCode);
 103:.\Generated_Source\PSoC5/cyfitter_cfg.c **** CY_CFG_UNUSED
 104:.\Generated_Source\PSoC5/cyfitter_cfg.c **** static void CyClockStartupError(uint8 errorCode)
 105:.\Generated_Source\PSoC5/cyfitter_cfg.c **** {
 106:.\Generated_Source\PSoC5/cyfitter_cfg.c ****     /* To remove the compiler warning if errorCode not used.                */
 107:.\Generated_Source\PSoC5/cyfitter_cfg.c ****     errorCode = errorCode;
 108:.\Generated_Source\PSoC5/cyfitter_cfg.c **** 
 109:.\Generated_Source\PSoC5/cyfitter_cfg.c ****     /* `#START CyClockStartupError` */
 110:.\Generated_Source\PSoC5/cyfitter_cfg.c **** 
 111:.\Generated_Source\PSoC5/cyfitter_cfg.c ****     /* If we have a clock startup error (bad MHz crystal, PLL lock, etc.),  */
 112:.\Generated_Source\PSoC5/cyfitter_cfg.c ****     /* we will end up here to allow the customer to implement something to  */
 113:.\Generated_Source\PSoC5/cyfitter_cfg.c ****     /* deal with the clock condition.                                       */
 114:.\Generated_Source\PSoC5/cyfitter_cfg.c **** 
 115:.\Generated_Source\PSoC5/cyfitter_cfg.c ****     /* `#END` */
 116:.\Generated_Source\PSoC5/cyfitter_cfg.c **** 
 117:.\Generated_Source\PSoC5/cyfitter_cfg.c ****     /* If nothing else, stop here since the clocks have not started         */
 118:.\Generated_Source\PSoC5/cyfitter_cfg.c ****     /* correctly.                                                           */
 119:.\Generated_Source\PSoC5/cyfitter_cfg.c ****     while(1) {}
 120:.\Generated_Source\PSoC5/cyfitter_cfg.c **** }
 121:.\Generated_Source\PSoC5/cyfitter_cfg.c **** #endif
 122:.\Generated_Source\PSoC5/cyfitter_cfg.c **** 
 123:.\Generated_Source\PSoC5/cyfitter_cfg.c **** #define CY_CFG_BASE_ADDR_COUNT 35u
 124:.\Generated_Source\PSoC5/cyfitter_cfg.c **** CYPACKED typedef struct
 125:.\Generated_Source\PSoC5/cyfitter_cfg.c **** {
 126:.\Generated_Source\PSoC5/cyfitter_cfg.c **** 	uint8 offset;
 127:.\Generated_Source\PSoC5/cyfitter_cfg.c **** 	uint8 value;
 128:.\Generated_Source\PSoC5/cyfitter_cfg.c **** } CYPACKED_ATTR cy_cfg_addrvalue_t;
 129:.\Generated_Source\PSoC5/cyfitter_cfg.c **** 
 130:.\Generated_Source\PSoC5/cyfitter_cfg.c **** #define cy_cfg_addr_table ((const uint32 CYFAR *)0x48000000u)
 131:.\Generated_Source\PSoC5/cyfitter_cfg.c **** #define cy_cfg_data_table ((const cy_cfg_addrvalue_t CYFAR *)0x4800008Cu)
 132:.\Generated_Source\PSoC5/cyfitter_cfg.c **** 
 133:.\Generated_Source\PSoC5/cyfitter_cfg.c **** /* IOPINS0_0 Address: CYREG_PRT0_DM0 Size (bytes): 8 */
 134:.\Generated_Source\PSoC5/cyfitter_cfg.c **** #define BS_IOPINS0_0_VAL ((const uint8 CYFAR *)0x480006ACu)
 135:.\Generated_Source\PSoC5/cyfitter_cfg.c **** 
 136:.\Generated_Source\PSoC5/cyfitter_cfg.c **** /* IOPINS0_7 Address: CYREG_PRT12_DM0 Size (bytes): 8 */
 137:.\Generated_Source\PSoC5/cyfitter_cfg.c **** #define BS_IOPINS0_7_VAL ((const uint8 CYFAR *)0x480006B4u)
 138:.\Generated_Source\PSoC5/cyfitter_cfg.c **** 
 139:.\Generated_Source\PSoC5/cyfitter_cfg.c **** /* IOPINS0_8 Address: CYREG_PRT15_DR Size (bytes): 10 */
 140:.\Generated_Source\PSoC5/cyfitter_cfg.c **** #define BS_IOPINS0_8_VAL ((const uint8 CYFAR *)0x480006BCu)
 141:.\Generated_Source\PSoC5/cyfitter_cfg.c **** 
 142:.\Generated_Source\PSoC5/cyfitter_cfg.c **** /* IOPINS0_1 Address: CYREG_PRT1_DR Size (bytes): 10 */
 143:.\Generated_Source\PSoC5/cyfitter_cfg.c **** #define BS_IOPINS0_1_VAL ((const uint8 CYFAR *)0x480006C8u)
 144:.\Generated_Source\PSoC5/cyfitter_cfg.c **** 
 145:.\Generated_Source\PSoC5/cyfitter_cfg.c **** /* IOPINS0_3 Address: CYREG_PRT3_DM0 Size (bytes): 8 */
 146:.\Generated_Source\PSoC5/cyfitter_cfg.c **** #define BS_IOPINS0_3_VAL ((const uint8 CYFAR *)0x480006D4u)
 147:.\Generated_Source\PSoC5/cyfitter_cfg.c **** 
 148:.\Generated_Source\PSoC5/cyfitter_cfg.c **** /* IOPINS0_4 Address: CYREG_PRT4_DM0 Size (bytes): 8 */
 149:.\Generated_Source\PSoC5/cyfitter_cfg.c **** #define BS_IOPINS0_4_VAL ((const uint8 CYFAR *)0x480006DCu)
 150:.\Generated_Source\PSoC5/cyfitter_cfg.c **** 
ARM GAS  C:\Users\Lois\AppData\Local\Temp\ccmucEQ9.s 			page 6


 151:.\Generated_Source\PSoC5/cyfitter_cfg.c **** /* IOPINS0_6 Address: CYREG_PRT6_DM0 Size (bytes): 8 */
 152:.\Generated_Source\PSoC5/cyfitter_cfg.c **** #define BS_IOPINS0_6_VAL ((const uint8 CYFAR *)0x480006E4u)
 153:.\Generated_Source\PSoC5/cyfitter_cfg.c **** 
 154:.\Generated_Source\PSoC5/cyfitter_cfg.c **** /* CYDEV_CLKDIST_ACFG0_CFG0 Address: CYREG_CLKDIST_ACFG0_CFG0 Size (bytes): 4 */
 155:.\Generated_Source\PSoC5/cyfitter_cfg.c **** #define BS_CYDEV_CLKDIST_ACFG0_CFG0_VAL ((const uint8 CYFAR *)0x480006ECu)
 156:.\Generated_Source\PSoC5/cyfitter_cfg.c **** 
 157:.\Generated_Source\PSoC5/cyfitter_cfg.c **** 
 158:.\Generated_Source\PSoC5/cyfitter_cfg.c **** /*******************************************************************************
 159:.\Generated_Source\PSoC5/cyfitter_cfg.c **** * Function Name: cfg_write_bytes32
 160:.\Generated_Source\PSoC5/cyfitter_cfg.c **** ********************************************************************************
 161:.\Generated_Source\PSoC5/cyfitter_cfg.c **** * Summary:
 162:.\Generated_Source\PSoC5/cyfitter_cfg.c **** *  This function is used for setting up the chip configuration areas that
 163:.\Generated_Source\PSoC5/cyfitter_cfg.c **** *  contain relatively sparse data.
 164:.\Generated_Source\PSoC5/cyfitter_cfg.c **** *
 165:.\Generated_Source\PSoC5/cyfitter_cfg.c **** * Parameters:
 166:.\Generated_Source\PSoC5/cyfitter_cfg.c **** *   void
 167:.\Generated_Source\PSoC5/cyfitter_cfg.c **** *
 168:.\Generated_Source\PSoC5/cyfitter_cfg.c **** * Return:
 169:.\Generated_Source\PSoC5/cyfitter_cfg.c **** *   void
 170:.\Generated_Source\PSoC5/cyfitter_cfg.c **** *
 171:.\Generated_Source\PSoC5/cyfitter_cfg.c **** *******************************************************************************/
 172:.\Generated_Source\PSoC5/cyfitter_cfg.c **** static void cfg_write_bytes32(const uint32 addr_table[], const cy_cfg_addrvalue_t data_table[]);
 173:.\Generated_Source\PSoC5/cyfitter_cfg.c **** static void cfg_write_bytes32(const uint32 addr_table[], const cy_cfg_addrvalue_t data_table[])
 174:.\Generated_Source\PSoC5/cyfitter_cfg.c **** {
 136              		.loc 1 174 0
 137              		.cfi_startproc
 138              		@ args = 0, pretend = 0, frame = 24
 139              		@ frame_needed = 1, uses_anonymous_args = 0
 140              		@ link register save eliminated.
 141 0000 80B4     		push	{r7}
 142              		.cfi_def_cfa_offset 4
 143              		.cfi_offset 7, -4
 144 0002 87B0     		sub	sp, sp, #28
 145              		.cfi_def_cfa_offset 32
 146 0004 00AF     		add	r7, sp, #0
 147              		.cfi_def_cfa_register 7
 148 0006 7860     		str	r0, [r7, #4]
 149 0008 3960     		str	r1, [r7]
 175:.\Generated_Source\PSoC5/cyfitter_cfg.c **** 	/* For 32-bit little-endian architectures */
 176:.\Generated_Source\PSoC5/cyfitter_cfg.c **** 	uint32 i, j = 0u;
 150              		.loc 1 176 0
 151 000a 0023     		movs	r3, #0
 152 000c 3B61     		str	r3, [r7, #16]
 177:.\Generated_Source\PSoC5/cyfitter_cfg.c **** 	for (i = 0u; i < CY_CFG_BASE_ADDR_COUNT; i++)
 153              		.loc 1 177 0
 154 000e 0023     		movs	r3, #0
 155 0010 7B61     		str	r3, [r7, #20]
 156 0012 27E0     		b	.L5
 157              	.L8:
 158              	.LBB2:
 178:.\Generated_Source\PSoC5/cyfitter_cfg.c **** 	{
 179:.\Generated_Source\PSoC5/cyfitter_cfg.c **** 		uint32 baseAddr = addr_table[i];
 159              		.loc 1 179 0
 160 0014 7B69     		ldr	r3, [r7, #20]
 161 0016 9B00     		lsls	r3, r3, #2
 162 0018 7A68     		ldr	r2, [r7, #4]
 163 001a 1344     		add	r3, r3, r2
ARM GAS  C:\Users\Lois\AppData\Local\Temp\ccmucEQ9.s 			page 7


 164 001c 1B68     		ldr	r3, [r3]
 165 001e BB60     		str	r3, [r7, #8]
 180:.\Generated_Source\PSoC5/cyfitter_cfg.c **** 		uint8 count = (uint8)baseAddr;
 166              		.loc 1 180 0
 167 0020 BB68     		ldr	r3, [r7, #8]
 168 0022 FB73     		strb	r3, [r7, #15]
 181:.\Generated_Source\PSoC5/cyfitter_cfg.c **** 		baseAddr &= 0xFFFFFF00u;
 169              		.loc 1 181 0
 170 0024 BB68     		ldr	r3, [r7, #8]
 171 0026 23F0FF03 		bic	r3, r3, #255
 172 002a BB60     		str	r3, [r7, #8]
 182:.\Generated_Source\PSoC5/cyfitter_cfg.c **** 		while (count != 0u)
 173              		.loc 1 182 0
 174 002c 14E0     		b	.L6
 175              	.L7:
 183:.\Generated_Source\PSoC5/cyfitter_cfg.c **** 		{
 184:.\Generated_Source\PSoC5/cyfitter_cfg.c **** 			CY_SET_XTND_REG8((void CYFAR *)(baseAddr + data_table[j].offset), data_table[j].value);
 176              		.loc 1 184 0
 177 002e 3B69     		ldr	r3, [r7, #16]
 178 0030 5B00     		lsls	r3, r3, #1
 179 0032 3A68     		ldr	r2, [r7]
 180 0034 1344     		add	r3, r3, r2
 181 0036 1B78     		ldrb	r3, [r3]	@ zero_extendqisi2
 182 0038 1A46     		mov	r2, r3
 183 003a BB68     		ldr	r3, [r7, #8]
 184 003c 1344     		add	r3, r3, r2
 185 003e 1946     		mov	r1, r3
 186 0040 3B69     		ldr	r3, [r7, #16]
 187 0042 5B00     		lsls	r3, r3, #1
 188 0044 3A68     		ldr	r2, [r7]
 189 0046 1344     		add	r3, r3, r2
 190 0048 5B78     		ldrb	r3, [r3, #1]	@ zero_extendqisi2
 191 004a 0B70     		strb	r3, [r1]
 185:.\Generated_Source\PSoC5/cyfitter_cfg.c **** 			j++;
 192              		.loc 1 185 0
 193 004c 3B69     		ldr	r3, [r7, #16]
 194 004e 0133     		adds	r3, r3, #1
 195 0050 3B61     		str	r3, [r7, #16]
 186:.\Generated_Source\PSoC5/cyfitter_cfg.c **** 			count--;
 196              		.loc 1 186 0
 197 0052 FB7B     		ldrb	r3, [r7, #15]	@ zero_extendqisi2
 198 0054 013B     		subs	r3, r3, #1
 199 0056 FB73     		strb	r3, [r7, #15]
 200              	.L6:
 182:.\Generated_Source\PSoC5/cyfitter_cfg.c **** 		{
 201              		.loc 1 182 0
 202 0058 FB7B     		ldrb	r3, [r7, #15]	@ zero_extendqisi2
 203 005a 002B     		cmp	r3, #0
 204 005c E7D1     		bne	.L7
 205              	.LBE2:
 177:.\Generated_Source\PSoC5/cyfitter_cfg.c **** 	{
 206              		.loc 1 177 0 discriminator 2
 207 005e 7B69     		ldr	r3, [r7, #20]
 208 0060 0133     		adds	r3, r3, #1
 209 0062 7B61     		str	r3, [r7, #20]
 210              	.L5:
 177:.\Generated_Source\PSoC5/cyfitter_cfg.c **** 	{
ARM GAS  C:\Users\Lois\AppData\Local\Temp\ccmucEQ9.s 			page 8


 211              		.loc 1 177 0 is_stmt 0 discriminator 1
 212 0064 7B69     		ldr	r3, [r7, #20]
 213 0066 222B     		cmp	r3, #34
 214 0068 D4D9     		bls	.L8
 187:.\Generated_Source\PSoC5/cyfitter_cfg.c **** 		}
 188:.\Generated_Source\PSoC5/cyfitter_cfg.c **** 	}
 189:.\Generated_Source\PSoC5/cyfitter_cfg.c **** }
 215              		.loc 1 189 0 is_stmt 1
 216 006a 1C37     		adds	r7, r7, #28
 217              		.cfi_def_cfa_offset 4
 218 006c BD46     		mov	sp, r7
 219              		.cfi_def_cfa_register 13
 220              		@ sp needed
 221 006e 5DF8047B 		ldr	r7, [sp], #4
 222              		.cfi_restore 7
 223              		.cfi_def_cfa_offset 0
 224 0072 7047     		bx	lr
 225              		.cfi_endproc
 226              	.LFE3:
 227              		.size	cfg_write_bytes32, .-cfg_write_bytes32
 228              		.section	.text.ClockSetup,"ax",%progbits
 229              		.align	2
 230              		.thumb
 231              		.thumb_func
 232              		.type	ClockSetup, %function
 233              	ClockSetup:
 234              	.LFB4:
 190:.\Generated_Source\PSoC5/cyfitter_cfg.c **** 
 191:.\Generated_Source\PSoC5/cyfitter_cfg.c **** /*******************************************************************************
 192:.\Generated_Source\PSoC5/cyfitter_cfg.c **** * Function Name: ClockSetup
 193:.\Generated_Source\PSoC5/cyfitter_cfg.c **** ********************************************************************************
 194:.\Generated_Source\PSoC5/cyfitter_cfg.c **** *
 195:.\Generated_Source\PSoC5/cyfitter_cfg.c **** * Summary:
 196:.\Generated_Source\PSoC5/cyfitter_cfg.c **** *  Performs the initialization of all of the clocks in the device based on the
 197:.\Generated_Source\PSoC5/cyfitter_cfg.c **** *  settings in the Clock tab of the DWR.  This includes enabling the requested
 198:.\Generated_Source\PSoC5/cyfitter_cfg.c **** *  clocks and setting the necessary dividers to produce the desired frequency. 
 199:.\Generated_Source\PSoC5/cyfitter_cfg.c **** *
 200:.\Generated_Source\PSoC5/cyfitter_cfg.c **** * Parameters:
 201:.\Generated_Source\PSoC5/cyfitter_cfg.c **** *  void
 202:.\Generated_Source\PSoC5/cyfitter_cfg.c **** *
 203:.\Generated_Source\PSoC5/cyfitter_cfg.c **** * Return:
 204:.\Generated_Source\PSoC5/cyfitter_cfg.c **** *  void
 205:.\Generated_Source\PSoC5/cyfitter_cfg.c **** *
 206:.\Generated_Source\PSoC5/cyfitter_cfg.c **** *******************************************************************************/
 207:.\Generated_Source\PSoC5/cyfitter_cfg.c **** static void ClockSetup(void);
 208:.\Generated_Source\PSoC5/cyfitter_cfg.c **** static void ClockSetup(void)
 209:.\Generated_Source\PSoC5/cyfitter_cfg.c **** {
 235              		.loc 1 209 0
 236              		.cfi_startproc
 237              		@ args = 0, pretend = 0, frame = 8
 238              		@ frame_needed = 1, uses_anonymous_args = 0
 239 0000 80B5     		push	{r7, lr}
 240              		.cfi_def_cfa_offset 8
 241              		.cfi_offset 7, -8
 242              		.cfi_offset 14, -4
 243 0002 82B0     		sub	sp, sp, #8
 244              		.cfi_def_cfa_offset 16
ARM GAS  C:\Users\Lois\AppData\Local\Temp\ccmucEQ9.s 			page 9


 245 0004 00AF     		add	r7, sp, #0
 246              		.cfi_def_cfa_register 7
 210:.\Generated_Source\PSoC5/cyfitter_cfg.c **** 	uint32 timeout;
 211:.\Generated_Source\PSoC5/cyfitter_cfg.c **** 	uint8 pllLock;
 212:.\Generated_Source\PSoC5/cyfitter_cfg.c **** 
 213:.\Generated_Source\PSoC5/cyfitter_cfg.c **** 
 214:.\Generated_Source\PSoC5/cyfitter_cfg.c **** 	/* Configure Digital Clocks based on settings from Clock DWR */
 215:.\Generated_Source\PSoC5/cyfitter_cfg.c **** 	CY_SET_XTND_REG16((void CYFAR *)(CYREG_CLKDIST_DCFG0_CFG0), 0x0000u);
 247              		.loc 1 215 0
 248 0006 3B4B     		ldr	r3, .L13
 249 0008 0022     		movs	r2, #0
 250 000a 1A80     		strh	r2, [r3]	@ movhi
 216:.\Generated_Source\PSoC5/cyfitter_cfg.c **** 	CY_SET_XTND_REG8((void CYFAR *)(CYREG_CLKDIST_DCFG0_CFG0 + 0x2u), 0x50u);
 251              		.loc 1 216 0
 252 000c 3A4B     		ldr	r3, .L13+4
 253 000e 5022     		movs	r2, #80
 254 0010 1A70     		strb	r2, [r3]
 217:.\Generated_Source\PSoC5/cyfitter_cfg.c **** 	CY_SET_XTND_REG16((void CYFAR *)(CYREG_CLKDIST_DCFG1_CFG0), 0x0077u);
 255              		.loc 1 217 0
 256 0012 3A4B     		ldr	r3, .L13+8
 257 0014 7722     		movs	r2, #119
 258 0016 1A80     		strh	r2, [r3]	@ movhi
 218:.\Generated_Source\PSoC5/cyfitter_cfg.c **** 	CY_SET_XTND_REG8((void CYFAR *)(CYREG_CLKDIST_DCFG1_CFG0 + 0x2u), 0x18u);
 259              		.loc 1 218 0
 260 0018 394B     		ldr	r3, .L13+12
 261 001a 1822     		movs	r2, #24
 262 001c 1A70     		strb	r2, [r3]
 219:.\Generated_Source\PSoC5/cyfitter_cfg.c **** 
 220:.\Generated_Source\PSoC5/cyfitter_cfg.c **** 	/* Configure Analog Clocks based on settings from Clock DWR */
 221:.\Generated_Source\PSoC5/cyfitter_cfg.c **** 	CYCONFIGCPY((void CYFAR *)(CYREG_CLKDIST_ACFG0_CFG0), (const void CYFAR *)(BS_CYDEV_CLKDIST_ACFG0_
 263              		.loc 1 221 0
 264 001e 3948     		ldr	r0, .L13+16
 265 0020 3949     		ldr	r1, .L13+20
 266 0022 0422     		movs	r2, #4
 267 0024 FFF7FEFF 		bl	CYCONFIGCPY
 222:.\Generated_Source\PSoC5/cyfitter_cfg.c **** 
 223:.\Generated_Source\PSoC5/cyfitter_cfg.c **** 	/* Configure ILO based on settings from Clock DWR */
 224:.\Generated_Source\PSoC5/cyfitter_cfg.c **** 	CY_SET_XTND_REG8((void CYFAR *)(CYREG_SLOWCLK_ILO_CR0), 0x06u);
 268              		.loc 1 224 0
 269 0028 384B     		ldr	r3, .L13+24
 270 002a 0622     		movs	r2, #6
 271 002c 1A70     		strb	r2, [r3]
 225:.\Generated_Source\PSoC5/cyfitter_cfg.c **** 
 226:.\Generated_Source\PSoC5/cyfitter_cfg.c **** 	/* Configure IMO based on settings from Clock DWR */
 227:.\Generated_Source\PSoC5/cyfitter_cfg.c **** 	CY_SET_XTND_REG8((void CYFAR *)(CYREG_FASTCLK_IMO_CR), 0x52u);
 272              		.loc 1 227 0
 273 002e 384B     		ldr	r3, .L13+28
 274 0030 5222     		movs	r2, #82
 275 0032 1A70     		strb	r2, [r3]
 228:.\Generated_Source\PSoC5/cyfitter_cfg.c **** 	CY_SET_XTND_REG8((void CYFAR *)(CYREG_IMO_TR1), (CY_GET_XTND_REG8((void CYFAR *)CYREG_FLSHID_CUST_
 276              		.loc 1 228 0
 277 0034 374B     		ldr	r3, .L13+32
 278 0036 384A     		ldr	r2, .L13+36
 279 0038 1278     		ldrb	r2, [r2]
 280 003a D2B2     		uxtb	r2, r2
 281 003c 1A70     		strb	r2, [r3]
 229:.\Generated_Source\PSoC5/cyfitter_cfg.c **** 
ARM GAS  C:\Users\Lois\AppData\Local\Temp\ccmucEQ9.s 			page 10


 230:.\Generated_Source\PSoC5/cyfitter_cfg.c **** 	/* Configure Bus/Master Clock based on settings from Clock DWR */
 231:.\Generated_Source\PSoC5/cyfitter_cfg.c **** 	CY_SET_XTND_REG16((void CYFAR *)(CYREG_CLKDIST_MSTR0), 0x0000u);
 282              		.loc 1 231 0
 283 003e 374B     		ldr	r3, .L13+40
 284 0040 0022     		movs	r2, #0
 285 0042 1A80     		strh	r2, [r3]	@ movhi
 232:.\Generated_Source\PSoC5/cyfitter_cfg.c **** 
 233:.\Generated_Source\PSoC5/cyfitter_cfg.c **** 	/* Configure PLL based on settings from Clock DWR */
 234:.\Generated_Source\PSoC5/cyfitter_cfg.c **** 	CY_SET_XTND_REG16((void CYFAR *)(CYREG_FASTCLK_PLL_P), 0x0710u);
 286              		.loc 1 234 0
 287 0044 364B     		ldr	r3, .L13+44
 288 0046 4FF4E262 		mov	r2, #1808
 289 004a 1A80     		strh	r2, [r3]	@ movhi
 235:.\Generated_Source\PSoC5/cyfitter_cfg.c **** 	CY_SET_XTND_REG16((void CYFAR *)(CYREG_FASTCLK_PLL_CFG0), 0x1251u);
 290              		.loc 1 235 0
 291 004c 354B     		ldr	r3, .L13+48
 292 004e 41F25122 		movw	r2, #4689
 293 0052 1A80     		strh	r2, [r3]	@ movhi
 236:.\Generated_Source\PSoC5/cyfitter_cfg.c **** 	/* Wait up to 250us for the PLL to lock */
 237:.\Generated_Source\PSoC5/cyfitter_cfg.c **** 	pllLock = 0u;
 294              		.loc 1 237 0
 295 0054 0023     		movs	r3, #0
 296 0056 FB70     		strb	r3, [r7, #3]
 238:.\Generated_Source\PSoC5/cyfitter_cfg.c **** 	for (timeout = 250u / 10u; (timeout > 0u) && (pllLock != 0x03u); timeout--)
 297              		.loc 1 238 0
 298 0058 1923     		movs	r3, #25
 299 005a 7B60     		str	r3, [r7, #4]
 300 005c 14E0     		b	.L10
 301              	.L12:
 239:.\Generated_Source\PSoC5/cyfitter_cfg.c **** 	{ 
 240:.\Generated_Source\PSoC5/cyfitter_cfg.c **** 		pllLock = 0x03u & ((uint8)((uint8)pllLock << 1) | ((CY_GET_XTND_REG8((void CYFAR *)CYREG_FASTCLK_
 302              		.loc 1 240 0 discriminator 4
 303 005e FB78     		ldrb	r3, [r7, #3]
 304 0060 5B00     		lsls	r3, r3, #1
 305 0062 DAB2     		uxtb	r2, r3
 306 0064 304B     		ldr	r3, .L13+52
 307 0066 1B78     		ldrb	r3, [r3]
 308 0068 DBB2     		uxtb	r3, r3
 309 006a 03F00103 		and	r3, r3, #1
 310 006e DBB2     		uxtb	r3, r3
 311 0070 1343     		orrs	r3, r3, r2
 312 0072 DBB2     		uxtb	r3, r3
 313 0074 03F00303 		and	r3, r3, #3
 314 0078 FB70     		strb	r3, [r7, #3]
 241:.\Generated_Source\PSoC5/cyfitter_cfg.c **** 		CyDelayCycles(10u * 48u); /* Delay 10us based on 48MHz clock */
 315              		.loc 1 241 0 discriminator 4
 316 007a 4FF4F070 		mov	r0, #480
 317 007e FFF7FEFF 		bl	CyDelayCycles
 238:.\Generated_Source\PSoC5/cyfitter_cfg.c **** 	for (timeout = 250u / 10u; (timeout > 0u) && (pllLock != 0x03u); timeout--)
 318              		.loc 1 238 0 discriminator 4
 319 0082 7B68     		ldr	r3, [r7, #4]
 320 0084 013B     		subs	r3, r3, #1
 321 0086 7B60     		str	r3, [r7, #4]
 322              	.L10:
 238:.\Generated_Source\PSoC5/cyfitter_cfg.c **** 	for (timeout = 250u / 10u; (timeout > 0u) && (pllLock != 0x03u); timeout--)
 323              		.loc 1 238 0 is_stmt 0 discriminator 1
 324 0088 7B68     		ldr	r3, [r7, #4]
ARM GAS  C:\Users\Lois\AppData\Local\Temp\ccmucEQ9.s 			page 11


 325 008a 002B     		cmp	r3, #0
 326 008c 02D0     		beq	.L11
 238:.\Generated_Source\PSoC5/cyfitter_cfg.c **** 	for (timeout = 250u / 10u; (timeout > 0u) && (pllLock != 0x03u); timeout--)
 327              		.loc 1 238 0 discriminator 3
 328 008e FB78     		ldrb	r3, [r7, #3]	@ zero_extendqisi2
 329 0090 032B     		cmp	r3, #3
 330 0092 E4D1     		bne	.L12
 331              	.L11:
 242:.\Generated_Source\PSoC5/cyfitter_cfg.c **** 	}
 243:.\Generated_Source\PSoC5/cyfitter_cfg.c **** 	CY_SET_XTND_REG8((void CYFAR *)(CYREG_CLKDIST_MSTR0), 0x07u);
 332              		.loc 1 243 0 is_stmt 1
 333 0094 214B     		ldr	r3, .L13+40
 334 0096 0722     		movs	r2, #7
 335 0098 1A70     		strb	r2, [r3]
 244:.\Generated_Source\PSoC5/cyfitter_cfg.c **** 	CY_SET_XTND_REG8((void CYFAR *)(CYREG_CLKDIST_BCFG0), 0x00u);
 336              		.loc 1 244 0
 337 009a 244B     		ldr	r3, .L13+56
 338 009c 0022     		movs	r2, #0
 339 009e 1A70     		strb	r2, [r3]
 245:.\Generated_Source\PSoC5/cyfitter_cfg.c **** 	CY_SET_XTND_REG8((void CYFAR *)(CYREG_CLKDIST_BCFG2), 0x48u);
 340              		.loc 1 245 0
 341 00a0 234B     		ldr	r3, .L13+60
 342 00a2 4822     		movs	r2, #72
 343 00a4 1A70     		strb	r2, [r3]
 246:.\Generated_Source\PSoC5/cyfitter_cfg.c **** 	CY_SET_XTND_REG8((void CYFAR *)(CYREG_CLKDIST_MSTR0), 0x00u);
 344              		.loc 1 246 0
 345 00a6 1D4B     		ldr	r3, .L13+40
 346 00a8 0022     		movs	r2, #0
 347 00aa 1A70     		strb	r2, [r3]
 247:.\Generated_Source\PSoC5/cyfitter_cfg.c **** 
 248:.\Generated_Source\PSoC5/cyfitter_cfg.c **** 	/* Configure USB Clock based on settings from Clock DWR */
 249:.\Generated_Source\PSoC5/cyfitter_cfg.c **** 	CY_SET_XTND_REG8((void CYFAR *)(CYREG_CLKDIST_UCFG), 0x00u);
 348              		.loc 1 249 0
 349 00ac 214B     		ldr	r3, .L13+64
 350 00ae 0022     		movs	r2, #0
 351 00b0 1A70     		strb	r2, [r3]
 250:.\Generated_Source\PSoC5/cyfitter_cfg.c **** 	CY_SET_XTND_REG8((void CYFAR *)(CYREG_CLKDIST_LD), 0x02u);
 352              		.loc 1 250 0
 353 00b2 214B     		ldr	r3, .L13+68
 354 00b4 0222     		movs	r2, #2
 355 00b6 1A70     		strb	r2, [r3]
 251:.\Generated_Source\PSoC5/cyfitter_cfg.c **** 	CY_SET_XTND_REG8((void CYFAR *)(CYREG_CLKDIST_DLY1), 0x04u);
 356              		.loc 1 251 0
 357 00b8 204B     		ldr	r3, .L13+72
 358 00ba 0422     		movs	r2, #4
 359 00bc 1A70     		strb	r2, [r3]
 252:.\Generated_Source\PSoC5/cyfitter_cfg.c **** 
 253:.\Generated_Source\PSoC5/cyfitter_cfg.c **** 	CY_SET_XTND_REG8((void CYFAR *)(CYREG_PM_ACT_CFG2), ((CY_GET_XTND_REG8((void CYFAR *)CYREG_PM_ACT_
 360              		.loc 1 253 0
 361 00be 204A     		ldr	r2, .L13+76
 362 00c0 1F4B     		ldr	r3, .L13+76
 363 00c2 1B78     		ldrb	r3, [r3]
 364 00c4 DBB2     		uxtb	r3, r3
 365 00c6 43F00303 		orr	r3, r3, #3
 366 00ca DBB2     		uxtb	r3, r3
 367 00cc 1370     		strb	r3, [r2]
 254:.\Generated_Source\PSoC5/cyfitter_cfg.c **** 	CY_SET_XTND_REG8((void CYFAR *)(CYREG_PM_ACT_CFG1), ((CY_GET_XTND_REG8((void CYFAR *)CYREG_PM_ACT_
ARM GAS  C:\Users\Lois\AppData\Local\Temp\ccmucEQ9.s 			page 12


 368              		.loc 1 254 0
 369 00ce 1D4A     		ldr	r2, .L13+80
 370 00d0 1C4B     		ldr	r3, .L13+80
 371 00d2 1B78     		ldrb	r3, [r3]
 372 00d4 DBB2     		uxtb	r3, r3
 373 00d6 43F00103 		orr	r3, r3, #1
 374 00da DBB2     		uxtb	r3, r3
 375 00dc 1370     		strb	r3, [r2]
 255:.\Generated_Source\PSoC5/cyfitter_cfg.c **** 	CY_SET_XTND_REG8((void CYFAR *)(CYREG_PM_ACT_CFG0), ((CY_GET_XTND_REG8((void CYFAR *)CYREG_PM_ACT_
 376              		.loc 1 255 0
 377 00de 1A4A     		ldr	r2, .L13+84
 378 00e0 194B     		ldr	r3, .L13+84
 379 00e2 1B78     		ldrb	r3, [r3]
 380 00e4 DBB2     		uxtb	r3, r3
 381 00e6 63F07F03 		orn	r3, r3, #127
 382 00ea DBB2     		uxtb	r3, r3
 383 00ec 1370     		strb	r3, [r2]
 256:.\Generated_Source\PSoC5/cyfitter_cfg.c **** }
 384              		.loc 1 256 0
 385 00ee 0837     		adds	r7, r7, #8
 386              		.cfi_def_cfa_offset 8
 387 00f0 BD46     		mov	sp, r7
 388              		.cfi_def_cfa_register 13
 389              		@ sp needed
 390 00f2 80BD     		pop	{r7, pc}
 391              	.L14:
 392              		.align	2
 393              	.L13:
 394 00f4 80400040 		.word	1073758336
 395 00f8 82400040 		.word	1073758338
 396 00fc 84400040 		.word	1073758340
 397 0100 86400040 		.word	1073758342
 398 0104 00410040 		.word	1073758464
 399 0108 EC060048 		.word	1207961324
 400 010c 00430040 		.word	1073758976
 401 0110 00420040 		.word	1073758720
 402 0114 A1460040 		.word	1073759905
 403 0118 0F010049 		.word	1224737039
 404 011c 04400040 		.word	1073758212
 405 0120 22420040 		.word	1073758754
 406 0124 20420040 		.word	1073758752
 407 0128 25420040 		.word	1073758757
 408 012c 06400040 		.word	1073758214
 409 0130 08400040 		.word	1073758216
 410 0134 09400040 		.word	1073758217
 411 0138 01400040 		.word	1073758209
 412 013c 0B400040 		.word	1073758219
 413 0140 A2430040 		.word	1073759138
 414 0144 A1430040 		.word	1073759137
 415 0148 A0430040 		.word	1073759136
 416              		.cfi_endproc
 417              	.LFE4:
 418              		.size	ClockSetup, .-ClockSetup
 419              		.section	.text.AnalogSetDefault,"ax",%progbits
 420              		.align	2
 421              		.thumb
 422              		.thumb_func
ARM GAS  C:\Users\Lois\AppData\Local\Temp\ccmucEQ9.s 			page 13


 423              		.type	AnalogSetDefault, %function
 424              	AnalogSetDefault:
 425              	.LFB5:
 257:.\Generated_Source\PSoC5/cyfitter_cfg.c **** 
 258:.\Generated_Source\PSoC5/cyfitter_cfg.c **** 
 259:.\Generated_Source\PSoC5/cyfitter_cfg.c **** /* Analog API Functions */
 260:.\Generated_Source\PSoC5/cyfitter_cfg.c **** 
 261:.\Generated_Source\PSoC5/cyfitter_cfg.c **** 
 262:.\Generated_Source\PSoC5/cyfitter_cfg.c **** /*******************************************************************************
 263:.\Generated_Source\PSoC5/cyfitter_cfg.c **** * Function Name: AnalogSetDefault
 264:.\Generated_Source\PSoC5/cyfitter_cfg.c **** ********************************************************************************
 265:.\Generated_Source\PSoC5/cyfitter_cfg.c **** *
 266:.\Generated_Source\PSoC5/cyfitter_cfg.c **** * Summary:
 267:.\Generated_Source\PSoC5/cyfitter_cfg.c **** *  Sets up the analog portions of the chip to default values based on chip
 268:.\Generated_Source\PSoC5/cyfitter_cfg.c **** *  configuration options from the project.
 269:.\Generated_Source\PSoC5/cyfitter_cfg.c **** *
 270:.\Generated_Source\PSoC5/cyfitter_cfg.c **** * Parameters:
 271:.\Generated_Source\PSoC5/cyfitter_cfg.c **** *  void
 272:.\Generated_Source\PSoC5/cyfitter_cfg.c **** *
 273:.\Generated_Source\PSoC5/cyfitter_cfg.c **** * Return:
 274:.\Generated_Source\PSoC5/cyfitter_cfg.c **** *  void
 275:.\Generated_Source\PSoC5/cyfitter_cfg.c **** *
 276:.\Generated_Source\PSoC5/cyfitter_cfg.c **** *******************************************************************************/
 277:.\Generated_Source\PSoC5/cyfitter_cfg.c **** static void AnalogSetDefault(void);
 278:.\Generated_Source\PSoC5/cyfitter_cfg.c **** static void AnalogSetDefault(void)
 279:.\Generated_Source\PSoC5/cyfitter_cfg.c **** {
 426              		.loc 1 279 0
 427              		.cfi_startproc
 428              		@ args = 0, pretend = 0, frame = 8
 429              		@ frame_needed = 1, uses_anonymous_args = 0
 430              		@ link register save eliminated.
 431 0000 80B4     		push	{r7}
 432              		.cfi_def_cfa_offset 4
 433              		.cfi_offset 7, -4
 434 0002 83B0     		sub	sp, sp, #12
 435              		.cfi_def_cfa_offset 16
 436 0004 00AF     		add	r7, sp, #0
 437              		.cfi_def_cfa_register 7
 280:.\Generated_Source\PSoC5/cyfitter_cfg.c **** 	uint8 bg_xover_inl_trim = CY_GET_XTND_REG8((void CYFAR *)(CYREG_FLSHID_MFG_CFG_BG_XOVER_INL_TRIM +
 438              		.loc 1 280 0
 439 0006 0F4B     		ldr	r3, .L16
 440 0008 1B78     		ldrb	r3, [r3]
 441 000a FB71     		strb	r3, [r7, #7]
 281:.\Generated_Source\PSoC5/cyfitter_cfg.c **** 	CY_SET_XTND_REG8((void CYFAR *)(CYREG_BG_DFT0), (bg_xover_inl_trim & 0x07u));
 442              		.loc 1 281 0
 443 000c 0E4A     		ldr	r2, .L16+4
 444 000e FB79     		ldrb	r3, [r7, #7]
 445 0010 03F00703 		and	r3, r3, #7
 446 0014 DBB2     		uxtb	r3, r3
 447 0016 1370     		strb	r3, [r2]
 282:.\Generated_Source\PSoC5/cyfitter_cfg.c **** 	CY_SET_XTND_REG8((void CYFAR *)(CYREG_BG_DFT1), ((bg_xover_inl_trim >> 4) & 0x0Fu));
 448              		.loc 1 282 0
 449 0018 0C4A     		ldr	r2, .L16+8
 450 001a FB79     		ldrb	r3, [r7, #7]	@ zero_extendqisi2
 451 001c 1B09     		lsrs	r3, r3, #4
 452 001e DBB2     		uxtb	r3, r3
 453 0020 1370     		strb	r3, [r2]
ARM GAS  C:\Users\Lois\AppData\Local\Temp\ccmucEQ9.s 			page 14


 283:.\Generated_Source\PSoC5/cyfitter_cfg.c **** 	CY_SET_XTND_REG8((void CYFAR *)CYREG_PRT3_AG, 0x20u);
 454              		.loc 1 283 0
 455 0022 0B4B     		ldr	r3, .L16+12
 456 0024 2022     		movs	r2, #32
 457 0026 1A70     		strb	r2, [r3]
 284:.\Generated_Source\PSoC5/cyfitter_cfg.c **** 	CY_SET_XTND_REG8((void CYFAR *)CYREG_DSM0_SW0, 0x20u);
 458              		.loc 1 284 0
 459 0028 0A4B     		ldr	r3, .L16+16
 460 002a 2022     		movs	r2, #32
 461 002c 1A70     		strb	r2, [r3]
 285:.\Generated_Source\PSoC5/cyfitter_cfg.c **** 	CY_SET_XTND_REG8((void CYFAR *)CYREG_BUS_SW0, 0x20u);
 462              		.loc 1 285 0
 463 002e 0A4B     		ldr	r3, .L16+20
 464 0030 2022     		movs	r2, #32
 465 0032 1A70     		strb	r2, [r3]
 286:.\Generated_Source\PSoC5/cyfitter_cfg.c **** 	CY_SET_XTND_REG8((void CYFAR *)CYREG_PUMP_CR0, 0x44u);
 466              		.loc 1 286 0
 467 0034 094B     		ldr	r3, .L16+24
 468 0036 4422     		movs	r2, #68
 469 0038 1A70     		strb	r2, [r3]
 287:.\Generated_Source\PSoC5/cyfitter_cfg.c **** }
 470              		.loc 1 287 0
 471 003a 0C37     		adds	r7, r7, #12
 472              		.cfi_def_cfa_offset 4
 473 003c BD46     		mov	sp, r7
 474              		.cfi_def_cfa_register 13
 475              		@ sp needed
 476 003e 5DF8047B 		ldr	r7, [sp], #4
 477              		.cfi_restore 7
 478              		.cfi_def_cfa_offset 0
 479 0042 7047     		bx	lr
 480              	.L17:
 481              		.align	2
 482              	.L16:
 483 0044 CF010049 		.word	1224737231
 484 0048 6E580040 		.word	1073764462
 485 004c 6F580040 		.word	1073764463
 486 0050 3D510040 		.word	1073762621
 487 0054 005B0040 		.word	1073765120
 488 0058 585B0040 		.word	1073765208
 489 005c 76580040 		.word	1073764470
 490              		.cfi_endproc
 491              	.LFE5:
 492              		.size	AnalogSetDefault, .-AnalogSetDefault
 493              		.section	.text.SetAnalogRoutingPumps,"ax",%progbits
 494              		.align	2
 495              		.global	SetAnalogRoutingPumps
 496              		.thumb
 497              		.thumb_func
 498              		.type	SetAnalogRoutingPumps, %function
 499              	SetAnalogRoutingPumps:
 500              	.LFB6:
 288:.\Generated_Source\PSoC5/cyfitter_cfg.c **** 
 289:.\Generated_Source\PSoC5/cyfitter_cfg.c **** 
 290:.\Generated_Source\PSoC5/cyfitter_cfg.c **** /*******************************************************************************
 291:.\Generated_Source\PSoC5/cyfitter_cfg.c **** * Function Name: SetAnalogRoutingPumps
 292:.\Generated_Source\PSoC5/cyfitter_cfg.c **** ********************************************************************************
ARM GAS  C:\Users\Lois\AppData\Local\Temp\ccmucEQ9.s 			page 15


 293:.\Generated_Source\PSoC5/cyfitter_cfg.c **** *
 294:.\Generated_Source\PSoC5/cyfitter_cfg.c **** * Summary:
 295:.\Generated_Source\PSoC5/cyfitter_cfg.c **** * Enables or disables the analog pumps feeding analog routing switches.
 296:.\Generated_Source\PSoC5/cyfitter_cfg.c **** * Intended to be called at startup, based on the Vdda system configuration;
 297:.\Generated_Source\PSoC5/cyfitter_cfg.c **** * may be called during operation when the user informs us that the Vdda voltage
 298:.\Generated_Source\PSoC5/cyfitter_cfg.c **** * crossed the pump threshold.
 299:.\Generated_Source\PSoC5/cyfitter_cfg.c **** *
 300:.\Generated_Source\PSoC5/cyfitter_cfg.c **** * Parameters:
 301:.\Generated_Source\PSoC5/cyfitter_cfg.c **** *  enabled - 1 to enable the pumps, 0 to disable the pumps
 302:.\Generated_Source\PSoC5/cyfitter_cfg.c **** *
 303:.\Generated_Source\PSoC5/cyfitter_cfg.c **** * Return:
 304:.\Generated_Source\PSoC5/cyfitter_cfg.c **** *  void
 305:.\Generated_Source\PSoC5/cyfitter_cfg.c **** *
 306:.\Generated_Source\PSoC5/cyfitter_cfg.c **** *******************************************************************************/
 307:.\Generated_Source\PSoC5/cyfitter_cfg.c **** void SetAnalogRoutingPumps(uint8 enabled)
 308:.\Generated_Source\PSoC5/cyfitter_cfg.c **** {
 501              		.loc 1 308 0
 502              		.cfi_startproc
 503              		@ args = 0, pretend = 0, frame = 16
 504              		@ frame_needed = 1, uses_anonymous_args = 0
 505              		@ link register save eliminated.
 506 0000 80B4     		push	{r7}
 507              		.cfi_def_cfa_offset 4
 508              		.cfi_offset 7, -4
 509 0002 85B0     		sub	sp, sp, #20
 510              		.cfi_def_cfa_offset 24
 511 0004 00AF     		add	r7, sp, #0
 512              		.cfi_def_cfa_register 7
 513 0006 0346     		mov	r3, r0
 514 0008 FB71     		strb	r3, [r7, #7]
 309:.\Generated_Source\PSoC5/cyfitter_cfg.c **** 	uint8 regValue = CY_GET_XTND_REG8((void CYFAR *)CYREG_PUMP_CR0);
 515              		.loc 1 309 0
 516 000a 0B4B     		ldr	r3, .L21
 517 000c 1B78     		ldrb	r3, [r3]
 518 000e FB73     		strb	r3, [r7, #15]
 310:.\Generated_Source\PSoC5/cyfitter_cfg.c **** 	if (enabled != 0u)
 519              		.loc 1 310 0
 520 0010 FB79     		ldrb	r3, [r7, #7]	@ zero_extendqisi2
 521 0012 002B     		cmp	r3, #0
 522 0014 04D0     		beq	.L19
 311:.\Generated_Source\PSoC5/cyfitter_cfg.c **** 	{
 312:.\Generated_Source\PSoC5/cyfitter_cfg.c **** 		regValue |= 0x22u;
 523              		.loc 1 312 0
 524 0016 FB7B     		ldrb	r3, [r7, #15]
 525 0018 43F02203 		orr	r3, r3, #34
 526 001c FB73     		strb	r3, [r7, #15]
 527 001e 03E0     		b	.L20
 528              	.L19:
 313:.\Generated_Source\PSoC5/cyfitter_cfg.c **** 	}
 314:.\Generated_Source\PSoC5/cyfitter_cfg.c **** 	else
 315:.\Generated_Source\PSoC5/cyfitter_cfg.c **** 	{
 316:.\Generated_Source\PSoC5/cyfitter_cfg.c **** 		regValue &= (uint8)~0x22u;
 529              		.loc 1 316 0
 530 0020 FB7B     		ldrb	r3, [r7, #15]
 531 0022 23F02203 		bic	r3, r3, #34
 532 0026 FB73     		strb	r3, [r7, #15]
 533              	.L20:
ARM GAS  C:\Users\Lois\AppData\Local\Temp\ccmucEQ9.s 			page 16


 317:.\Generated_Source\PSoC5/cyfitter_cfg.c **** 	}
 318:.\Generated_Source\PSoC5/cyfitter_cfg.c **** 	CY_SET_XTND_REG8((void CYFAR *)CYREG_PUMP_CR0, regValue);
 534              		.loc 1 318 0
 535 0028 034A     		ldr	r2, .L21
 536 002a FB7B     		ldrb	r3, [r7, #15]
 537 002c 1370     		strb	r3, [r2]
 319:.\Generated_Source\PSoC5/cyfitter_cfg.c **** }
 538              		.loc 1 319 0
 539 002e 1437     		adds	r7, r7, #20
 540              		.cfi_def_cfa_offset 4
 541 0030 BD46     		mov	sp, r7
 542              		.cfi_def_cfa_register 13
 543              		@ sp needed
 544 0032 5DF8047B 		ldr	r7, [sp], #4
 545              		.cfi_restore 7
 546              		.cfi_def_cfa_offset 0
 547 0036 7047     		bx	lr
 548              	.L22:
 549              		.align	2
 550              	.L21:
 551 0038 76580040 		.word	1073764470
 552              		.cfi_endproc
 553              	.LFE6:
 554              		.size	SetAnalogRoutingPumps, .-SetAnalogRoutingPumps
 555              		.global	ADC_AMux__addrTable
 556              		.section	.rodata
 557              		.align	2
 558              		.type	ADC_AMux__addrTable, %object
 559              		.size	ADC_AMux__addrTable, 8
 560              	ADC_AMux__addrTable:
 561 0000 035B0040 		.word	1073765123
 562 0004 24430040 		.word	1073759012
 563              		.global	ADC_AMux__maskTable
 564              		.align	2
 565              		.type	ADC_AMux__maskTable, %object
 566              		.size	ADC_AMux__maskTable, 2
 567              	ADC_AMux__maskTable:
 568 0008 40       		.byte	64
 569 0009 00       		.byte	0
 570              		.section	.text.ADC_AMux_Set,"ax",%progbits
 571              		.align	2
 572              		.global	ADC_AMux_Set
 573              		.thumb
 574              		.thumb_func
 575              		.type	ADC_AMux_Set, %function
 576              	ADC_AMux_Set:
 577              	.LFB7:
 320:.\Generated_Source\PSoC5/cyfitter_cfg.c **** 
 321:.\Generated_Source\PSoC5/cyfitter_cfg.c **** #define CY_AMUX_UNUSED CYREG_BOOST_SR
 322:.\Generated_Source\PSoC5/cyfitter_cfg.c **** /* This is an implementation detail of the AMux. Code that depends on it may be
 323:.\Generated_Source\PSoC5/cyfitter_cfg.c ****    incompatible with other versions of PSoC Creator. */
 324:.\Generated_Source\PSoC5/cyfitter_cfg.c **** uint8 CYXDATA * const CYCODE ADC_AMux__addrTable[2] = {
 325:.\Generated_Source\PSoC5/cyfitter_cfg.c **** 	(uint8 CYXDATA *)CYREG_DSM0_SW3, 
 326:.\Generated_Source\PSoC5/cyfitter_cfg.c **** 	(uint8 CYXDATA *)CY_AMUX_UNUSED, 
 327:.\Generated_Source\PSoC5/cyfitter_cfg.c **** };
 328:.\Generated_Source\PSoC5/cyfitter_cfg.c **** 
 329:.\Generated_Source\PSoC5/cyfitter_cfg.c **** /* This is an implementation detail of the AMux. Code that depends on it may be
ARM GAS  C:\Users\Lois\AppData\Local\Temp\ccmucEQ9.s 			page 17


 330:.\Generated_Source\PSoC5/cyfitter_cfg.c ****    incompatible with other versions of PSoC Creator. */
 331:.\Generated_Source\PSoC5/cyfitter_cfg.c **** const uint8 CYCODE ADC_AMux__maskTable[2] = {
 332:.\Generated_Source\PSoC5/cyfitter_cfg.c **** 	0x40u, 
 333:.\Generated_Source\PSoC5/cyfitter_cfg.c **** 	0x00u, 
 334:.\Generated_Source\PSoC5/cyfitter_cfg.c **** };
 335:.\Generated_Source\PSoC5/cyfitter_cfg.c **** 
 336:.\Generated_Source\PSoC5/cyfitter_cfg.c **** /*******************************************************************************
 337:.\Generated_Source\PSoC5/cyfitter_cfg.c **** * Function Name: ADC_AMux_Set
 338:.\Generated_Source\PSoC5/cyfitter_cfg.c **** ********************************************************************************
 339:.\Generated_Source\PSoC5/cyfitter_cfg.c **** * Summary:
 340:.\Generated_Source\PSoC5/cyfitter_cfg.c **** *  This function is used to set a particular channel as active on the AMux.
 341:.\Generated_Source\PSoC5/cyfitter_cfg.c **** *
 342:.\Generated_Source\PSoC5/cyfitter_cfg.c **** * Parameters:  
 343:.\Generated_Source\PSoC5/cyfitter_cfg.c **** *   channel - The mux channel input to set as active
 344:.\Generated_Source\PSoC5/cyfitter_cfg.c **** *
 345:.\Generated_Source\PSoC5/cyfitter_cfg.c **** * Return:
 346:.\Generated_Source\PSoC5/cyfitter_cfg.c **** *   void
 347:.\Generated_Source\PSoC5/cyfitter_cfg.c **** *
 348:.\Generated_Source\PSoC5/cyfitter_cfg.c **** *******************************************************************************/
 349:.\Generated_Source\PSoC5/cyfitter_cfg.c **** void ADC_AMux_Set(uint8 channel)
 350:.\Generated_Source\PSoC5/cyfitter_cfg.c **** {
 578              		.loc 1 350 0
 579              		.cfi_startproc
 580              		@ args = 0, pretend = 0, frame = 8
 581              		@ frame_needed = 1, uses_anonymous_args = 0
 582              		@ link register save eliminated.
 583 0000 80B4     		push	{r7}
 584              		.cfi_def_cfa_offset 4
 585              		.cfi_offset 7, -4
 586 0002 83B0     		sub	sp, sp, #12
 587              		.cfi_def_cfa_offset 16
 588 0004 00AF     		add	r7, sp, #0
 589              		.cfi_def_cfa_register 7
 590 0006 0346     		mov	r3, r0
 591 0008 FB71     		strb	r3, [r7, #7]
 351:.\Generated_Source\PSoC5/cyfitter_cfg.c **** 	if (channel < 2)
 592              		.loc 1 351 0
 593 000a FB79     		ldrb	r3, [r7, #7]	@ zero_extendqisi2
 594 000c 012B     		cmp	r3, #1
 595 000e 0ED8     		bhi	.L23
 352:.\Generated_Source\PSoC5/cyfitter_cfg.c **** 	{
 353:.\Generated_Source\PSoC5/cyfitter_cfg.c **** 		*ADC_AMux__addrTable[channel] |= ADC_AMux__maskTable[channel];
 596              		.loc 1 353 0
 597 0010 FB79     		ldrb	r3, [r7, #7]	@ zero_extendqisi2
 598 0012 094A     		ldr	r2, .L25
 599 0014 52F82330 		ldr	r3, [r2, r3, lsl #2]
 600 0018 FA79     		ldrb	r2, [r7, #7]	@ zero_extendqisi2
 601 001a 0749     		ldr	r1, .L25
 602 001c 51F82220 		ldr	r2, [r1, r2, lsl #2]
 603 0020 1178     		ldrb	r1, [r2]	@ zero_extendqisi2
 604 0022 FA79     		ldrb	r2, [r7, #7]	@ zero_extendqisi2
 605 0024 0548     		ldr	r0, .L25+4
 606 0026 825C     		ldrb	r2, [r0, r2]	@ zero_extendqisi2
 607 0028 0A43     		orrs	r2, r2, r1
 608 002a D2B2     		uxtb	r2, r2
 609 002c 1A70     		strb	r2, [r3]
 610              	.L23:
ARM GAS  C:\Users\Lois\AppData\Local\Temp\ccmucEQ9.s 			page 18


 354:.\Generated_Source\PSoC5/cyfitter_cfg.c **** 	}
 355:.\Generated_Source\PSoC5/cyfitter_cfg.c **** }
 611              		.loc 1 355 0
 612 002e 0C37     		adds	r7, r7, #12
 613              		.cfi_def_cfa_offset 4
 614 0030 BD46     		mov	sp, r7
 615              		.cfi_def_cfa_register 13
 616              		@ sp needed
 617 0032 5DF8047B 		ldr	r7, [sp], #4
 618              		.cfi_restore 7
 619              		.cfi_def_cfa_offset 0
 620 0036 7047     		bx	lr
 621              	.L26:
 622              		.align	2
 623              	.L25:
 624 0038 00000000 		.word	ADC_AMux__addrTable
 625 003c 00000000 		.word	ADC_AMux__maskTable
 626              		.cfi_endproc
 627              	.LFE7:
 628              		.size	ADC_AMux_Set, .-ADC_AMux_Set
 629              		.section	.text.ADC_AMux_Unset,"ax",%progbits
 630              		.align	2
 631              		.global	ADC_AMux_Unset
 632              		.thumb
 633              		.thumb_func
 634              		.type	ADC_AMux_Unset, %function
 635              	ADC_AMux_Unset:
 636              	.LFB8:
 356:.\Generated_Source\PSoC5/cyfitter_cfg.c **** 
 357:.\Generated_Source\PSoC5/cyfitter_cfg.c **** /*******************************************************************************
 358:.\Generated_Source\PSoC5/cyfitter_cfg.c **** * Function Name: ADC_AMux_Unset
 359:.\Generated_Source\PSoC5/cyfitter_cfg.c **** ********************************************************************************
 360:.\Generated_Source\PSoC5/cyfitter_cfg.c **** * Summary:
 361:.\Generated_Source\PSoC5/cyfitter_cfg.c **** *  This function is used to clear a particular channel from being active on the
 362:.\Generated_Source\PSoC5/cyfitter_cfg.c **** *  AMux.
 363:.\Generated_Source\PSoC5/cyfitter_cfg.c **** *
 364:.\Generated_Source\PSoC5/cyfitter_cfg.c **** * Parameters:  
 365:.\Generated_Source\PSoC5/cyfitter_cfg.c **** *   channel - The mux channel input to mark inactive
 366:.\Generated_Source\PSoC5/cyfitter_cfg.c **** *
 367:.\Generated_Source\PSoC5/cyfitter_cfg.c **** * Return:
 368:.\Generated_Source\PSoC5/cyfitter_cfg.c **** *   void
 369:.\Generated_Source\PSoC5/cyfitter_cfg.c **** *
 370:.\Generated_Source\PSoC5/cyfitter_cfg.c **** *******************************************************************************/
 371:.\Generated_Source\PSoC5/cyfitter_cfg.c **** void ADC_AMux_Unset(uint8 channel)
 372:.\Generated_Source\PSoC5/cyfitter_cfg.c **** {
 637              		.loc 1 372 0
 638              		.cfi_startproc
 639              		@ args = 0, pretend = 0, frame = 8
 640              		@ frame_needed = 1, uses_anonymous_args = 0
 641              		@ link register save eliminated.
 642 0000 80B4     		push	{r7}
 643              		.cfi_def_cfa_offset 4
 644              		.cfi_offset 7, -4
 645 0002 83B0     		sub	sp, sp, #12
 646              		.cfi_def_cfa_offset 16
 647 0004 00AF     		add	r7, sp, #0
 648              		.cfi_def_cfa_register 7
ARM GAS  C:\Users\Lois\AppData\Local\Temp\ccmucEQ9.s 			page 19


 649 0006 0346     		mov	r3, r0
 650 0008 FB71     		strb	r3, [r7, #7]
 373:.\Generated_Source\PSoC5/cyfitter_cfg.c **** 	if (channel < 2)
 651              		.loc 1 373 0
 652 000a FB79     		ldrb	r3, [r7, #7]	@ zero_extendqisi2
 653 000c 012B     		cmp	r3, #1
 654 000e 10D8     		bhi	.L27
 374:.\Generated_Source\PSoC5/cyfitter_cfg.c **** 	{
 375:.\Generated_Source\PSoC5/cyfitter_cfg.c **** 		*ADC_AMux__addrTable[channel] &= (uint8)~ADC_AMux__maskTable[channel];
 655              		.loc 1 375 0
 656 0010 FB79     		ldrb	r3, [r7, #7]	@ zero_extendqisi2
 657 0012 0A4A     		ldr	r2, .L29
 658 0014 52F82330 		ldr	r3, [r2, r3, lsl #2]
 659 0018 FA79     		ldrb	r2, [r7, #7]	@ zero_extendqisi2
 660 001a 0849     		ldr	r1, .L29
 661 001c 51F82220 		ldr	r2, [r1, r2, lsl #2]
 662 0020 1178     		ldrb	r1, [r2]	@ zero_extendqisi2
 663 0022 FA79     		ldrb	r2, [r7, #7]	@ zero_extendqisi2
 664 0024 0648     		ldr	r0, .L29+4
 665 0026 825C     		ldrb	r2, [r0, r2]	@ zero_extendqisi2
 666 0028 D243     		mvns	r2, r2
 667 002a D2B2     		uxtb	r2, r2
 668 002c 0A40     		ands	r2, r2, r1
 669 002e D2B2     		uxtb	r2, r2
 670 0030 1A70     		strb	r2, [r3]
 671              	.L27:
 376:.\Generated_Source\PSoC5/cyfitter_cfg.c **** 	}
 377:.\Generated_Source\PSoC5/cyfitter_cfg.c **** }
 672              		.loc 1 377 0
 673 0032 0C37     		adds	r7, r7, #12
 674              		.cfi_def_cfa_offset 4
 675 0034 BD46     		mov	sp, r7
 676              		.cfi_def_cfa_register 13
 677              		@ sp needed
 678 0036 5DF8047B 		ldr	r7, [sp], #4
 679              		.cfi_restore 7
 680              		.cfi_def_cfa_offset 0
 681 003a 7047     		bx	lr
 682              	.L30:
 683              		.align	2
 684              	.L29:
 685 003c 00000000 		.word	ADC_AMux__addrTable
 686 0040 00000000 		.word	ADC_AMux__maskTable
 687              		.cfi_endproc
 688              	.LFE8:
 689              		.size	ADC_AMux_Unset, .-ADC_AMux_Unset
 690              		.section	.text.cyfitter_cfg,"ax",%progbits
 691              		.align	2
 692              		.global	cyfitter_cfg
 693              		.thumb
 694              		.thumb_func
 695              		.type	cyfitter_cfg, %function
 696              	cyfitter_cfg:
 697              	.LFB9:
 378:.\Generated_Source\PSoC5/cyfitter_cfg.c **** 
 379:.\Generated_Source\PSoC5/cyfitter_cfg.c **** 
 380:.\Generated_Source\PSoC5/cyfitter_cfg.c **** 
ARM GAS  C:\Users\Lois\AppData\Local\Temp\ccmucEQ9.s 			page 20


 381:.\Generated_Source\PSoC5/cyfitter_cfg.c **** /*******************************************************************************
 382:.\Generated_Source\PSoC5/cyfitter_cfg.c **** * Function Name: cyfitter_cfg
 383:.\Generated_Source\PSoC5/cyfitter_cfg.c **** ********************************************************************************
 384:.\Generated_Source\PSoC5/cyfitter_cfg.c **** * Summary:
 385:.\Generated_Source\PSoC5/cyfitter_cfg.c **** *  This function is called by the start-up code for the selected device. It
 386:.\Generated_Source\PSoC5/cyfitter_cfg.c **** *  performs all of the necessary device configuration based on the design
 387:.\Generated_Source\PSoC5/cyfitter_cfg.c **** *  settings.  This includes settings from the Design Wide Resources (DWR) such
 388:.\Generated_Source\PSoC5/cyfitter_cfg.c **** *  as Clocks and Pins as well as any component configuration that is necessary.
 389:.\Generated_Source\PSoC5/cyfitter_cfg.c **** *
 390:.\Generated_Source\PSoC5/cyfitter_cfg.c **** * Parameters:  
 391:.\Generated_Source\PSoC5/cyfitter_cfg.c **** *   void
 392:.\Generated_Source\PSoC5/cyfitter_cfg.c **** *
 393:.\Generated_Source\PSoC5/cyfitter_cfg.c **** * Return:
 394:.\Generated_Source\PSoC5/cyfitter_cfg.c **** *   void
 395:.\Generated_Source\PSoC5/cyfitter_cfg.c **** *
 396:.\Generated_Source\PSoC5/cyfitter_cfg.c **** *******************************************************************************/
 397:.\Generated_Source\PSoC5/cyfitter_cfg.c **** 
 398:.\Generated_Source\PSoC5/cyfitter_cfg.c **** void cyfitter_cfg(void)
 399:.\Generated_Source\PSoC5/cyfitter_cfg.c **** {
 698              		.loc 1 399 0
 699              		.cfi_startproc
 700              		@ args = 0, pretend = 0, frame = 8
 701              		@ frame_needed = 1, uses_anonymous_args = 0
 702 0000 80B5     		push	{r7, lr}
 703              		.cfi_def_cfa_offset 8
 704              		.cfi_offset 7, -8
 705              		.cfi_offset 14, -4
 706 0002 82B0     		sub	sp, sp, #8
 707              		.cfi_def_cfa_offset 16
 708 0004 00AF     		add	r7, sp, #0
 709              		.cfi_def_cfa_register 7
 400:.\Generated_Source\PSoC5/cyfitter_cfg.c **** #ifdef CYGlobalIntDisable
 401:.\Generated_Source\PSoC5/cyfitter_cfg.c **** 	/* Disable interrupts by default. Let user enable if/when they want. */
 402:.\Generated_Source\PSoC5/cyfitter_cfg.c **** 	CYGlobalIntDisable
 710              		.loc 1 402 0
 711              	@ 402 ".\Generated_Source\PSoC5\cyfitter_cfg.c" 1
 712 0006 72B6     		CPSID   i
 713              	@ 0 "" 2
 714              		.thumb
 715              	.LBB3:
 403:.\Generated_Source\PSoC5/cyfitter_cfg.c **** #endif
 404:.\Generated_Source\PSoC5/cyfitter_cfg.c **** 
 405:.\Generated_Source\PSoC5/cyfitter_cfg.c **** 	{
 406:.\Generated_Source\PSoC5/cyfitter_cfg.c **** 
 407:.\Generated_Source\PSoC5/cyfitter_cfg.c **** 		CYPACKED typedef struct {
 408:.\Generated_Source\PSoC5/cyfitter_cfg.c **** 			void CYFAR *address;
 409:.\Generated_Source\PSoC5/cyfitter_cfg.c **** 			uint16 size;
 410:.\Generated_Source\PSoC5/cyfitter_cfg.c **** 		} CYPACKED_ATTR cfg_memset_t;
 411:.\Generated_Source\PSoC5/cyfitter_cfg.c **** 
 412:.\Generated_Source\PSoC5/cyfitter_cfg.c **** 		static const cfg_memset_t CYCODE cfg_memset_list [] = {
 413:.\Generated_Source\PSoC5/cyfitter_cfg.c **** 			/* address, size */
 414:.\Generated_Source\PSoC5/cyfitter_cfg.c **** 			{(void CYFAR *)(CYREG_PRT2_DR), 16u},
 415:.\Generated_Source\PSoC5/cyfitter_cfg.c **** 			{(void CYFAR *)(CYREG_PRT5_DR), 16u},
 416:.\Generated_Source\PSoC5/cyfitter_cfg.c **** 			{(void CYFAR *)(CYDEV_UCFG_B0_P0_U0_BASE), 4096u},
 417:.\Generated_Source\PSoC5/cyfitter_cfg.c **** 			{(void CYFAR *)(CYDEV_UCFG_B1_P2_U0_BASE), 2048u},
 418:.\Generated_Source\PSoC5/cyfitter_cfg.c **** 			{(void CYFAR *)(CYDEV_UCFG_DSI0_BASE), 2560u},
 419:.\Generated_Source\PSoC5/cyfitter_cfg.c **** 			{(void CYFAR *)(CYDEV_UCFG_DSI12_BASE), 512u},
ARM GAS  C:\Users\Lois\AppData\Local\Temp\ccmucEQ9.s 			page 21


 420:.\Generated_Source\PSoC5/cyfitter_cfg.c **** 			{(void CYFAR *)(CYREG_BCTL0_MDCLK_EN), 32u},
 421:.\Generated_Source\PSoC5/cyfitter_cfg.c **** 		};
 422:.\Generated_Source\PSoC5/cyfitter_cfg.c **** 
 423:.\Generated_Source\PSoC5/cyfitter_cfg.c **** 		uint8 CYDATA i;
 424:.\Generated_Source\PSoC5/cyfitter_cfg.c **** 
 425:.\Generated_Source\PSoC5/cyfitter_cfg.c **** 		/* Zero out critical memory blocks before beginning configuration */
 426:.\Generated_Source\PSoC5/cyfitter_cfg.c **** 		for (i = 0u; i < (sizeof(cfg_memset_list)/sizeof(cfg_memset_list[0])); i++)
 716              		.loc 1 426 0
 717 0008 0023     		movs	r3, #0
 718 000a FB71     		strb	r3, [r7, #7]
 719 000c 13E0     		b	.L32
 720              	.L33:
 721              	.LBB4:
 427:.\Generated_Source\PSoC5/cyfitter_cfg.c **** 		{
 428:.\Generated_Source\PSoC5/cyfitter_cfg.c **** 			const cfg_memset_t CYCODE * CYDATA ms = &cfg_memset_list[i];
 722              		.loc 1 428 0 discriminator 3
 723 000e FA79     		ldrb	r2, [r7, #7]	@ zero_extendqisi2
 724 0010 1346     		mov	r3, r2
 725 0012 5B00     		lsls	r3, r3, #1
 726 0014 1344     		add	r3, r3, r2
 727 0016 5B00     		lsls	r3, r3, #1
 728 0018 3B4A     		ldr	r2, .L34
 729 001a 1344     		add	r3, r3, r2
 730 001c 3B60     		str	r3, [r7]
 429:.\Generated_Source\PSoC5/cyfitter_cfg.c **** 			CYMEMZERO(ms->address, (size_t)(uint32)(ms->size));
 731              		.loc 1 429 0 discriminator 3
 732 001e 3B68     		ldr	r3, [r7]
 733 0020 1A68     		ldr	r2, [r3]	@ unaligned
 734 0022 3B68     		ldr	r3, [r7]
 735 0024 9B88     		ldrh	r3, [r3, #4]	@ unaligned
 736 0026 9BB2     		uxth	r3, r3
 737 0028 1046     		mov	r0, r2
 738 002a 1946     		mov	r1, r3
 739 002c FFF7FEFF 		bl	CYMEMZERO
 740              	.LBE4:
 426:.\Generated_Source\PSoC5/cyfitter_cfg.c **** 		{
 741              		.loc 1 426 0 discriminator 3
 742 0030 FB79     		ldrb	r3, [r7, #7]	@ zero_extendqisi2
 743 0032 0133     		adds	r3, r3, #1
 744 0034 FB71     		strb	r3, [r7, #7]
 745              	.L32:
 426:.\Generated_Source\PSoC5/cyfitter_cfg.c **** 		{
 746              		.loc 1 426 0 is_stmt 0 discriminator 1
 747 0036 FB79     		ldrb	r3, [r7, #7]	@ zero_extendqisi2
 748 0038 062B     		cmp	r3, #6
 749 003a E8D9     		bls	.L33
 430:.\Generated_Source\PSoC5/cyfitter_cfg.c **** 		}
 431:.\Generated_Source\PSoC5/cyfitter_cfg.c **** 
 432:.\Generated_Source\PSoC5/cyfitter_cfg.c **** 		cfg_write_bytes32(cy_cfg_addr_table, cy_cfg_data_table);
 750              		.loc 1 432 0 is_stmt 1
 751 003c 4FF09040 		mov	r0, #1207959552
 752 0040 3249     		ldr	r1, .L34+4
 753 0042 FFF7FEFF 		bl	cfg_write_bytes32
 433:.\Generated_Source\PSoC5/cyfitter_cfg.c **** 
 434:.\Generated_Source\PSoC5/cyfitter_cfg.c **** 		/* Perform normal device configuration. Order is not critical for these items. */
 435:.\Generated_Source\PSoC5/cyfitter_cfg.c **** 		CY_SET_XTND_REG8((void CYFAR *)(CYREG_DSM0_CR3), 0x0Au);
 754              		.loc 1 435 0
ARM GAS  C:\Users\Lois\AppData\Local\Temp\ccmucEQ9.s 			page 22


 755 0046 324B     		ldr	r3, .L34+8
 756 0048 0A22     		movs	r2, #10
 757 004a 1A70     		strb	r2, [r3]
 436:.\Generated_Source\PSoC5/cyfitter_cfg.c **** 
 437:.\Generated_Source\PSoC5/cyfitter_cfg.c **** 		/* Enable digital routing */
 438:.\Generated_Source\PSoC5/cyfitter_cfg.c **** 		CY_SET_XTND_REG8((void CYFAR *)CYREG_BCTL0_BANK_CTL, CY_GET_XTND_REG8((void CYFAR *)CYREG_BCTL0_B
 758              		.loc 1 438 0
 759 004c 314A     		ldr	r2, .L34+12
 760 004e 314B     		ldr	r3, .L34+12
 761 0050 1B78     		ldrb	r3, [r3]
 762 0052 DBB2     		uxtb	r3, r3
 763 0054 43F00203 		orr	r3, r3, #2
 764 0058 DBB2     		uxtb	r3, r3
 765 005a 1370     		strb	r3, [r2]
 439:.\Generated_Source\PSoC5/cyfitter_cfg.c **** 		CY_SET_XTND_REG8((void CYFAR *)CYREG_BCTL1_BANK_CTL, CY_GET_XTND_REG8((void CYFAR *)CYREG_BCTL1_B
 766              		.loc 1 439 0
 767 005c 2E4A     		ldr	r2, .L34+16
 768 005e 2E4B     		ldr	r3, .L34+16
 769 0060 1B78     		ldrb	r3, [r3]
 770 0062 DBB2     		uxtb	r3, r3
 771 0064 43F00203 		orr	r3, r3, #2
 772 0068 DBB2     		uxtb	r3, r3
 773 006a 1370     		strb	r3, [r2]
 440:.\Generated_Source\PSoC5/cyfitter_cfg.c **** 
 441:.\Generated_Source\PSoC5/cyfitter_cfg.c **** 		/* Enable UDB array */
 442:.\Generated_Source\PSoC5/cyfitter_cfg.c **** 		CY_SET_XTND_REG8((void CYFAR *)CYREG_PM_ACT_CFG0, CY_GET_XTND_REG8((void CYFAR *)CYREG_PM_ACT_CFG
 774              		.loc 1 442 0
 775 006c 2B4A     		ldr	r2, .L34+20
 776 006e 2B4B     		ldr	r3, .L34+20
 777 0070 1B78     		ldrb	r3, [r3]
 778 0072 DBB2     		uxtb	r3, r3
 779 0074 43F04003 		orr	r3, r3, #64
 780 0078 DBB2     		uxtb	r3, r3
 781 007a 1370     		strb	r3, [r2]
 443:.\Generated_Source\PSoC5/cyfitter_cfg.c **** 		CY_SET_XTND_REG8((void CYFAR *)CYREG_PM_AVAIL_CR2, CY_GET_XTND_REG8((void CYFAR *)CYREG_PM_AVAIL_
 782              		.loc 1 443 0
 783 007c 284A     		ldr	r2, .L34+24
 784 007e 284B     		ldr	r3, .L34+24
 785 0080 1B78     		ldrb	r3, [r3]
 786 0082 DBB2     		uxtb	r3, r3
 787 0084 43F01003 		orr	r3, r3, #16
 788 0088 DBB2     		uxtb	r3, r3
 789 008a 1370     		strb	r3, [r2]
 790              	.LBE3:
 444:.\Generated_Source\PSoC5/cyfitter_cfg.c **** 	}
 445:.\Generated_Source\PSoC5/cyfitter_cfg.c **** 
 446:.\Generated_Source\PSoC5/cyfitter_cfg.c **** 
 447:.\Generated_Source\PSoC5/cyfitter_cfg.c **** 	/* Perform second pass device configuration. These items must be configured in specific order afte
 448:.\Generated_Source\PSoC5/cyfitter_cfg.c **** 	CYCONFIGCPY((void CYFAR *)(CYREG_PRT0_DM0), (const void CYFAR *)(BS_IOPINS0_0_VAL), 8u);
 791              		.loc 1 448 0
 792 008c 2548     		ldr	r0, .L34+28
 793 008e 2649     		ldr	r1, .L34+32
 794 0090 0822     		movs	r2, #8
 795 0092 FFF7FEFF 		bl	CYCONFIGCPY
 449:.\Generated_Source\PSoC5/cyfitter_cfg.c **** 	CYCONFIGCPY((void CYFAR *)(CYREG_PRT12_DM0), (const void CYFAR *)(BS_IOPINS0_7_VAL), 8u);
 796              		.loc 1 449 0
 797 0096 2548     		ldr	r0, .L34+36
ARM GAS  C:\Users\Lois\AppData\Local\Temp\ccmucEQ9.s 			page 23


 798 0098 2549     		ldr	r1, .L34+40
 799 009a 0822     		movs	r2, #8
 800 009c FFF7FEFF 		bl	CYCONFIGCPY
 450:.\Generated_Source\PSoC5/cyfitter_cfg.c **** 	CYCONFIGCPY((void CYFAR *)(CYREG_PRT15_DR), (const void CYFAR *)(BS_IOPINS0_8_VAL), 10u);
 801              		.loc 1 450 0
 802 00a0 2448     		ldr	r0, .L34+44
 803 00a2 2549     		ldr	r1, .L34+48
 804 00a4 0A22     		movs	r2, #10
 805 00a6 FFF7FEFF 		bl	CYCONFIGCPY
 451:.\Generated_Source\PSoC5/cyfitter_cfg.c **** 	CYCONFIGCPY((void CYFAR *)(CYREG_PRT1_DR), (const void CYFAR *)(BS_IOPINS0_1_VAL), 10u);
 806              		.loc 1 451 0
 807 00aa 2448     		ldr	r0, .L34+52
 808 00ac 2449     		ldr	r1, .L34+56
 809 00ae 0A22     		movs	r2, #10
 810 00b0 FFF7FEFF 		bl	CYCONFIGCPY
 452:.\Generated_Source\PSoC5/cyfitter_cfg.c **** 	CYCONFIGCPY((void CYFAR *)(CYREG_PRT3_DM0), (const void CYFAR *)(BS_IOPINS0_3_VAL), 8u);
 811              		.loc 1 452 0
 812 00b4 2348     		ldr	r0, .L34+60
 813 00b6 2449     		ldr	r1, .L34+64
 814 00b8 0822     		movs	r2, #8
 815 00ba FFF7FEFF 		bl	CYCONFIGCPY
 453:.\Generated_Source\PSoC5/cyfitter_cfg.c **** 	CYCONFIGCPY((void CYFAR *)(CYREG_PRT4_DM0), (const void CYFAR *)(BS_IOPINS0_4_VAL), 8u);
 816              		.loc 1 453 0
 817 00be 2348     		ldr	r0, .L34+68
 818 00c0 2349     		ldr	r1, .L34+72
 819 00c2 0822     		movs	r2, #8
 820 00c4 FFF7FEFF 		bl	CYCONFIGCPY
 454:.\Generated_Source\PSoC5/cyfitter_cfg.c **** 	CYCONFIGCPY((void CYFAR *)(CYREG_PRT6_DM0), (const void CYFAR *)(BS_IOPINS0_6_VAL), 8u);
 821              		.loc 1 454 0
 822 00c8 2248     		ldr	r0, .L34+76
 823 00ca 2349     		ldr	r1, .L34+80
 824 00cc 0822     		movs	r2, #8
 825 00ce FFF7FEFF 		bl	CYCONFIGCPY
 455:.\Generated_Source\PSoC5/cyfitter_cfg.c **** 	/* Switch Boost to the precision bandgap reference from its internal reference */
 456:.\Generated_Source\PSoC5/cyfitter_cfg.c **** 	CY_SET_REG8((void CYXDATA *)CYREG_BOOST_CR2, (CY_GET_REG8((void CYXDATA *)CYREG_BOOST_CR2) | 0x08u
 826              		.loc 1 456 0
 827 00d2 224A     		ldr	r2, .L34+84
 828 00d4 214B     		ldr	r3, .L34+84
 829 00d6 1B78     		ldrb	r3, [r3]
 830 00d8 DBB2     		uxtb	r3, r3
 831 00da 43F00803 		orr	r3, r3, #8
 832 00de DBB2     		uxtb	r3, r3
 833 00e0 1370     		strb	r3, [r2]
 457:.\Generated_Source\PSoC5/cyfitter_cfg.c **** 
 458:.\Generated_Source\PSoC5/cyfitter_cfg.c **** 	/* Set Flash Cycles based on max possible frequency in case a glitch occurs during ClockSetup(). *
 459:.\Generated_Source\PSoC5/cyfitter_cfg.c **** 	CY_SET_XTND_REG8((void CYFAR *)(CYREG_CACHE_CC_CTL), (((CYDEV_INSTRUCT_CACHE_ENABLED) != 0) ? 0x01
 834              		.loc 1 459 0
 835 00e2 1F4B     		ldr	r3, .L34+88
 836 00e4 0122     		movs	r2, #1
 837 00e6 1A70     		strb	r2, [r3]
 460:.\Generated_Source\PSoC5/cyfitter_cfg.c **** 	/* Setup clocks based on selections from Clock DWR */
 461:.\Generated_Source\PSoC5/cyfitter_cfg.c **** 	ClockSetup();
 838              		.loc 1 461 0
 839 00e8 FFF7FEFF 		bl	ClockSetup
 462:.\Generated_Source\PSoC5/cyfitter_cfg.c **** 	/* Set Flash Cycles based on newly configured 24.00MHz Bus Clock. */
 463:.\Generated_Source\PSoC5/cyfitter_cfg.c **** 	CY_SET_XTND_REG8((void CYFAR *)(CYREG_CACHE_CC_CTL), (((CYDEV_INSTRUCT_CACHE_ENABLED) != 0) ? 0x81
 840              		.loc 1 463 0
ARM GAS  C:\Users\Lois\AppData\Local\Temp\ccmucEQ9.s 			page 24


 841 00ec 1C4B     		ldr	r3, .L34+88
 842 00ee 8122     		movs	r2, #129
 843 00f0 1A70     		strb	r2, [r3]
 464:.\Generated_Source\PSoC5/cyfitter_cfg.c **** 
 465:.\Generated_Source\PSoC5/cyfitter_cfg.c **** 	/* Perform basic analog initialization to defaults */
 466:.\Generated_Source\PSoC5/cyfitter_cfg.c **** 	AnalogSetDefault();
 844              		.loc 1 466 0
 845 00f2 FFF7FEFF 		bl	AnalogSetDefault
 467:.\Generated_Source\PSoC5/cyfitter_cfg.c **** 
 468:.\Generated_Source\PSoC5/cyfitter_cfg.c **** 	/* Configure alternate active mode */
 469:.\Generated_Source\PSoC5/cyfitter_cfg.c **** 	CYCONFIGCPY((void CYFAR *)CYDEV_PM_STBY_BASE, (const void CYFAR *)CYDEV_PM_ACT_BASE, 14u);
 846              		.loc 1 469 0
 847 00f6 1B48     		ldr	r0, .L34+92
 848 00f8 0849     		ldr	r1, .L34+20
 849 00fa 0E22     		movs	r2, #14
 850 00fc FFF7FEFF 		bl	CYCONFIGCPY
 470:.\Generated_Source\PSoC5/cyfitter_cfg.c **** }
 851              		.loc 1 470 0
 852 0100 0837     		adds	r7, r7, #8
 853              		.cfi_def_cfa_offset 8
 854 0102 BD46     		mov	sp, r7
 855              		.cfi_def_cfa_register 13
 856              		@ sp needed
 857 0104 80BD     		pop	{r7, pc}
 858              	.L35:
 859 0106 00BF     		.align	2
 860              	.L34:
 861 0108 0C000000 		.word	cfg_memset_list.4884
 862 010c 8C000048 		.word	1207959692
 863 0110 83580040 		.word	1073764483
 864 0114 03500140 		.word	1073827843
 865 0118 13500140 		.word	1073827859
 866 011c A0430040 		.word	1073759136
 867 0120 C2430040 		.word	1073759170
 868 0124 02510040 		.word	1073762562
 869 0128 AC060048 		.word	1207961260
 870 012c C2510040 		.word	1073762754
 871 0130 B4060048 		.word	1207961268
 872 0134 F0510040 		.word	1073762800
 873 0138 BC060048 		.word	1207961276
 874 013c 10510040 		.word	1073762576
 875 0140 C8060048 		.word	1207961288
 876 0144 32510040 		.word	1073762610
 877 0148 D4060048 		.word	1207961300
 878 014c 42510040 		.word	1073762626
 879 0150 DC060048 		.word	1207961308
 880 0154 62510040 		.word	1073762658
 881 0158 E4060048 		.word	1207961316
 882 015c 22430040 		.word	1073759010
 883 0160 00480040 		.word	1073760256
 884 0164 B0430040 		.word	1073759152
 885              		.cfi_endproc
 886              	.LFE9:
 887              		.size	cyfitter_cfg, .-cyfitter_cfg
 888              		.section	.rodata
 889 000a 0000     		.align	2
 890              		.type	cfg_memset_list.4884, %object
ARM GAS  C:\Users\Lois\AppData\Local\Temp\ccmucEQ9.s 			page 25


 891              		.size	cfg_memset_list.4884, 42
 892              	cfg_memset_list.4884:
 893 000c 20510040 		.word	1073762592
 894 0010 1000     		.short	16
 895 0012 50510040 		.4byte	1073762640
 896 0016 1000     		.short	16
 897 0018 00000140 		.word	1073807360
 898 001c 0010     		.short	4096
 899 001e 00140140 		.4byte	1073812480
 900 0022 0008     		.short	2048
 901 0024 00400140 		.word	1073823744
 902 0028 000A     		.short	2560
 903 002a 004C0140 		.4byte	1073826816
 904 002e 0002     		.short	512
 905 0030 00500140 		.word	1073827840
 906 0034 2000     		.short	32
 907 0036 0000     		.text
 908              	.Letext0:
 909              		.file 2 "c:\\program files (x86)\\cypress\\psoc creator\\3.3\\psoc creator\\import\\gnu\\arm\\4.9.
 910              		.file 3 ".\\Generated_Source\\PSoC5\\cytypes.h"