ARM GAS  C:\Users\Lois\AppData\Local\Temp\ccKtkImJ.s 			page 1


   1              		.syntax unified
   2              		.cpu cortex-m3
   3              		.fpu softvfp
   4              		.eabi_attribute 20, 1
   5              		.eabi_attribute 21, 1
   6              		.eabi_attribute 23, 3
   7              		.eabi_attribute 24, 1
   8              		.eabi_attribute 25, 1
   9              		.eabi_attribute 26, 1
  10              		.eabi_attribute 30, 6
  11              		.eabi_attribute 34, 1
  12              		.eabi_attribute 18, 4
  13              		.thumb
  14              		.file	"memory.c"
  15              		.text
  16              	.Ltext0:
  17              		.cfi_sections	.debug_frame
  18              		.section	.text.init_eeprom,"ax",%progbits
  19              		.align	2
  20              		.global	init_eeprom
  21              		.thumb
  22              		.thumb_func
  23              		.type	init_eeprom, %function
  24              	init_eeprom:
  25              	.LFB56:
  26              		.file 1 ".\\memory.c"
   1:.\memory.c    **** /* ========================================
   2:.\memory.c    ****  *
   3:.\memory.c    ****  * Copyright YOUR COMPANY, THE YEAR
   4:.\memory.c    ****  * All Rights Reserved
   5:.\memory.c    ****  * UNPUBLISHED, LICENSED SOFTWARE.
   6:.\memory.c    ****  *
   7:.\memory.c    ****  * CONFIDENTIAL AND PROPRIETARY INFORMATION
   8:.\memory.c    ****  * WHICH IS THE PROPERTY OF your company.
   9:.\memory.c    ****  *
  10:.\memory.c    ****  * ========================================
  11:.\memory.c    **** */
  12:.\memory.c    **** #include "memory.h"
  13:.\memory.c    **** 
  14:.\memory.c    **** 
  15:.\memory.c    **** void saveUINT16(uint8 startAddress, uint16 value);
  16:.\memory.c    **** uint16 loadUINT16(uint8 startAdress);
  17:.\memory.c    **** 
  18:.\memory.c    **** void saveFLOAT(uint8 startAdress, float value);
  19:.\memory.c    **** float loadFLOAT(uint8 startAdress);
  20:.\memory.c    **** 
  21:.\memory.c    **** void saveINT(uint8 startAdress, int value);
  22:.\memory.c    **** int loadINT(uint8 startAdress);
  23:.\memory.c    **** 
  24:.\memory.c    **** 
  25:.\memory.c    **** void init_eeprom()
  26:.\memory.c    **** {
  27              		.loc 1 26 0
  28              		.cfi_startproc
  29              		@ args = 0, pretend = 0, frame = 0
  30              		@ frame_needed = 1, uses_anonymous_args = 0
  31 0000 80B5     		push	{r7, lr}
ARM GAS  C:\Users\Lois\AppData\Local\Temp\ccKtkImJ.s 			page 2


  32              		.cfi_def_cfa_offset 8
  33              		.cfi_offset 7, -8
  34              		.cfi_offset 14, -4
  35 0002 00AF     		add	r7, sp, #0
  36              		.cfi_def_cfa_register 7
  27:.\memory.c    ****     EEPROM_Start();
  37              		.loc 1 27 0
  38 0004 FFF7FEFF 		bl	EEPROM_Start
  28:.\memory.c    ****     CyDelayUs(5); // the EEPROM needs 5 μS to start
  39              		.loc 1 28 0
  40 0008 0520     		movs	r0, #5
  41 000a FFF7FEFF 		bl	CyDelayUs
  29:.\memory.c    ****     
  30:.\memory.c    ****     /*
  31:.\memory.c    ****     It is necessary to acquire the die temperature by calling the EEPROM_UpdateTemperature() 
  32:.\memory.c    ****     function before a series of EEPROM write operations. The EEPROM_UpdateTemperature() 
  33:.\memory.c    ****     function queries SPC for the die temperature and stores it in a global variable, 
  34:.\memory.c    ****     which is used while performing EEPROM write operations. If the application is used 
  35:.\memory.c    ****     in an environment where the die temperature changes 10° C or more, the temperature 
  36:.\memory.c    ****     should be refreshed to adjust the write times for the optimal performance.
  37:.\memory.c    ****     */
  38:.\memory.c    ****     EEPROM_UpdateTemperature();
  42              		.loc 1 38 0
  43 000e FFF7FEFF 		bl	EEPROM_UpdateTemperature
  39:.\memory.c    **** }
  44              		.loc 1 39 0
  45 0012 80BD     		pop	{r7, pc}
  46              		.cfi_endproc
  47              	.LFE56:
  48              		.size	init_eeprom, .-init_eeprom
  49              		.section	.text.savePIDToEEPROM,"ax",%progbits
  50              		.align	2
  51              		.global	savePIDToEEPROM
  52              		.thumb
  53              		.thumb_func
  54              		.type	savePIDToEEPROM, %function
  55              	savePIDToEEPROM:
  56              	.LFB57:
  40:.\memory.c    **** 
  41:.\memory.c    **** 
  42:.\memory.c    **** 
  43:.\memory.c    **** void savePIDToEEPROM(uint8 module, float kp, float ki, float kd)
  44:.\memory.c    **** {
  57              		.loc 1 44 0
  58              		.cfi_startproc
  59              		@ args = 0, pretend = 0, frame = 24
  60              		@ frame_needed = 1, uses_anonymous_args = 0
  61 0000 80B5     		push	{r7, lr}
  62              		.cfi_def_cfa_offset 8
  63              		.cfi_offset 7, -8
  64              		.cfi_offset 14, -4
  65 0002 86B0     		sub	sp, sp, #24
  66              		.cfi_def_cfa_offset 32
  67 0004 00AF     		add	r7, sp, #0
  68              		.cfi_def_cfa_register 7
  69 0006 B960     		str	r1, [r7, #8]	@ float
  70 0008 7A60     		str	r2, [r7, #4]	@ float
ARM GAS  C:\Users\Lois\AppData\Local\Temp\ccKtkImJ.s 			page 3


  71 000a 3B60     		str	r3, [r7]	@ float
  72 000c 0346     		mov	r3, r0
  73 000e FB73     		strb	r3, [r7, #15]
  45:.\memory.c    ****     uint8 startAdress;
  46:.\memory.c    **** 
  47:.\memory.c    ****     if(module == 0)
  74              		.loc 1 47 0
  75 0010 FB7B     		ldrb	r3, [r7, #15]	@ zero_extendqisi2
  76 0012 002B     		cmp	r3, #0
  77 0014 02D1     		bne	.L3
  48:.\memory.c    ****         startAdress = EEPROM_MODULE0_ADRESS_KP;
  78              		.loc 1 48 0
  79 0016 0023     		movs	r3, #0
  80 0018 FB75     		strb	r3, [r7, #23]
  81 001a 01E0     		b	.L4
  82              	.L3:
  49:.\memory.c    ****     else
  50:.\memory.c    ****         startAdress = EEPROM_MODULE1_ADRESS_KP;
  83              		.loc 1 50 0
  84 001c 1623     		movs	r3, #22
  85 001e FB75     		strb	r3, [r7, #23]
  86              	.L4:
  51:.\memory.c    ****     
  52:.\memory.c    ****     saveFLOAT(startAdress, kp);
  87              		.loc 1 52 0
  88 0020 FB7D     		ldrb	r3, [r7, #23]	@ zero_extendqisi2
  89 0022 1846     		mov	r0, r3
  90 0024 B968     		ldr	r1, [r7, #8]	@ float
  91 0026 FFF7FEFF 		bl	saveFLOAT
  53:.\memory.c    ****     saveFLOAT(startAdress+4, ki);
  92              		.loc 1 53 0
  93 002a FB7D     		ldrb	r3, [r7, #23]
  94 002c 0433     		adds	r3, r3, #4
  95 002e DBB2     		uxtb	r3, r3
  96 0030 1846     		mov	r0, r3
  97 0032 7968     		ldr	r1, [r7, #4]	@ float
  98 0034 FFF7FEFF 		bl	saveFLOAT
  54:.\memory.c    ****     saveFLOAT(startAdress+8, kd);
  99              		.loc 1 54 0
 100 0038 FB7D     		ldrb	r3, [r7, #23]
 101 003a 0833     		adds	r3, r3, #8
 102 003c DBB2     		uxtb	r3, r3
 103 003e 1846     		mov	r0, r3
 104 0040 3968     		ldr	r1, [r7]	@ float
 105 0042 FFF7FEFF 		bl	saveFLOAT
  55:.\memory.c    **** }
 106              		.loc 1 55 0
 107 0046 1837     		adds	r7, r7, #24
 108              		.cfi_def_cfa_offset 8
 109 0048 BD46     		mov	sp, r7
 110              		.cfi_def_cfa_register 13
 111              		@ sp needed
 112 004a 80BD     		pop	{r7, pc}
 113              		.cfi_endproc
 114              	.LFE57:
 115              		.size	savePIDToEEPROM, .-savePIDToEEPROM
 116              		.section	.text.loadPIDFromEEPROM,"ax",%progbits
ARM GAS  C:\Users\Lois\AppData\Local\Temp\ccKtkImJ.s 			page 4


 117              		.align	2
 118              		.global	loadPIDFromEEPROM
 119              		.thumb
 120              		.thumb_func
 121              		.type	loadPIDFromEEPROM, %function
 122              	loadPIDFromEEPROM:
 123              	.LFB58:
  56:.\memory.c    **** 
  57:.\memory.c    **** void loadPIDFromEEPROM(uint8 module, float *kp, float *ki, float *kd)
  58:.\memory.c    **** {
 124              		.loc 1 58 0
 125              		.cfi_startproc
 126              		@ args = 0, pretend = 0, frame = 24
 127              		@ frame_needed = 1, uses_anonymous_args = 0
 128 0000 80B5     		push	{r7, lr}
 129              		.cfi_def_cfa_offset 8
 130              		.cfi_offset 7, -8
 131              		.cfi_offset 14, -4
 132 0002 86B0     		sub	sp, sp, #24
 133              		.cfi_def_cfa_offset 32
 134 0004 00AF     		add	r7, sp, #0
 135              		.cfi_def_cfa_register 7
 136 0006 B960     		str	r1, [r7, #8]
 137 0008 7A60     		str	r2, [r7, #4]
 138 000a 3B60     		str	r3, [r7]
 139 000c 0346     		mov	r3, r0
 140 000e FB73     		strb	r3, [r7, #15]
  59:.\memory.c    ****     uint8 startAdress;
  60:.\memory.c    **** 
  61:.\memory.c    ****     if(module == 0)
 141              		.loc 1 61 0
 142 0010 FB7B     		ldrb	r3, [r7, #15]	@ zero_extendqisi2
 143 0012 002B     		cmp	r3, #0
 144 0014 02D1     		bne	.L6
  62:.\memory.c    ****         startAdress = EEPROM_MODULE0_ADRESS_KP;
 145              		.loc 1 62 0
 146 0016 0023     		movs	r3, #0
 147 0018 FB75     		strb	r3, [r7, #23]
 148 001a 01E0     		b	.L7
 149              	.L6:
  63:.\memory.c    ****     else
  64:.\memory.c    ****         startAdress = EEPROM_MODULE1_ADRESS_KP;
 150              		.loc 1 64 0
 151 001c 1623     		movs	r3, #22
 152 001e FB75     		strb	r3, [r7, #23]
 153              	.L7:
  65:.\memory.c    ****     
  66:.\memory.c    ****     *kp = loadFLOAT(startAdress);
 154              		.loc 1 66 0
 155 0020 FB7D     		ldrb	r3, [r7, #23]	@ zero_extendqisi2
 156 0022 1846     		mov	r0, r3
 157 0024 FFF7FEFF 		bl	loadFLOAT
 158 0028 0246     		mov	r2, r0
 159 002a BB68     		ldr	r3, [r7, #8]
 160 002c 1A60     		str	r2, [r3]	@ float
  67:.\memory.c    ****     *ki = loadFLOAT(startAdress+4);
 161              		.loc 1 67 0
ARM GAS  C:\Users\Lois\AppData\Local\Temp\ccKtkImJ.s 			page 5


 162 002e FB7D     		ldrb	r3, [r7, #23]
 163 0030 0433     		adds	r3, r3, #4
 164 0032 DBB2     		uxtb	r3, r3
 165 0034 1846     		mov	r0, r3
 166 0036 FFF7FEFF 		bl	loadFLOAT
 167 003a 0246     		mov	r2, r0
 168 003c 7B68     		ldr	r3, [r7, #4]
 169 003e 1A60     		str	r2, [r3]	@ float
  68:.\memory.c    ****     *kd = loadFLOAT(startAdress+8);
 170              		.loc 1 68 0
 171 0040 FB7D     		ldrb	r3, [r7, #23]
 172 0042 0833     		adds	r3, r3, #8
 173 0044 DBB2     		uxtb	r3, r3
 174 0046 1846     		mov	r0, r3
 175 0048 FFF7FEFF 		bl	loadFLOAT
 176 004c 0246     		mov	r2, r0
 177 004e 3B68     		ldr	r3, [r7]
 178 0050 1A60     		str	r2, [r3]	@ float
  69:.\memory.c    **** }
 179              		.loc 1 69 0
 180 0052 1837     		adds	r7, r7, #24
 181              		.cfi_def_cfa_offset 8
 182 0054 BD46     		mov	sp, r7
 183              		.cfi_def_cfa_register 13
 184              		@ sp needed
 185 0056 80BD     		pop	{r7, pc}
 186              		.cfi_endproc
 187              	.LFE58:
 188              		.size	loadPIDFromEEPROM, .-loadPIDFromEEPROM
 189              		.section	.text.saveTemperatureLimitHighToEEPROM,"ax",%progbits
 190              		.align	2
 191              		.global	saveTemperatureLimitHighToEEPROM
 192              		.thumb
 193              		.thumb_func
 194              		.type	saveTemperatureLimitHighToEEPROM, %function
 195              	saveTemperatureLimitHighToEEPROM:
 196              	.LFB59:
  70:.\memory.c    **** 
  71:.\memory.c    **** 
  72:.\memory.c    **** void saveTemperatureLimitHighToEEPROM(uint8 module,uint16 limit)
  73:.\memory.c    **** {
 197              		.loc 1 73 0
 198              		.cfi_startproc
 199              		@ args = 0, pretend = 0, frame = 8
 200              		@ frame_needed = 1, uses_anonymous_args = 0
 201 0000 80B5     		push	{r7, lr}
 202              		.cfi_def_cfa_offset 8
 203              		.cfi_offset 7, -8
 204              		.cfi_offset 14, -4
 205 0002 82B0     		sub	sp, sp, #8
 206              		.cfi_def_cfa_offset 16
 207 0004 00AF     		add	r7, sp, #0
 208              		.cfi_def_cfa_register 7
 209 0006 0346     		mov	r3, r0
 210 0008 0A46     		mov	r2, r1
 211 000a FB71     		strb	r3, [r7, #7]
 212 000c 1346     		mov	r3, r2	@ movhi
ARM GAS  C:\Users\Lois\AppData\Local\Temp\ccKtkImJ.s 			page 6


 213 000e BB80     		strh	r3, [r7, #4]	@ movhi
  74:.\memory.c    ****     if(module == 0)
 214              		.loc 1 74 0
 215 0010 FB79     		ldrb	r3, [r7, #7]	@ zero_extendqisi2
 216 0012 002B     		cmp	r3, #0
 217 0014 05D1     		bne	.L9
  75:.\memory.c    ****         saveUINT16(EEPROM_MODULE0_ADRESS_TEMPERATURE_LIMIT_HIGH, limit);
 218              		.loc 1 75 0
 219 0016 BB88     		ldrh	r3, [r7, #4]
 220 0018 0E20     		movs	r0, #14
 221 001a 1946     		mov	r1, r3
 222 001c FFF7FEFF 		bl	saveUINT16
 223 0020 04E0     		b	.L8
 224              	.L9:
  76:.\memory.c    ****     else
  77:.\memory.c    ****         saveUINT16(EEPROM_MODULE1_ADRESS_TEMPERATURE_LIMIT_HIGH, limit);
 225              		.loc 1 77 0
 226 0022 BB88     		ldrh	r3, [r7, #4]
 227 0024 2420     		movs	r0, #36
 228 0026 1946     		mov	r1, r3
 229 0028 FFF7FEFF 		bl	saveUINT16
 230              	.L8:
  78:.\memory.c    **** }
 231              		.loc 1 78 0
 232 002c 0837     		adds	r7, r7, #8
 233              		.cfi_def_cfa_offset 8
 234 002e BD46     		mov	sp, r7
 235              		.cfi_def_cfa_register 13
 236              		@ sp needed
 237 0030 80BD     		pop	{r7, pc}
 238              		.cfi_endproc
 239              	.LFE59:
 240              		.size	saveTemperatureLimitHighToEEPROM, .-saveTemperatureLimitHighToEEPROM
 241 0032 00BF     		.section	.text.loadTemperatureLimitHighFromEEPROM,"ax",%progbits
 242              		.align	2
 243              		.global	loadTemperatureLimitHighFromEEPROM
 244              		.thumb
 245              		.thumb_func
 246              		.type	loadTemperatureLimitHighFromEEPROM, %function
 247              	loadTemperatureLimitHighFromEEPROM:
 248              	.LFB60:
  79:.\memory.c    **** 
  80:.\memory.c    **** uint16 loadTemperatureLimitHighFromEEPROM(uint8 module)
  81:.\memory.c    **** {
 249              		.loc 1 81 0
 250              		.cfi_startproc
 251              		@ args = 0, pretend = 0, frame = 8
 252              		@ frame_needed = 1, uses_anonymous_args = 0
 253 0000 80B5     		push	{r7, lr}
 254              		.cfi_def_cfa_offset 8
 255              		.cfi_offset 7, -8
 256              		.cfi_offset 14, -4
 257 0002 82B0     		sub	sp, sp, #8
 258              		.cfi_def_cfa_offset 16
 259 0004 00AF     		add	r7, sp, #0
 260              		.cfi_def_cfa_register 7
 261 0006 0346     		mov	r3, r0
ARM GAS  C:\Users\Lois\AppData\Local\Temp\ccKtkImJ.s 			page 7


 262 0008 FB71     		strb	r3, [r7, #7]
  82:.\memory.c    ****     if(module == 0)
 263              		.loc 1 82 0
 264 000a FB79     		ldrb	r3, [r7, #7]	@ zero_extendqisi2
 265 000c 002B     		cmp	r3, #0
 266 000e 04D1     		bne	.L12
  83:.\memory.c    ****         return loadUINT16(EEPROM_MODULE0_ADRESS_TEMPERATURE_LIMIT_HIGH);
 267              		.loc 1 83 0
 268 0010 0E20     		movs	r0, #14
 269 0012 FFF7FEFF 		bl	loadUINT16
 270 0016 0346     		mov	r3, r0
 271 0018 03E0     		b	.L13
 272              	.L12:
  84:.\memory.c    ****     else
  85:.\memory.c    ****         return loadUINT16(EEPROM_MODULE1_ADRESS_TEMPERATURE_LIMIT_HIGH);
 273              		.loc 1 85 0
 274 001a 2420     		movs	r0, #36
 275 001c FFF7FEFF 		bl	loadUINT16
 276 0020 0346     		mov	r3, r0
 277              	.L13:
  86:.\memory.c    **** }
 278              		.loc 1 86 0
 279 0022 1846     		mov	r0, r3
 280 0024 0837     		adds	r7, r7, #8
 281              		.cfi_def_cfa_offset 8
 282 0026 BD46     		mov	sp, r7
 283              		.cfi_def_cfa_register 13
 284              		@ sp needed
 285 0028 80BD     		pop	{r7, pc}
 286              		.cfi_endproc
 287              	.LFE60:
 288              		.size	loadTemperatureLimitHighFromEEPROM, .-loadTemperatureLimitHighFromEEPROM
 289 002a 00BF     		.section	.text.saveTemperatureLimitLowToEEPROM,"ax",%progbits
 290              		.align	2
 291              		.global	saveTemperatureLimitLowToEEPROM
 292              		.thumb
 293              		.thumb_func
 294              		.type	saveTemperatureLimitLowToEEPROM, %function
 295              	saveTemperatureLimitLowToEEPROM:
 296              	.LFB61:
  87:.\memory.c    **** 
  88:.\memory.c    **** void saveTemperatureLimitLowToEEPROM(uint8 module,uint16 limit)
  89:.\memory.c    **** {
 297              		.loc 1 89 0
 298              		.cfi_startproc
 299              		@ args = 0, pretend = 0, frame = 8
 300              		@ frame_needed = 1, uses_anonymous_args = 0
 301 0000 80B5     		push	{r7, lr}
 302              		.cfi_def_cfa_offset 8
 303              		.cfi_offset 7, -8
 304              		.cfi_offset 14, -4
 305 0002 82B0     		sub	sp, sp, #8
 306              		.cfi_def_cfa_offset 16
 307 0004 00AF     		add	r7, sp, #0
 308              		.cfi_def_cfa_register 7
 309 0006 0346     		mov	r3, r0
 310 0008 0A46     		mov	r2, r1
ARM GAS  C:\Users\Lois\AppData\Local\Temp\ccKtkImJ.s 			page 8


 311 000a FB71     		strb	r3, [r7, #7]
 312 000c 1346     		mov	r3, r2	@ movhi
 313 000e BB80     		strh	r3, [r7, #4]	@ movhi
  90:.\memory.c    ****     if(module == 0)
 314              		.loc 1 90 0
 315 0010 FB79     		ldrb	r3, [r7, #7]	@ zero_extendqisi2
 316 0012 002B     		cmp	r3, #0
 317 0014 05D1     		bne	.L15
  91:.\memory.c    ****         saveUINT16(EEPROM_MODULE0_ADRESS_TEMPERATURE_LIMIT_LOW, limit);
 318              		.loc 1 91 0
 319 0016 BB88     		ldrh	r3, [r7, #4]
 320 0018 0C20     		movs	r0, #12
 321 001a 1946     		mov	r1, r3
 322 001c FFF7FEFF 		bl	saveUINT16
 323 0020 04E0     		b	.L14
 324              	.L15:
  92:.\memory.c    ****     else
  93:.\memory.c    ****         saveUINT16(EEPROM_MODULE1_ADRESS_TEMPERATURE_LIMIT_LOW, limit);
 325              		.loc 1 93 0
 326 0022 BB88     		ldrh	r3, [r7, #4]
 327 0024 2220     		movs	r0, #34
 328 0026 1946     		mov	r1, r3
 329 0028 FFF7FEFF 		bl	saveUINT16
 330              	.L14:
  94:.\memory.c    **** }
 331              		.loc 1 94 0
 332 002c 0837     		adds	r7, r7, #8
 333              		.cfi_def_cfa_offset 8
 334 002e BD46     		mov	sp, r7
 335              		.cfi_def_cfa_register 13
 336              		@ sp needed
 337 0030 80BD     		pop	{r7, pc}
 338              		.cfi_endproc
 339              	.LFE61:
 340              		.size	saveTemperatureLimitLowToEEPROM, .-saveTemperatureLimitLowToEEPROM
 341 0032 00BF     		.section	.text.loadTemperatureLimitLowFromEEPROM,"ax",%progbits
 342              		.align	2
 343              		.global	loadTemperatureLimitLowFromEEPROM
 344              		.thumb
 345              		.thumb_func
 346              		.type	loadTemperatureLimitLowFromEEPROM, %function
 347              	loadTemperatureLimitLowFromEEPROM:
 348              	.LFB62:
  95:.\memory.c    **** 
  96:.\memory.c    **** uint16 loadTemperatureLimitLowFromEEPROM(uint8 module)
  97:.\memory.c    **** {
 349              		.loc 1 97 0
 350              		.cfi_startproc
 351              		@ args = 0, pretend = 0, frame = 8
 352              		@ frame_needed = 1, uses_anonymous_args = 0
 353 0000 80B5     		push	{r7, lr}
 354              		.cfi_def_cfa_offset 8
 355              		.cfi_offset 7, -8
 356              		.cfi_offset 14, -4
 357 0002 82B0     		sub	sp, sp, #8
 358              		.cfi_def_cfa_offset 16
 359 0004 00AF     		add	r7, sp, #0
ARM GAS  C:\Users\Lois\AppData\Local\Temp\ccKtkImJ.s 			page 9


 360              		.cfi_def_cfa_register 7
 361 0006 0346     		mov	r3, r0
 362 0008 FB71     		strb	r3, [r7, #7]
  98:.\memory.c    ****     if(module == 0)
 363              		.loc 1 98 0
 364 000a FB79     		ldrb	r3, [r7, #7]	@ zero_extendqisi2
 365 000c 002B     		cmp	r3, #0
 366 000e 04D1     		bne	.L18
  99:.\memory.c    ****         return loadUINT16(EEPROM_MODULE0_ADRESS_TEMPERATURE_LIMIT_LOW);
 367              		.loc 1 99 0
 368 0010 0C20     		movs	r0, #12
 369 0012 FFF7FEFF 		bl	loadUINT16
 370 0016 0346     		mov	r3, r0
 371 0018 03E0     		b	.L19
 372              	.L18:
 100:.\memory.c    ****     else
 101:.\memory.c    ****         return loadUINT16(EEPROM_MODULE1_ADRESS_TEMPERATURE_LIMIT_LOW);
 373              		.loc 1 101 0
 374 001a 2220     		movs	r0, #34
 375 001c FFF7FEFF 		bl	loadUINT16
 376 0020 0346     		mov	r3, r0
 377              	.L19:
 102:.\memory.c    **** }
 378              		.loc 1 102 0
 379 0022 1846     		mov	r0, r3
 380 0024 0837     		adds	r7, r7, #8
 381              		.cfi_def_cfa_offset 8
 382 0026 BD46     		mov	sp, r7
 383              		.cfi_def_cfa_register 13
 384              		@ sp needed
 385 0028 80BD     		pop	{r7, pc}
 386              		.cfi_endproc
 387              	.LFE62:
 388              		.size	loadTemperatureLimitLowFromEEPROM, .-loadTemperatureLimitLowFromEEPROM
 389 002a 00BF     		.section	.text.saveTargetTemperatureToEEPROM,"ax",%progbits
 390              		.align	2
 391              		.global	saveTargetTemperatureToEEPROM
 392              		.thumb
 393              		.thumb_func
 394              		.type	saveTargetTemperatureToEEPROM, %function
 395              	saveTargetTemperatureToEEPROM:
 396              	.LFB63:
 103:.\memory.c    **** 
 104:.\memory.c    **** void saveTargetTemperatureToEEPROM(uint8 module, uint16 target)
 105:.\memory.c    **** {
 397              		.loc 1 105 0
 398              		.cfi_startproc
 399              		@ args = 0, pretend = 0, frame = 8
 400              		@ frame_needed = 1, uses_anonymous_args = 0
 401 0000 80B5     		push	{r7, lr}
 402              		.cfi_def_cfa_offset 8
 403              		.cfi_offset 7, -8
 404              		.cfi_offset 14, -4
 405 0002 82B0     		sub	sp, sp, #8
 406              		.cfi_def_cfa_offset 16
 407 0004 00AF     		add	r7, sp, #0
 408              		.cfi_def_cfa_register 7
ARM GAS  C:\Users\Lois\AppData\Local\Temp\ccKtkImJ.s 			page 10


 409 0006 0346     		mov	r3, r0
 410 0008 0A46     		mov	r2, r1
 411 000a FB71     		strb	r3, [r7, #7]
 412 000c 1346     		mov	r3, r2	@ movhi
 413 000e BB80     		strh	r3, [r7, #4]	@ movhi
 106:.\memory.c    ****     if(module == 0)
 414              		.loc 1 106 0
 415 0010 FB79     		ldrb	r3, [r7, #7]	@ zero_extendqisi2
 416 0012 002B     		cmp	r3, #0
 417 0014 05D1     		bne	.L21
 107:.\memory.c    ****         saveUINT16(EEPROM_MODULE0_ADRESS_TEMPERATURE_TARGET, target);
 418              		.loc 1 107 0
 419 0016 BB88     		ldrh	r3, [r7, #4]
 420 0018 1020     		movs	r0, #16
 421 001a 1946     		mov	r1, r3
 422 001c FFF7FEFF 		bl	saveUINT16
 423 0020 04E0     		b	.L20
 424              	.L21:
 108:.\memory.c    ****     else
 109:.\memory.c    ****         saveUINT16(EEPROM_MODULE1_ADRESS_TEMPERATURE_TARGET, target);
 425              		.loc 1 109 0
 426 0022 BB88     		ldrh	r3, [r7, #4]
 427 0024 2620     		movs	r0, #38
 428 0026 1946     		mov	r1, r3
 429 0028 FFF7FEFF 		bl	saveUINT16
 430              	.L20:
 110:.\memory.c    **** }
 431              		.loc 1 110 0
 432 002c 0837     		adds	r7, r7, #8
 433              		.cfi_def_cfa_offset 8
 434 002e BD46     		mov	sp, r7
 435              		.cfi_def_cfa_register 13
 436              		@ sp needed
 437 0030 80BD     		pop	{r7, pc}
 438              		.cfi_endproc
 439              	.LFE63:
 440              		.size	saveTargetTemperatureToEEPROM, .-saveTargetTemperatureToEEPROM
 441 0032 00BF     		.section	.text.loadTargetTemperatureFromEEPROM,"ax",%progbits
 442              		.align	2
 443              		.global	loadTargetTemperatureFromEEPROM
 444              		.thumb
 445              		.thumb_func
 446              		.type	loadTargetTemperatureFromEEPROM, %function
 447              	loadTargetTemperatureFromEEPROM:
 448              	.LFB64:
 111:.\memory.c    **** 
 112:.\memory.c    **** uint16 loadTargetTemperatureFromEEPROM(uint8 module)
 113:.\memory.c    **** {
 449              		.loc 1 113 0
 450              		.cfi_startproc
 451              		@ args = 0, pretend = 0, frame = 8
 452              		@ frame_needed = 1, uses_anonymous_args = 0
 453 0000 80B5     		push	{r7, lr}
 454              		.cfi_def_cfa_offset 8
 455              		.cfi_offset 7, -8
 456              		.cfi_offset 14, -4
 457 0002 82B0     		sub	sp, sp, #8
ARM GAS  C:\Users\Lois\AppData\Local\Temp\ccKtkImJ.s 			page 11


 458              		.cfi_def_cfa_offset 16
 459 0004 00AF     		add	r7, sp, #0
 460              		.cfi_def_cfa_register 7
 461 0006 0346     		mov	r3, r0
 462 0008 FB71     		strb	r3, [r7, #7]
 114:.\memory.c    ****     if(module == 0)
 463              		.loc 1 114 0
 464 000a FB79     		ldrb	r3, [r7, #7]	@ zero_extendqisi2
 465 000c 002B     		cmp	r3, #0
 466 000e 04D1     		bne	.L24
 115:.\memory.c    ****         return loadUINT16(EEPROM_MODULE0_ADRESS_TEMPERATURE_TARGET);
 467              		.loc 1 115 0
 468 0010 1020     		movs	r0, #16
 469 0012 FFF7FEFF 		bl	loadUINT16
 470 0016 0346     		mov	r3, r0
 471 0018 03E0     		b	.L25
 472              	.L24:
 116:.\memory.c    ****     else
 117:.\memory.c    ****         return loadUINT16(EEPROM_MODULE1_ADRESS_TEMPERATURE_TARGET);
 473              		.loc 1 117 0
 474 001a 2620     		movs	r0, #38
 475 001c FFF7FEFF 		bl	loadUINT16
 476 0020 0346     		mov	r3, r0
 477              	.L25:
 118:.\memory.c    **** }
 478              		.loc 1 118 0
 479 0022 1846     		mov	r0, r3
 480 0024 0837     		adds	r7, r7, #8
 481              		.cfi_def_cfa_offset 8
 482 0026 BD46     		mov	sp, r7
 483              		.cfi_def_cfa_register 13
 484              		@ sp needed
 485 0028 80BD     		pop	{r7, pc}
 486              		.cfi_endproc
 487              	.LFE64:
 488              		.size	loadTargetTemperatureFromEEPROM, .-loadTargetTemperatureFromEEPROM
 489 002a 00BF     		.section	.text.saveStepperPositionToEEPROM,"ax",%progbits
 490              		.align	2
 491              		.global	saveStepperPositionToEEPROM
 492              		.thumb
 493              		.thumb_func
 494              		.type	saveStepperPositionToEEPROM, %function
 495              	saveStepperPositionToEEPROM:
 496              	.LFB65:
 119:.\memory.c    **** 
 120:.\memory.c    **** void saveStepperPositionToEEPROM(uint8 module, int position)
 121:.\memory.c    **** {
 497              		.loc 1 121 0
 498              		.cfi_startproc
 499              		@ args = 0, pretend = 0, frame = 8
 500              		@ frame_needed = 1, uses_anonymous_args = 0
 501 0000 80B5     		push	{r7, lr}
 502              		.cfi_def_cfa_offset 8
 503              		.cfi_offset 7, -8
 504              		.cfi_offset 14, -4
 505 0002 82B0     		sub	sp, sp, #8
 506              		.cfi_def_cfa_offset 16
ARM GAS  C:\Users\Lois\AppData\Local\Temp\ccKtkImJ.s 			page 12


 507 0004 00AF     		add	r7, sp, #0
 508              		.cfi_def_cfa_register 7
 509 0006 0346     		mov	r3, r0
 510 0008 3960     		str	r1, [r7]
 511 000a FB71     		strb	r3, [r7, #7]
 122:.\memory.c    ****     if(module == 0)
 512              		.loc 1 122 0
 513 000c FB79     		ldrb	r3, [r7, #7]	@ zero_extendqisi2
 514 000e 002B     		cmp	r3, #0
 515 0010 04D1     		bne	.L27
 123:.\memory.c    ****         saveINT(EEPROM_MODULE0_ADRESS_STEPPER_POS, position);
 516              		.loc 1 123 0
 517 0012 1220     		movs	r0, #18
 518 0014 3968     		ldr	r1, [r7]
 519 0016 FFF7FEFF 		bl	saveINT
 520 001a 03E0     		b	.L26
 521              	.L27:
 124:.\memory.c    ****     else
 125:.\memory.c    ****         saveINT(EEPROM_MODULE1_ADRESS_STEPPER_POS, position);
 522              		.loc 1 125 0
 523 001c 2820     		movs	r0, #40
 524 001e 3968     		ldr	r1, [r7]
 525 0020 FFF7FEFF 		bl	saveINT
 526              	.L26:
 126:.\memory.c    **** }
 527              		.loc 1 126 0
 528 0024 0837     		adds	r7, r7, #8
 529              		.cfi_def_cfa_offset 8
 530 0026 BD46     		mov	sp, r7
 531              		.cfi_def_cfa_register 13
 532              		@ sp needed
 533 0028 80BD     		pop	{r7, pc}
 534              		.cfi_endproc
 535              	.LFE65:
 536              		.size	saveStepperPositionToEEPROM, .-saveStepperPositionToEEPROM
 537 002a 00BF     		.section	.text.loadStepperPositionFromEEPROM,"ax",%progbits
 538              		.align	2
 539              		.global	loadStepperPositionFromEEPROM
 540              		.thumb
 541              		.thumb_func
 542              		.type	loadStepperPositionFromEEPROM, %function
 543              	loadStepperPositionFromEEPROM:
 544              	.LFB66:
 127:.\memory.c    **** 
 128:.\memory.c    **** int loadStepperPositionFromEEPROM(uint8 module)
 129:.\memory.c    **** {
 545              		.loc 1 129 0
 546              		.cfi_startproc
 547              		@ args = 0, pretend = 0, frame = 8
 548              		@ frame_needed = 1, uses_anonymous_args = 0
 549 0000 80B5     		push	{r7, lr}
 550              		.cfi_def_cfa_offset 8
 551              		.cfi_offset 7, -8
 552              		.cfi_offset 14, -4
 553 0002 82B0     		sub	sp, sp, #8
 554              		.cfi_def_cfa_offset 16
 555 0004 00AF     		add	r7, sp, #0
ARM GAS  C:\Users\Lois\AppData\Local\Temp\ccKtkImJ.s 			page 13


 556              		.cfi_def_cfa_register 7
 557 0006 0346     		mov	r3, r0
 558 0008 FB71     		strb	r3, [r7, #7]
 130:.\memory.c    ****     if(module == 0)
 559              		.loc 1 130 0
 560 000a FB79     		ldrb	r3, [r7, #7]	@ zero_extendqisi2
 561 000c 002B     		cmp	r3, #0
 562 000e 04D1     		bne	.L30
 131:.\memory.c    ****         return loadINT(EEPROM_MODULE0_ADRESS_STEPPER_POS);
 563              		.loc 1 131 0
 564 0010 1220     		movs	r0, #18
 565 0012 FFF7FEFF 		bl	loadINT
 566 0016 0346     		mov	r3, r0
 567 0018 03E0     		b	.L31
 568              	.L30:
 132:.\memory.c    ****     else
 133:.\memory.c    ****         return loadINT(EEPROM_MODULE1_ADRESS_STEPPER_POS);
 569              		.loc 1 133 0
 570 001a 2820     		movs	r0, #40
 571 001c FFF7FEFF 		bl	loadINT
 572 0020 0346     		mov	r3, r0
 573              	.L31:
 134:.\memory.c    **** }
 574              		.loc 1 134 0
 575 0022 1846     		mov	r0, r3
 576 0024 0837     		adds	r7, r7, #8
 577              		.cfi_def_cfa_offset 8
 578 0026 BD46     		mov	sp, r7
 579              		.cfi_def_cfa_register 13
 580              		@ sp needed
 581 0028 80BD     		pop	{r7, pc}
 582              		.cfi_endproc
 583              	.LFE66:
 584              		.size	loadStepperPositionFromEEPROM, .-loadStepperPositionFromEEPROM
 585 002a 00BF     		.section	.text.saveUINT16,"ax",%progbits
 586              		.align	2
 587              		.global	saveUINT16
 588              		.thumb
 589              		.thumb_func
 590              		.type	saveUINT16, %function
 591              	saveUINT16:
 592              	.LFB67:
 135:.\memory.c    **** 
 136:.\memory.c    **** 
 137:.\memory.c    **** // HELPER FUNCTION
 138:.\memory.c    **** 
 139:.\memory.c    **** void saveUINT16(uint8 startAdress, uint16 value)
 140:.\memory.c    **** {
 593              		.loc 1 140 0
 594              		.cfi_startproc
 595              		@ args = 0, pretend = 0, frame = 8
 596              		@ frame_needed = 1, uses_anonymous_args = 0
 597 0000 80B5     		push	{r7, lr}
 598              		.cfi_def_cfa_offset 8
 599              		.cfi_offset 7, -8
 600              		.cfi_offset 14, -4
 601 0002 82B0     		sub	sp, sp, #8
ARM GAS  C:\Users\Lois\AppData\Local\Temp\ccKtkImJ.s 			page 14


 602              		.cfi_def_cfa_offset 16
 603 0004 00AF     		add	r7, sp, #0
 604              		.cfi_def_cfa_register 7
 605 0006 0346     		mov	r3, r0
 606 0008 0A46     		mov	r2, r1
 607 000a FB71     		strb	r3, [r7, #7]
 608 000c 1346     		mov	r3, r2	@ movhi
 609 000e BB80     		strh	r3, [r7, #4]	@ movhi
 141:.\memory.c    ****     EEPROM_WriteByte((int8)value, startAdress);
 610              		.loc 1 141 0
 611 0010 BB88     		ldrh	r3, [r7, #4]	@ movhi
 612 0012 DAB2     		uxtb	r2, r3
 613 0014 FB79     		ldrb	r3, [r7, #7]	@ zero_extendqisi2
 614 0016 9BB2     		uxth	r3, r3
 615 0018 1046     		mov	r0, r2
 616 001a 1946     		mov	r1, r3
 617 001c FFF7FEFF 		bl	EEPROM_WriteByte
 142:.\memory.c    ****     EEPROM_WriteByte((int8)(value>>8), startAdress+1);
 618              		.loc 1 142 0
 619 0020 BB88     		ldrh	r3, [r7, #4]
 620 0022 1B0A     		lsrs	r3, r3, #8
 621 0024 9BB2     		uxth	r3, r3
 622 0026 DAB2     		uxtb	r2, r3
 623 0028 FB79     		ldrb	r3, [r7, #7]	@ zero_extendqisi2
 624 002a 9BB2     		uxth	r3, r3
 625 002c 0133     		adds	r3, r3, #1
 626 002e 9BB2     		uxth	r3, r3
 627 0030 1046     		mov	r0, r2
 628 0032 1946     		mov	r1, r3
 629 0034 FFF7FEFF 		bl	EEPROM_WriteByte
 143:.\memory.c    **** }
 630              		.loc 1 143 0
 631 0038 0837     		adds	r7, r7, #8
 632              		.cfi_def_cfa_offset 8
 633 003a BD46     		mov	sp, r7
 634              		.cfi_def_cfa_register 13
 635              		@ sp needed
 636 003c 80BD     		pop	{r7, pc}
 637              		.cfi_endproc
 638              	.LFE67:
 639              		.size	saveUINT16, .-saveUINT16
 640 003e 00BF     		.section	.text.loadUINT16,"ax",%progbits
 641              		.align	2
 642              		.global	loadUINT16
 643              		.thumb
 644              		.thumb_func
 645              		.type	loadUINT16, %function
 646              	loadUINT16:
 647              	.LFB68:
 144:.\memory.c    **** 
 145:.\memory.c    **** uint16 loadUINT16(uint8 startAdress)
 146:.\memory.c    **** {
 648              		.loc 1 146 0
 649              		.cfi_startproc
 650              		@ args = 0, pretend = 0, frame = 16
 651              		@ frame_needed = 1, uses_anonymous_args = 0
 652 0000 90B5     		push	{r4, r7, lr}
ARM GAS  C:\Users\Lois\AppData\Local\Temp\ccKtkImJ.s 			page 15


 653              		.cfi_def_cfa_offset 12
 654              		.cfi_offset 4, -12
 655              		.cfi_offset 7, -8
 656              		.cfi_offset 14, -4
 657 0002 85B0     		sub	sp, sp, #20
 658              		.cfi_def_cfa_offset 32
 659 0004 00AF     		add	r7, sp, #0
 660              		.cfi_def_cfa_register 7
 661 0006 0346     		mov	r3, r0
 662 0008 FB71     		strb	r3, [r7, #7]
 147:.\memory.c    ****     uint16 value;
 148:.\memory.c    ****     
 149:.\memory.c    ****     value = EEPROM_ReadByte(startAdress+1);
 663              		.loc 1 149 0
 664 000a FB79     		ldrb	r3, [r7, #7]	@ zero_extendqisi2
 665 000c 9BB2     		uxth	r3, r3
 666 000e 0133     		adds	r3, r3, #1
 667 0010 9BB2     		uxth	r3, r3
 668 0012 1846     		mov	r0, r3
 669 0014 FFF7FEFF 		bl	EEPROM_ReadByte
 670 0018 0346     		mov	r3, r0
 671 001a FB81     		strh	r3, [r7, #14]	@ movhi
 150:.\memory.c    ****     value = (value<<8) + EEPROM_ReadByte(startAdress);
 672              		.loc 1 150 0
 673 001c FB89     		ldrh	r3, [r7, #14]	@ movhi
 674 001e 1B02     		lsls	r3, r3, #8
 675 0020 9CB2     		uxth	r4, r3
 676 0022 FB79     		ldrb	r3, [r7, #7]	@ zero_extendqisi2
 677 0024 9BB2     		uxth	r3, r3
 678 0026 1846     		mov	r0, r3
 679 0028 FFF7FEFF 		bl	EEPROM_ReadByte
 680 002c 0346     		mov	r3, r0
 681 002e 9BB2     		uxth	r3, r3
 682 0030 2344     		add	r3, r3, r4
 683 0032 FB81     		strh	r3, [r7, #14]	@ movhi
 151:.\memory.c    ****     
 152:.\memory.c    ****     return value;
 684              		.loc 1 152 0
 685 0034 FB89     		ldrh	r3, [r7, #14]
 153:.\memory.c    **** }
 686              		.loc 1 153 0
 687 0036 1846     		mov	r0, r3
 688 0038 1437     		adds	r7, r7, #20
 689              		.cfi_def_cfa_offset 12
 690 003a BD46     		mov	sp, r7
 691              		.cfi_def_cfa_register 13
 692              		@ sp needed
 693 003c 90BD     		pop	{r4, r7, pc}
 694              		.cfi_endproc
 695              	.LFE68:
 696              		.size	loadUINT16, .-loadUINT16
 697 003e 00BF     		.section	.text.saveFLOAT,"ax",%progbits
 698              		.align	2
 699              		.global	saveFLOAT
 700              		.thumb
 701              		.thumb_func
 702              		.type	saveFLOAT, %function
ARM GAS  C:\Users\Lois\AppData\Local\Temp\ccKtkImJ.s 			page 16


 703              	saveFLOAT:
 704              	.LFB69:
 154:.\memory.c    **** 
 155:.\memory.c    **** void saveFLOAT(uint8 startAdress, float value)
 156:.\memory.c    **** {
 705              		.loc 1 156 0
 706              		.cfi_startproc
 707              		@ args = 0, pretend = 0, frame = 16
 708              		@ frame_needed = 1, uses_anonymous_args = 0
 709 0000 80B5     		push	{r7, lr}
 710              		.cfi_def_cfa_offset 8
 711              		.cfi_offset 7, -8
 712              		.cfi_offset 14, -4
 713 0002 84B0     		sub	sp, sp, #16
 714              		.cfi_def_cfa_offset 24
 715 0004 00AF     		add	r7, sp, #0
 716              		.cfi_def_cfa_register 7
 717 0006 0346     		mov	r3, r0
 718 0008 3960     		str	r1, [r7]	@ float
 719 000a FB71     		strb	r3, [r7, #7]
 157:.\memory.c    ****     uint8 i;
 158:.\memory.c    ****     uint8 k[4];
 159:.\memory.c    **** 
 160:.\memory.c    ****     memcpy(k, &value, sizeof(float));
 720              		.loc 1 160 0
 721 000c 3B68     		ldr	r3, [r7]
 722 000e BB60     		str	r3, [r7, #8]
 161:.\memory.c    ****     for( i=0; i<4; i++)
 723              		.loc 1 161 0
 724 0010 0023     		movs	r3, #0
 725 0012 FB73     		strb	r3, [r7, #15]
 726 0014 12E0     		b	.L36
 727              	.L37:
 162:.\memory.c    ****         EEPROM_WriteByte(k[i], startAdress+i);
 728              		.loc 1 162 0 discriminator 3
 729 0016 FB7B     		ldrb	r3, [r7, #15]	@ zero_extendqisi2
 730 0018 07F11002 		add	r2, r7, #16
 731 001c 1344     		add	r3, r3, r2
 732 001e 13F8081C 		ldrb	r1, [r3, #-8]	@ zero_extendqisi2
 733 0022 FB79     		ldrb	r3, [r7, #7]	@ zero_extendqisi2
 734 0024 9AB2     		uxth	r2, r3
 735 0026 FB7B     		ldrb	r3, [r7, #15]	@ zero_extendqisi2
 736 0028 9BB2     		uxth	r3, r3
 737 002a 1344     		add	r3, r3, r2
 738 002c 9BB2     		uxth	r3, r3
 739 002e 0846     		mov	r0, r1
 740 0030 1946     		mov	r1, r3
 741 0032 FFF7FEFF 		bl	EEPROM_WriteByte
 161:.\memory.c    ****     for( i=0; i<4; i++)
 742              		.loc 1 161 0 discriminator 3
 743 0036 FB7B     		ldrb	r3, [r7, #15]	@ zero_extendqisi2
 744 0038 0133     		adds	r3, r3, #1
 745 003a FB73     		strb	r3, [r7, #15]
 746              	.L36:
 161:.\memory.c    ****     for( i=0; i<4; i++)
 747              		.loc 1 161 0 is_stmt 0 discriminator 1
 748 003c FB7B     		ldrb	r3, [r7, #15]	@ zero_extendqisi2
ARM GAS  C:\Users\Lois\AppData\Local\Temp\ccKtkImJ.s 			page 17


 749 003e 032B     		cmp	r3, #3
 750 0040 E9D9     		bls	.L37
 163:.\memory.c    **** }
 751              		.loc 1 163 0 is_stmt 1
 752 0042 1037     		adds	r7, r7, #16
 753              		.cfi_def_cfa_offset 8
 754 0044 BD46     		mov	sp, r7
 755              		.cfi_def_cfa_register 13
 756              		@ sp needed
 757 0046 80BD     		pop	{r7, pc}
 758              		.cfi_endproc
 759              	.LFE69:
 760              		.size	saveFLOAT, .-saveFLOAT
 761              		.section	.text.loadFLOAT,"ax",%progbits
 762              		.align	2
 763              		.global	loadFLOAT
 764              		.thumb
 765              		.thumb_func
 766              		.type	loadFLOAT, %function
 767              	loadFLOAT:
 768              	.LFB70:
 164:.\memory.c    **** 
 165:.\memory.c    **** float loadFLOAT(uint8 startAdress)
 166:.\memory.c    **** {
 769              		.loc 1 166 0
 770              		.cfi_startproc
 771              		@ args = 0, pretend = 0, frame = 24
 772              		@ frame_needed = 1, uses_anonymous_args = 0
 773 0000 90B5     		push	{r4, r7, lr}
 774              		.cfi_def_cfa_offset 12
 775              		.cfi_offset 4, -12
 776              		.cfi_offset 7, -8
 777              		.cfi_offset 14, -4
 778 0002 87B0     		sub	sp, sp, #28
 779              		.cfi_def_cfa_offset 40
 780 0004 00AF     		add	r7, sp, #0
 781              		.cfi_def_cfa_register 7
 782 0006 0346     		mov	r3, r0
 783 0008 FB71     		strb	r3, [r7, #7]
 167:.\memory.c    ****     uint8 i;
 168:.\memory.c    ****     uint8 k[4];
 169:.\memory.c    ****     float value;
 170:.\memory.c    ****     
 171:.\memory.c    ****     for( i=0; i<4; i++)
 784              		.loc 1 171 0
 785 000a 0023     		movs	r3, #0
 786 000c FB75     		strb	r3, [r7, #23]
 787 000e 13E0     		b	.L39
 788              	.L40:
 172:.\memory.c    ****         k[i] = EEPROM_ReadByte(startAdress+i);
 789              		.loc 1 172 0 discriminator 3
 790 0010 FC7D     		ldrb	r4, [r7, #23]	@ zero_extendqisi2
 791 0012 FB79     		ldrb	r3, [r7, #7]	@ zero_extendqisi2
 792 0014 9AB2     		uxth	r2, r3
 793 0016 FB7D     		ldrb	r3, [r7, #23]	@ zero_extendqisi2
 794 0018 9BB2     		uxth	r3, r3
 795 001a 1344     		add	r3, r3, r2
ARM GAS  C:\Users\Lois\AppData\Local\Temp\ccKtkImJ.s 			page 18


 796 001c 9BB2     		uxth	r3, r3
 797 001e 1846     		mov	r0, r3
 798 0020 FFF7FEFF 		bl	EEPROM_ReadByte
 799 0024 0346     		mov	r3, r0
 800 0026 1A46     		mov	r2, r3
 801 0028 07F11803 		add	r3, r7, #24
 802 002c 2344     		add	r3, r3, r4
 803 002e 03F8082C 		strb	r2, [r3, #-8]
 171:.\memory.c    ****         k[i] = EEPROM_ReadByte(startAdress+i);
 804              		.loc 1 171 0 discriminator 3
 805 0032 FB7D     		ldrb	r3, [r7, #23]	@ zero_extendqisi2
 806 0034 0133     		adds	r3, r3, #1
 807 0036 FB75     		strb	r3, [r7, #23]
 808              	.L39:
 171:.\memory.c    ****         k[i] = EEPROM_ReadByte(startAdress+i);
 809              		.loc 1 171 0 is_stmt 0 discriminator 1
 810 0038 FB7D     		ldrb	r3, [r7, #23]	@ zero_extendqisi2
 811 003a 032B     		cmp	r3, #3
 812 003c E8D9     		bls	.L40
 173:.\memory.c    ****         
 174:.\memory.c    ****     memcpy(&value, k, sizeof(float));
 813              		.loc 1 174 0 is_stmt 1
 814 003e 07F10C02 		add	r2, r7, #12
 815 0042 07F11003 		add	r3, r7, #16
 816 0046 1046     		mov	r0, r2
 817 0048 1946     		mov	r1, r3
 818 004a 0422     		movs	r2, #4
 819 004c FFF7FEFF 		bl	memcpy
 175:.\memory.c    ****     
 176:.\memory.c    ****     return value;
 820              		.loc 1 176 0
 821 0050 FB68     		ldr	r3, [r7, #12]	@ float
 177:.\memory.c    **** }
 822              		.loc 1 177 0
 823 0052 1846     		mov	r0, r3
 824 0054 1C37     		adds	r7, r7, #28
 825              		.cfi_def_cfa_offset 12
 826 0056 BD46     		mov	sp, r7
 827              		.cfi_def_cfa_register 13
 828              		@ sp needed
 829 0058 90BD     		pop	{r4, r7, pc}
 830              		.cfi_endproc
 831              	.LFE70:
 832              		.size	loadFLOAT, .-loadFLOAT
 833 005a 00BF     		.section	.text.saveINT,"ax",%progbits
 834              		.align	2
 835              		.global	saveINT
 836              		.thumb
 837              		.thumb_func
 838              		.type	saveINT, %function
 839              	saveINT:
 840              	.LFB71:
 178:.\memory.c    **** 
 179:.\memory.c    **** void saveINT(uint8 startAdress, int value)
 180:.\memory.c    **** {
 841              		.loc 1 180 0
 842              		.cfi_startproc
ARM GAS  C:\Users\Lois\AppData\Local\Temp\ccKtkImJ.s 			page 19


 843              		@ args = 0, pretend = 0, frame = 8
 844              		@ frame_needed = 1, uses_anonymous_args = 0
 845 0000 80B5     		push	{r7, lr}
 846              		.cfi_def_cfa_offset 8
 847              		.cfi_offset 7, -8
 848              		.cfi_offset 14, -4
 849 0002 82B0     		sub	sp, sp, #8
 850              		.cfi_def_cfa_offset 16
 851 0004 00AF     		add	r7, sp, #0
 852              		.cfi_def_cfa_register 7
 853 0006 0346     		mov	r3, r0
 854 0008 3960     		str	r1, [r7]
 855 000a FB71     		strb	r3, [r7, #7]
 181:.\memory.c    ****     EEPROM_WriteByte((int8)value, startAdress);
 856              		.loc 1 181 0
 857 000c 3B68     		ldr	r3, [r7]
 858 000e DAB2     		uxtb	r2, r3
 859 0010 FB79     		ldrb	r3, [r7, #7]	@ zero_extendqisi2
 860 0012 9BB2     		uxth	r3, r3
 861 0014 1046     		mov	r0, r2
 862 0016 1946     		mov	r1, r3
 863 0018 FFF7FEFF 		bl	EEPROM_WriteByte
 182:.\memory.c    ****     EEPROM_WriteByte((int8)(value>>8), startAdress+1);
 864              		.loc 1 182 0
 865 001c 3B68     		ldr	r3, [r7]
 866 001e 1B12     		asrs	r3, r3, #8
 867 0020 DAB2     		uxtb	r2, r3
 868 0022 FB79     		ldrb	r3, [r7, #7]	@ zero_extendqisi2
 869 0024 9BB2     		uxth	r3, r3
 870 0026 0133     		adds	r3, r3, #1
 871 0028 9BB2     		uxth	r3, r3
 872 002a 1046     		mov	r0, r2
 873 002c 1946     		mov	r1, r3
 874 002e FFF7FEFF 		bl	EEPROM_WriteByte
 183:.\memory.c    ****     EEPROM_WriteByte((int8)(value>>16), startAdress+2);
 875              		.loc 1 183 0
 876 0032 3B68     		ldr	r3, [r7]
 877 0034 1B14     		asrs	r3, r3, #16
 878 0036 DAB2     		uxtb	r2, r3
 879 0038 FB79     		ldrb	r3, [r7, #7]	@ zero_extendqisi2
 880 003a 9BB2     		uxth	r3, r3
 881 003c 0233     		adds	r3, r3, #2
 882 003e 9BB2     		uxth	r3, r3
 883 0040 1046     		mov	r0, r2
 884 0042 1946     		mov	r1, r3
 885 0044 FFF7FEFF 		bl	EEPROM_WriteByte
 184:.\memory.c    ****     EEPROM_WriteByte((int8)(value>>24), startAdress+3);
 886              		.loc 1 184 0
 887 0048 3B68     		ldr	r3, [r7]
 888 004a 1B16     		asrs	r3, r3, #24
 889 004c DAB2     		uxtb	r2, r3
 890 004e FB79     		ldrb	r3, [r7, #7]	@ zero_extendqisi2
 891 0050 9BB2     		uxth	r3, r3
 892 0052 0333     		adds	r3, r3, #3
 893 0054 9BB2     		uxth	r3, r3
 894 0056 1046     		mov	r0, r2
 895 0058 1946     		mov	r1, r3
ARM GAS  C:\Users\Lois\AppData\Local\Temp\ccKtkImJ.s 			page 20


 896 005a FFF7FEFF 		bl	EEPROM_WriteByte
 185:.\memory.c    **** }
 897              		.loc 1 185 0
 898 005e 0837     		adds	r7, r7, #8
 899              		.cfi_def_cfa_offset 8
 900 0060 BD46     		mov	sp, r7
 901              		.cfi_def_cfa_register 13
 902              		@ sp needed
 903 0062 80BD     		pop	{r7, pc}
 904              		.cfi_endproc
 905              	.LFE71:
 906              		.size	saveINT, .-saveINT
 907              		.section	.text.loadINT,"ax",%progbits
 908              		.align	2
 909              		.global	loadINT
 910              		.thumb
 911              		.thumb_func
 912              		.type	loadINT, %function
 913              	loadINT:
 914              	.LFB72:
 186:.\memory.c    **** int loadINT(uint8 startAdress)
 187:.\memory.c    **** {
 915              		.loc 1 187 0
 916              		.cfi_startproc
 917              		@ args = 0, pretend = 0, frame = 16
 918              		@ frame_needed = 1, uses_anonymous_args = 0
 919 0000 80B5     		push	{r7, lr}
 920              		.cfi_def_cfa_offset 8
 921              		.cfi_offset 7, -8
 922              		.cfi_offset 14, -4
 923 0002 84B0     		sub	sp, sp, #16
 924              		.cfi_def_cfa_offset 24
 925 0004 00AF     		add	r7, sp, #0
 926              		.cfi_def_cfa_register 7
 927 0006 0346     		mov	r3, r0
 928 0008 FB71     		strb	r3, [r7, #7]
 188:.\memory.c    ****     int value;  
 189:.\memory.c    ****     uint8 k[4];
 190:.\memory.c    ****     k[0] = EEPROM_ReadByte(startAdress);
 929              		.loc 1 190 0
 930 000a FB79     		ldrb	r3, [r7, #7]	@ zero_extendqisi2
 931 000c 9BB2     		uxth	r3, r3
 932 000e 1846     		mov	r0, r3
 933 0010 FFF7FEFF 		bl	EEPROM_ReadByte
 934 0014 0346     		mov	r3, r0
 935 0016 3B72     		strb	r3, [r7, #8]
 191:.\memory.c    ****     k[1] = EEPROM_ReadByte(startAdress+1);
 936              		.loc 1 191 0
 937 0018 FB79     		ldrb	r3, [r7, #7]	@ zero_extendqisi2
 938 001a 9BB2     		uxth	r3, r3
 939 001c 0133     		adds	r3, r3, #1
 940 001e 9BB2     		uxth	r3, r3
 941 0020 1846     		mov	r0, r3
 942 0022 FFF7FEFF 		bl	EEPROM_ReadByte
 943 0026 0346     		mov	r3, r0
 944 0028 7B72     		strb	r3, [r7, #9]
 192:.\memory.c    ****     k[2] = EEPROM_ReadByte(startAdress+2);
ARM GAS  C:\Users\Lois\AppData\Local\Temp\ccKtkImJ.s 			page 21


 945              		.loc 1 192 0
 946 002a FB79     		ldrb	r3, [r7, #7]	@ zero_extendqisi2
 947 002c 9BB2     		uxth	r3, r3
 948 002e 0233     		adds	r3, r3, #2
 949 0030 9BB2     		uxth	r3, r3
 950 0032 1846     		mov	r0, r3
 951 0034 FFF7FEFF 		bl	EEPROM_ReadByte
 952 0038 0346     		mov	r3, r0
 953 003a BB72     		strb	r3, [r7, #10]
 193:.\memory.c    ****     k[3] = EEPROM_ReadByte(startAdress+3);
 954              		.loc 1 193 0
 955 003c FB79     		ldrb	r3, [r7, #7]	@ zero_extendqisi2
 956 003e 9BB2     		uxth	r3, r3
 957 0040 0333     		adds	r3, r3, #3
 958 0042 9BB2     		uxth	r3, r3
 959 0044 1846     		mov	r0, r3
 960 0046 FFF7FEFF 		bl	EEPROM_ReadByte
 961 004a 0346     		mov	r3, r0
 962 004c FB72     		strb	r3, [r7, #11]
 194:.\memory.c    ****     
 195:.\memory.c    ****     memcpy(&value, k, sizeof(int));
 963              		.loc 1 195 0
 964 004e 07F10C02 		add	r2, r7, #12
 965 0052 07F10803 		add	r3, r7, #8
 966 0056 1046     		mov	r0, r2
 967 0058 1946     		mov	r1, r3
 968 005a 0422     		movs	r2, #4
 969 005c FFF7FEFF 		bl	memcpy
 196:.\memory.c    ****     
 197:.\memory.c    ****     return value;
 970              		.loc 1 197 0
 971 0060 FB68     		ldr	r3, [r7, #12]
 198:.\memory.c    **** }
 972              		.loc 1 198 0
 973 0062 1846     		mov	r0, r3
 974 0064 1037     		adds	r7, r7, #16
 975              		.cfi_def_cfa_offset 8
 976 0066 BD46     		mov	sp, r7
 977              		.cfi_def_cfa_register 13
 978              		@ sp needed
 979 0068 80BD     		pop	{r7, pc}
 980              		.cfi_endproc
 981              	.LFE72:
 982              		.size	loadINT, .-loadINT
 983 006a 00BF     		.text
 984              	.Letext0:
 985              		.file 2 "c:\\program files (x86)\\cypress\\psoc creator\\3.3\\psoc creator\\import\\gnu\\arm\\4.9.
 986              		.file 3 "c:\\program files (x86)\\cypress\\psoc creator\\3.3\\psoc creator\\import\\gnu\\arm\\4.9.
 987              		.file 4 "Generated_Source\\PSoC5/cytypes.h"
 988              		.file 5 "Generated_Source\\PSoC5/core_cm3.h"