ARM GAS  C:\Users\plod1602\AppData\Local\Temp\ccH3HTbW.s 			page 1


   1              		.syntax unified
   2              		.cpu cortex-m3
   3              		.fpu softvfp
   4              		.eabi_attribute 20, 1
   5              		.eabi_attribute 21, 1
   6              		.eabi_attribute 23, 3
   7              		.eabi_attribute 24, 1
   8              		.eabi_attribute 25, 1
   9              		.eabi_attribute 26, 1
  10              		.eabi_attribute 30, 6
  11              		.eabi_attribute 34, 1
  12              		.eabi_attribute 18, 4
  13              		.thumb
  14              		.file	"PeltierCalibration.c"
  15              		.text
  16              	.Ltext0:
  17              		.cfi_sections	.debug_frame
  18              		.comm	targetTemp,8,8
  19              		.comm	eepromStatus,4,4
  20              		.section	.rodata
  21              		.align	2
  22              		.type	eepromArray, %object
  23              		.size	eepromArray, 500
  24              	eepromArray:
  25 0000 00000000 		.space	500
  25      00000000 
  25      00000000 
  25      00000000 
  25      00000000 
  26              		.align	2
  27              		.type	SM1eepromArray, %object
  28              		.size	SM1eepromArray, 300
  29              	SM1eepromArray:
  30 01f4 00000000 		.space	300
  30      00000000 
  30      00000000 
  30      00000000 
  30      00000000 
  31              		.align	2
  32              		.type	SM2eepromArray, %object
  33              		.size	SM2eepromArray, 300
  34              	SM2eepromArray:
  35 0320 00000000 		.space	300
  35      00000000 
  35      00000000 
  35      00000000 
  35      00000000 
  36              		.section	.text.validateEEPROM,"ax",%progbits
  37              		.align	2
  38              		.global	validateEEPROM
  39              		.thumb
  40              		.thumb_func
  41              		.type	validateEEPROM, %function
  42              	validateEEPROM:
  43              	.LFB56:
  44              		.file 1 ".\\PeltierCalibration.c"
   1:.\PeltierCalibration.c **** /* ========================================
ARM GAS  C:\Users\plod1602\AppData\Local\Temp\ccH3HTbW.s 			page 2


   2:.\PeltierCalibration.c ****  *
   3:.\PeltierCalibration.c ****  * Copyright YOUR COMPANY, THE YEAR
   4:.\PeltierCalibration.c ****  * All Rights Reserved
   5:.\PeltierCalibration.c ****  * UNPUBLISHED, LICENSED SOFTWARE.
   6:.\PeltierCalibration.c ****  *
   7:.\PeltierCalibration.c ****  * CONFIDENTIAL AND PROPRIETARY INFORMATION
   8:.\PeltierCalibration.c ****  * WHICH IS THE PROPERTY OF your company.
   9:.\PeltierCalibration.c ****  *
  10:.\PeltierCalibration.c ****  * ========================================
  11:.\PeltierCalibration.c **** */
  12:.\PeltierCalibration.c **** #include <PeltierCalibration.h>
  13:.\PeltierCalibration.c **** double targetTemp;          // variable containing TAC target temperature
  14:.\PeltierCalibration.c **** cystatus eepromStatus;
  15:.\PeltierCalibration.c **** static const uint8 eepromArray[(5*CALIBRATION_TABLE_SIZE)] = {0};
  16:.\PeltierCalibration.c **** // The calibration tables are organized like so : LSB first -> [3*i] = LSB, [3*i+1] = MSB, [3*i+2]=
  17:.\PeltierCalibration.c **** static const uint8 SM1eepromArray[(3*CALIBRATION_TABLE_SIZE)] = {0};
  18:.\PeltierCalibration.c **** static const uint8 SM2eepromArray[(3*CALIBRATION_TABLE_SIZE)] = {0};
  19:.\PeltierCalibration.c **** 
  20:.\PeltierCalibration.c **** 
  21:.\PeltierCalibration.c **** 
  22:.\PeltierCalibration.c **** 
  23:.\PeltierCalibration.c **** void validateEEPROM(int subModuleId)
  24:.\PeltierCalibration.c **** {
  45              		.loc 1 24 0
  46              		.cfi_startproc
  47              		@ args = 0, pretend = 0, frame = 16
  48              		@ frame_needed = 1, uses_anonymous_args = 0
  49 0000 80B5     		push	{r7, lr}
  50              		.cfi_def_cfa_offset 8
  51              		.cfi_offset 7, -8
  52              		.cfi_offset 14, -4
  53 0002 84B0     		sub	sp, sp, #16
  54              		.cfi_def_cfa_offset 24
  55 0004 00AF     		add	r7, sp, #0
  56              		.cfi_def_cfa_register 7
  57 0006 7860     		str	r0, [r7, #4]
  25:.\PeltierCalibration.c ****     int i;
  26:.\PeltierCalibration.c ****     
  27:.\PeltierCalibration.c ****     if (subModuleId == SubModule1_ID)
  58              		.loc 1 27 0
  59 0008 7B68     		ldr	r3, [r7, #4]
  60 000a 012B     		cmp	r3, #1
  61 000c 1DD1     		bne	.L2
  28:.\PeltierCalibration.c ****     {
  29:.\PeltierCalibration.c ****         for (i=0; i<10; i++)
  62              		.loc 1 29 0
  63 000e 0023     		movs	r3, #0
  64 0010 FB60     		str	r3, [r7, #12]
  65 0012 16E0     		b	.L3
  66              	.L5:
  30:.\PeltierCalibration.c ****         {
  31:.\PeltierCalibration.c ****             if (SM1calibrationValues[i] != 0)
  67              		.loc 1 31 0
  68 0014 204A     		ldr	r2, .L10
  69 0016 FB68     		ldr	r3, [r7, #12]
  70 0018 32F81330 		ldrh	r3, [r2, r3, lsl #1]
  71 001c 002B     		cmp	r3, #0
ARM GAS  C:\Users\plod1602\AppData\Local\Temp\ccH3HTbW.s 			page 3


  72 001e 0DD0     		beq	.L4
  32:.\PeltierCalibration.c ****             {            
  33:.\PeltierCalibration.c ****                 Blue_LED_Write(1u);
  73              		.loc 1 33 0
  74 0020 0120     		movs	r0, #1
  75 0022 FFF7FEFF 		bl	Blue_LED_Write
  34:.\PeltierCalibration.c ****                 CyDelay(300);
  76              		.loc 1 34 0
  77 0026 4FF49670 		mov	r0, #300
  78 002a FFF7FEFF 		bl	CyDelay
  35:.\PeltierCalibration.c ****                 Blue_LED_Write(0u);
  79              		.loc 1 35 0
  80 002e 0020     		movs	r0, #0
  81 0030 FFF7FEFF 		bl	Blue_LED_Write
  36:.\PeltierCalibration.c ****                 CyDelay(300); 
  82              		.loc 1 36 0
  83 0034 4FF49670 		mov	r0, #300
  84 0038 FFF7FEFF 		bl	CyDelay
  85              	.L4:
  29:.\PeltierCalibration.c ****         {
  86              		.loc 1 29 0 discriminator 2
  87 003c FB68     		ldr	r3, [r7, #12]
  88 003e 0133     		adds	r3, r3, #1
  89 0040 FB60     		str	r3, [r7, #12]
  90              	.L3:
  29:.\PeltierCalibration.c ****         {
  91              		.loc 1 29 0 is_stmt 0 discriminator 1
  92 0042 FB68     		ldr	r3, [r7, #12]
  93 0044 092B     		cmp	r3, #9
  94 0046 E5DD     		ble	.L5
  95 0048 1FE0     		b	.L6
  96              	.L2:
  37:.\PeltierCalibration.c ****             }
  38:.\PeltierCalibration.c ****         }
  39:.\PeltierCalibration.c ****     }
  40:.\PeltierCalibration.c ****     else if(subModuleId == SubModule2_ID)
  97              		.loc 1 40 0 is_stmt 1
  98 004a 7B68     		ldr	r3, [r7, #4]
  99 004c 022B     		cmp	r3, #2
 100 004e 1CD1     		bne	.L6
  41:.\PeltierCalibration.c ****     {
  42:.\PeltierCalibration.c ****         for (i=0; i<10; i++)
 101              		.loc 1 42 0
 102 0050 0023     		movs	r3, #0
 103 0052 FB60     		str	r3, [r7, #12]
 104 0054 16E0     		b	.L7
 105              	.L9:
  43:.\PeltierCalibration.c ****         {
  44:.\PeltierCalibration.c ****             if (SM2calibrationValues[i] != 0)
 106              		.loc 1 44 0
 107 0056 114A     		ldr	r2, .L10+4
 108 0058 FB68     		ldr	r3, [r7, #12]
 109 005a 32F81330 		ldrh	r3, [r2, r3, lsl #1]
 110 005e 002B     		cmp	r3, #0
 111 0060 0DD0     		beq	.L8
  45:.\PeltierCalibration.c ****             {            
  46:.\PeltierCalibration.c ****                 Blue_LED_Write(1u);
ARM GAS  C:\Users\plod1602\AppData\Local\Temp\ccH3HTbW.s 			page 4


 112              		.loc 1 46 0
 113 0062 0120     		movs	r0, #1
 114 0064 FFF7FEFF 		bl	Blue_LED_Write
  47:.\PeltierCalibration.c ****                 CyDelay(300);
 115              		.loc 1 47 0
 116 0068 4FF49670 		mov	r0, #300
 117 006c FFF7FEFF 		bl	CyDelay
  48:.\PeltierCalibration.c ****                 Blue_LED_Write(0u);
 118              		.loc 1 48 0
 119 0070 0020     		movs	r0, #0
 120 0072 FFF7FEFF 		bl	Blue_LED_Write
  49:.\PeltierCalibration.c ****                 CyDelay(300); 
 121              		.loc 1 49 0
 122 0076 4FF49670 		mov	r0, #300
 123 007a FFF7FEFF 		bl	CyDelay
 124              	.L8:
  42:.\PeltierCalibration.c ****         {
 125              		.loc 1 42 0 discriminator 2
 126 007e FB68     		ldr	r3, [r7, #12]
 127 0080 0133     		adds	r3, r3, #1
 128 0082 FB60     		str	r3, [r7, #12]
 129              	.L7:
  42:.\PeltierCalibration.c ****         {
 130              		.loc 1 42 0 is_stmt 0 discriminator 1
 131 0084 FB68     		ldr	r3, [r7, #12]
 132 0086 092B     		cmp	r3, #9
 133 0088 E5DD     		ble	.L9
 134              	.L6:
  50:.\PeltierCalibration.c ****             }
  51:.\PeltierCalibration.c ****         }  
  52:.\PeltierCalibration.c ****     }
  53:.\PeltierCalibration.c **** 
  54:.\PeltierCalibration.c ****     CyDelay(1000);
 135              		.loc 1 54 0 is_stmt 1
 136 008a 4FF47A70 		mov	r0, #1000
 137 008e FFF7FEFF 		bl	CyDelay
  55:.\PeltierCalibration.c **** }
 138              		.loc 1 55 0
 139 0092 1037     		adds	r7, r7, #16
 140              		.cfi_def_cfa_offset 8
 141 0094 BD46     		mov	sp, r7
 142              		.cfi_def_cfa_register 13
 143              		@ sp needed
 144 0096 80BD     		pop	{r7, pc}
 145              	.L11:
 146              		.align	2
 147              	.L10:
 148 0098 00000000 		.word	SM1calibrationValues
 149 009c 00000000 		.word	SM2calibrationValues
 150              		.cfi_endproc
 151              	.LFE56:
 152              		.size	validateEEPROM, .-validateEEPROM
 153              		.section	.text.getCalibrationTable,"ax",%progbits
 154              		.align	2
 155              		.global	getCalibrationTable
 156              		.thumb
 157              		.thumb_func
ARM GAS  C:\Users\plod1602\AppData\Local\Temp\ccH3HTbW.s 			page 5


 158              		.type	getCalibrationTable, %function
 159              	getCalibrationTable:
 160              	.LFB57:
  56:.\PeltierCalibration.c **** 
  57:.\PeltierCalibration.c **** //* Used to read calibration table from EEPROM */
  58:.\PeltierCalibration.c **** //Return 1 if data is present in the calibration table in the EEPROM, 0 otherwise.
  59:.\PeltierCalibration.c **** boolean getCalibrationTable(Tac_Submodule* TACPtr)
  60:.\PeltierCalibration.c **** {
 161              		.loc 1 60 0
 162              		.cfi_startproc
 163              		@ args = 0, pretend = 0, frame = 24
 164              		@ frame_needed = 1, uses_anonymous_args = 0
 165              		@ link register save eliminated.
 166 0000 80B4     		push	{r7}
 167              		.cfi_def_cfa_offset 4
 168              		.cfi_offset 7, -4
 169 0002 87B0     		sub	sp, sp, #28
 170              		.cfi_def_cfa_offset 32
 171 0004 00AF     		add	r7, sp, #0
 172              		.cfi_def_cfa_register 7
 173 0006 7860     		str	r0, [r7, #4]
  61:.\PeltierCalibration.c ****     int i=0;
 174              		.loc 1 61 0
 175 0008 0023     		movs	r3, #0
 176 000a 7B61     		str	r3, [r7, #20]
  62:.\PeltierCalibration.c ****     
  63:.\PeltierCalibration.c ****     if (TACPtr->subModuleId == SubModule1_ID)
 177              		.loc 1 63 0
 178 000c 7B68     		ldr	r3, [r7, #4]
 179 000e 1B88     		ldrh	r3, [r3]
 180 0010 012B     		cmp	r3, #1
 181 0012 35D1     		bne	.L13
 182              	.LBB2:
  64:.\PeltierCalibration.c ****     {
  65:.\PeltierCalibration.c ****         volatile const uint8* array1 = (volatile uint8 *) &SM1eepromArray[0]; // array1 devrait poi
 183              		.loc 1 65 0
 184 0014 484B     		ldr	r3, .L21
 185 0016 3B61     		str	r3, [r7, #16]
  66:.\PeltierCalibration.c ****         for(i = 0; i<CALIBRATION_TABLE_SIZE; i++)
 186              		.loc 1 66 0
 187 0018 0023     		movs	r3, #0
 188 001a 7B61     		str	r3, [r7, #20]
 189 001c 2CE0     		b	.L14
 190              	.L15:
  67:.\PeltierCalibration.c ****         {
  68:.\PeltierCalibration.c ****             SM1calibrationValues[i] = (int16)((array1[(3*i)+1] << 8) | array1[(3*i)]); 
 191              		.loc 1 68 0 discriminator 3
 192 001e 7A69     		ldr	r2, [r7, #20]
 193 0020 1346     		mov	r3, r2
 194 0022 5B00     		lsls	r3, r3, #1
 195 0024 1344     		add	r3, r3, r2
 196 0026 0133     		adds	r3, r3, #1
 197 0028 3A69     		ldr	r2, [r7, #16]
 198 002a 1344     		add	r3, r3, r2
 199 002c 1B78     		ldrb	r3, [r3]
 200 002e DBB2     		uxtb	r3, r3
 201 0030 1B02     		lsls	r3, r3, #8
ARM GAS  C:\Users\plod1602\AppData\Local\Temp\ccH3HTbW.s 			page 6


 202 0032 99B2     		uxth	r1, r3
 203 0034 7A69     		ldr	r2, [r7, #20]
 204 0036 1346     		mov	r3, r2
 205 0038 5B00     		lsls	r3, r3, #1
 206 003a 1344     		add	r3, r3, r2
 207 003c 1A46     		mov	r2, r3
 208 003e 3B69     		ldr	r3, [r7, #16]
 209 0040 1344     		add	r3, r3, r2
 210 0042 1B78     		ldrb	r3, [r3]
 211 0044 DBB2     		uxtb	r3, r3
 212 0046 9BB2     		uxth	r3, r3
 213 0048 0A46     		mov	r2, r1	@ movhi
 214 004a 1343     		orrs	r3, r3, r2
 215 004c 99B2     		uxth	r1, r3
 216 004e 3B4A     		ldr	r2, .L21+4
 217 0050 7B69     		ldr	r3, [r7, #20]
 218 0052 22F81310 		strh	r1, [r2, r3, lsl #1]	@ movhi
  69:.\PeltierCalibration.c ****             SM1percentageValues[i] = (int8)array1[3*i+2]; 
 219              		.loc 1 69 0 discriminator 3
 220 0056 7A69     		ldr	r2, [r7, #20]
 221 0058 1346     		mov	r3, r2
 222 005a 5B00     		lsls	r3, r3, #1
 223 005c 1344     		add	r3, r3, r2
 224 005e 0233     		adds	r3, r3, #2
 225 0060 3A69     		ldr	r2, [r7, #16]
 226 0062 1344     		add	r3, r3, r2
 227 0064 1B78     		ldrb	r3, [r3]
 228 0066 D9B2     		uxtb	r1, r3
 229 0068 354A     		ldr	r2, .L21+8
 230 006a 7B69     		ldr	r3, [r7, #20]
 231 006c 1344     		add	r3, r3, r2
 232 006e 0A46     		mov	r2, r1
 233 0070 1A70     		strb	r2, [r3]
  66:.\PeltierCalibration.c ****         for(i = 0; i<CALIBRATION_TABLE_SIZE; i++)
 234              		.loc 1 66 0 discriminator 3
 235 0072 7B69     		ldr	r3, [r7, #20]
 236 0074 0133     		adds	r3, r3, #1
 237 0076 7B61     		str	r3, [r7, #20]
 238              	.L14:
  66:.\PeltierCalibration.c ****         for(i = 0; i<CALIBRATION_TABLE_SIZE; i++)
 239              		.loc 1 66 0 is_stmt 0 discriminator 1
 240 0078 7B69     		ldr	r3, [r7, #20]
 241 007a 632B     		cmp	r3, #99
 242 007c CFDD     		ble	.L15
 243              	.LBE2:
 244 007e 38E0     		b	.L16
 245              	.L13:
  70:.\PeltierCalibration.c ****         }
  71:.\PeltierCalibration.c ****     }
  72:.\PeltierCalibration.c ****     else if (TACPtr->subModuleId == SubModule2_ID)
 246              		.loc 1 72 0 is_stmt 1
 247 0080 7B68     		ldr	r3, [r7, #4]
 248 0082 1B88     		ldrh	r3, [r3]
 249 0084 022B     		cmp	r3, #2
 250 0086 34D1     		bne	.L16
 251              	.LBB3:
  73:.\PeltierCalibration.c ****     {
ARM GAS  C:\Users\plod1602\AppData\Local\Temp\ccH3HTbW.s 			page 7


  74:.\PeltierCalibration.c ****         volatile const uint8* array1 = (volatile uint8 *) &SM2eepromArray[0]; // array1 devrait poi
 252              		.loc 1 74 0
 253 0088 2E4B     		ldr	r3, .L21+12
 254 008a FB60     		str	r3, [r7, #12]
  75:.\PeltierCalibration.c ****         for(i = 0; i<CALIBRATION_TABLE_SIZE; i++)
 255              		.loc 1 75 0
 256 008c 0023     		movs	r3, #0
 257 008e 7B61     		str	r3, [r7, #20]
 258 0090 2CE0     		b	.L17
 259              	.L18:
  76:.\PeltierCalibration.c ****         {
  77:.\PeltierCalibration.c ****             SM2calibrationValues[i] = (int16)((array1[(3*i)+1] << 8) | array1[(3*i)]);
 260              		.loc 1 77 0 discriminator 3
 261 0092 7A69     		ldr	r2, [r7, #20]
 262 0094 1346     		mov	r3, r2
 263 0096 5B00     		lsls	r3, r3, #1
 264 0098 1344     		add	r3, r3, r2
 265 009a 0133     		adds	r3, r3, #1
 266 009c FA68     		ldr	r2, [r7, #12]
 267 009e 1344     		add	r3, r3, r2
 268 00a0 1B78     		ldrb	r3, [r3]
 269 00a2 DBB2     		uxtb	r3, r3
 270 00a4 1B02     		lsls	r3, r3, #8
 271 00a6 99B2     		uxth	r1, r3
 272 00a8 7A69     		ldr	r2, [r7, #20]
 273 00aa 1346     		mov	r3, r2
 274 00ac 5B00     		lsls	r3, r3, #1
 275 00ae 1344     		add	r3, r3, r2
 276 00b0 1A46     		mov	r2, r3
 277 00b2 FB68     		ldr	r3, [r7, #12]
 278 00b4 1344     		add	r3, r3, r2
 279 00b6 1B78     		ldrb	r3, [r3]
 280 00b8 DBB2     		uxtb	r3, r3
 281 00ba 9BB2     		uxth	r3, r3
 282 00bc 0A46     		mov	r2, r1	@ movhi
 283 00be 1343     		orrs	r3, r3, r2
 284 00c0 99B2     		uxth	r1, r3
 285 00c2 214A     		ldr	r2, .L21+16
 286 00c4 7B69     		ldr	r3, [r7, #20]
 287 00c6 22F81310 		strh	r1, [r2, r3, lsl #1]	@ movhi
  78:.\PeltierCalibration.c ****             SM2percentageValues[i] = (int8)array1[3*i+2]; 
 288              		.loc 1 78 0 discriminator 3
 289 00ca 7A69     		ldr	r2, [r7, #20]
 290 00cc 1346     		mov	r3, r2
 291 00ce 5B00     		lsls	r3, r3, #1
 292 00d0 1344     		add	r3, r3, r2
 293 00d2 0233     		adds	r3, r3, #2
 294 00d4 FA68     		ldr	r2, [r7, #12]
 295 00d6 1344     		add	r3, r3, r2
 296 00d8 1B78     		ldrb	r3, [r3]
 297 00da D9B2     		uxtb	r1, r3
 298 00dc 1B4A     		ldr	r2, .L21+20
 299 00de 7B69     		ldr	r3, [r7, #20]
 300 00e0 1344     		add	r3, r3, r2
 301 00e2 0A46     		mov	r2, r1
 302 00e4 1A70     		strb	r2, [r3]
  75:.\PeltierCalibration.c ****         for(i = 0; i<CALIBRATION_TABLE_SIZE; i++)
ARM GAS  C:\Users\plod1602\AppData\Local\Temp\ccH3HTbW.s 			page 8


 303              		.loc 1 75 0 discriminator 3
 304 00e6 7B69     		ldr	r3, [r7, #20]
 305 00e8 0133     		adds	r3, r3, #1
 306 00ea 7B61     		str	r3, [r7, #20]
 307              	.L17:
  75:.\PeltierCalibration.c ****         for(i = 0; i<CALIBRATION_TABLE_SIZE; i++)
 308              		.loc 1 75 0 is_stmt 0 discriminator 1
 309 00ec 7B69     		ldr	r3, [r7, #20]
 310 00ee 632B     		cmp	r3, #99
 311 00f0 CFDD     		ble	.L18
 312              	.L16:
 313              	.LBE3:
  79:.\PeltierCalibration.c ****         }   
  80:.\PeltierCalibration.c ****     }  
  81:.\PeltierCalibration.c ****     // If the 3 first values from the EEPROM are null, the calibration was never done.
  82:.\PeltierCalibration.c ****     if ((TACPtr->calibrationValuesPtr[0] == 0) && (TACPtr->calibrationValuesPtr[1] == 0) && (TACPtr
 314              		.loc 1 82 0 is_stmt 1
 315 00f2 7B68     		ldr	r3, [r7, #4]
 316 00f4 DB69     		ldr	r3, [r3, #28]
 317 00f6 1B88     		ldrh	r3, [r3]
 318 00f8 002B     		cmp	r3, #0
 319 00fa 11D1     		bne	.L19
 320              		.loc 1 82 0 is_stmt 0 discriminator 1
 321 00fc 7B68     		ldr	r3, [r7, #4]
 322 00fe DB69     		ldr	r3, [r3, #28]
 323 0100 0233     		adds	r3, r3, #2
 324 0102 1B88     		ldrh	r3, [r3]
 325 0104 002B     		cmp	r3, #0
 326 0106 0BD1     		bne	.L19
 327              		.loc 1 82 0 discriminator 2
 328 0108 7B68     		ldr	r3, [r7, #4]
 329 010a DB69     		ldr	r3, [r3, #28]
 330 010c 0433     		adds	r3, r3, #4
 331 010e 1B88     		ldrh	r3, [r3]
 332 0110 002B     		cmp	r3, #0
 333 0112 05D1     		bne	.L19
  83:.\PeltierCalibration.c ****     {
  84:.\PeltierCalibration.c ****         TACPtr->areCalibrationValuesRetrieved = False;
 334              		.loc 1 84 0 is_stmt 1
 335 0114 7B68     		ldr	r3, [r7, #4]
 336 0116 0022     		movs	r2, #0
 337 0118 83F82420 		strb	r2, [r3, #36]
  85:.\PeltierCalibration.c ****         return 0;
 338              		.loc 1 85 0
 339 011c 0023     		movs	r3, #0
 340 011e 04E0     		b	.L20
 341              	.L19:
  86:.\PeltierCalibration.c ****     }
  87:.\PeltierCalibration.c ****     else
  88:.\PeltierCalibration.c ****     {
  89:.\PeltierCalibration.c ****         TACPtr->areCalibrationValuesRetrieved = True;
 342              		.loc 1 89 0
 343 0120 7B68     		ldr	r3, [r7, #4]
 344 0122 0122     		movs	r2, #1
 345 0124 83F82420 		strb	r2, [r3, #36]
  90:.\PeltierCalibration.c ****         return 1;
 346              		.loc 1 90 0
ARM GAS  C:\Users\plod1602\AppData\Local\Temp\ccH3HTbW.s 			page 9


 347 0128 0123     		movs	r3, #1
 348              	.L20:
  91:.\PeltierCalibration.c ****     }
  92:.\PeltierCalibration.c ****     /*
  93:.\PeltierCalibration.c ****     volatile const uint8* array1 = (volatile uint8 *) &eepromArray[0]; // array1 devrait pointer ve
  94:.\PeltierCalibration.c ****    
  95:.\PeltierCalibration.c ****     int i=0;
  96:.\PeltierCalibration.c ****     for(i = 0; i<CALIBRATION_TABLE_SIZE; i++)
  97:.\PeltierCalibration.c ****     {       
  98:.\PeltierCalibration.c ****         SM1calibrationValues[i] = (int)(array1[(5*i)+3] << 24) | (array1[(5*i)+2] << 16) | (array1[
  99:.\PeltierCalibration.c ****         SM1percentageValues[i] = (int8)array1[5*i+4];
 100:.\PeltierCalibration.c ****     }
 101:.\PeltierCalibration.c ****     
 102:.\PeltierCalibration.c ****     // If the two first values from the EEPROM are null, the calibration was never done.
 103:.\PeltierCalibration.c ****     if ((SM1calibrationValues[0] == 0) & (SM1calibrationValues[1] == 0))
 104:.\PeltierCalibration.c ****         return 0;
 105:.\PeltierCalibration.c ****     else
 106:.\PeltierCalibration.c ****         return 1;  
 107:.\PeltierCalibration.c ****     */
 108:.\PeltierCalibration.c **** }
 349              		.loc 1 108 0
 350 012a 1846     		mov	r0, r3
 351 012c 1C37     		adds	r7, r7, #28
 352              		.cfi_def_cfa_offset 4
 353 012e BD46     		mov	sp, r7
 354              		.cfi_def_cfa_register 13
 355              		@ sp needed
 356 0130 5DF8047B 		ldr	r7, [sp], #4
 357              		.cfi_restore 7
 358              		.cfi_def_cfa_offset 0
 359 0134 7047     		bx	lr
 360              	.L22:
 361 0136 00BF     		.align	2
 362              	.L21:
 363 0138 F4010000 		.word	SM1eepromArray
 364 013c 00000000 		.word	SM1calibrationValues
 365 0140 00000000 		.word	SM1percentageValues
 366 0144 20030000 		.word	SM2eepromArray
 367 0148 00000000 		.word	SM2calibrationValues
 368 014c 00000000 		.word	SM2percentageValues
 369              		.cfi_endproc
 370              	.LFE57:
 371              		.size	getCalibrationTable, .-getCalibrationTable
 372              		.section	.text.setCalibrationTable,"ax",%progbits
 373              		.align	2
 374              		.global	setCalibrationTable
 375              		.thumb
 376              		.thumb_func
 377              		.type	setCalibrationTable, %function
 378              	setCalibrationTable:
 379              	.LFB58:
 109:.\PeltierCalibration.c **** //* Used to set calibration table from EEPROM */
 110:.\PeltierCalibration.c **** void setCalibrationTable(Tac_Submodule* TACPtr)
 111:.\PeltierCalibration.c **** {    
 380              		.loc 1 111 0
 381              		.cfi_startproc
 382              		@ args = 0, pretend = 0, frame = 320
ARM GAS  C:\Users\plod1602\AppData\Local\Temp\ccH3HTbW.s 			page 10


 383              		@ frame_needed = 1, uses_anonymous_args = 0
 384 0000 80B5     		push	{r7, lr}
 385              		.cfi_def_cfa_offset 8
 386              		.cfi_offset 7, -8
 387              		.cfi_offset 14, -4
 388 0002 D0B0     		sub	sp, sp, #320
 389              		.cfi_def_cfa_offset 328
 390 0004 00AF     		add	r7, sp, #0
 391              		.cfi_def_cfa_register 7
 392 0006 3B1D     		adds	r3, r7, #4
 393 0008 1860     		str	r0, [r3]
 112:.\PeltierCalibration.c ****     int i = 0;
 394              		.loc 1 112 0
 395 000a 0023     		movs	r3, #0
 396 000c C7F83C31 		str	r3, [r7, #316]
 113:.\PeltierCalibration.c ****     uint8_t *array1;
 114:.\PeltierCalibration.c ****     
 115:.\PeltierCalibration.c ****     uint8 tempTemperatureAndPercentageArray[3*CALIBRATION_TABLE_SIZE] = {0}; // 4 bytes of temperat
 397              		.loc 1 115 0
 398 0010 07F10C03 		add	r3, r7, #12
 399 0014 1A46     		mov	r2, r3
 400 0016 4FF49673 		mov	r3, #300
 401 001a 1046     		mov	r0, r2
 402 001c 0021     		movs	r1, #0
 403 001e 1A46     		mov	r2, r3
 404 0020 FFF7FEFF 		bl	memset
 116:.\PeltierCalibration.c ****     
 117:.\PeltierCalibration.c ****     if (TACPtr->subModuleId == SubModule1_ID)
 405              		.loc 1 117 0
 406 0024 3B1D     		adds	r3, r7, #4
 407 0026 1B68     		ldr	r3, [r3]
 408 0028 1B88     		ldrh	r3, [r3]
 409 002a 012B     		cmp	r3, #1
 410 002c 44D1     		bne	.L24
 118:.\PeltierCalibration.c ****     {
 119:.\PeltierCalibration.c ****         for(i=0; i<CALIBRATION_TABLE_SIZE; i++)
 411              		.loc 1 119 0
 412 002e 0023     		movs	r3, #0
 413 0030 C7F83C31 		str	r3, [r7, #316]
 414 0034 30E0     		b	.L25
 415              	.L26:
 120:.\PeltierCalibration.c ****         {
 121:.\PeltierCalibration.c ****             array1 = (uint8_t*)(&SM1calibrationValues[i]);
 416              		.loc 1 121 0 discriminator 3
 417 0036 D7F83C31 		ldr	r3, [r7, #316]
 418 003a 5B00     		lsls	r3, r3, #1
 419 003c 454A     		ldr	r2, .L30
 420 003e 1344     		add	r3, r3, r2
 421 0040 C7F83831 		str	r3, [r7, #312]
 122:.\PeltierCalibration.c ****             tempTemperatureAndPercentageArray[3*i] = array1[0];     // LSB
 422              		.loc 1 122 0 discriminator 3
 423 0044 D7F83C21 		ldr	r2, [r7, #316]
 424 0048 1346     		mov	r3, r2
 425 004a 5B00     		lsls	r3, r3, #1
 426 004c 1344     		add	r3, r3, r2
 427 004e D7F83821 		ldr	r2, [r7, #312]
 428 0052 1178     		ldrb	r1, [r2]	@ zero_extendqisi2
ARM GAS  C:\Users\plod1602\AppData\Local\Temp\ccH3HTbW.s 			page 11


 429 0054 07F10C02 		add	r2, r7, #12
 430 0058 D154     		strb	r1, [r2, r3]
 123:.\PeltierCalibration.c ****             tempTemperatureAndPercentageArray[(3*i)+1] = array1[1]; // MSB
 431              		.loc 1 123 0 discriminator 3
 432 005a D7F83C21 		ldr	r2, [r7, #316]
 433 005e 1346     		mov	r3, r2
 434 0060 5B00     		lsls	r3, r3, #1
 435 0062 1344     		add	r3, r3, r2
 436 0064 0133     		adds	r3, r3, #1
 437 0066 D7F83821 		ldr	r2, [r7, #312]
 438 006a 5178     		ldrb	r1, [r2, #1]	@ zero_extendqisi2
 439 006c 07F10C02 		add	r2, r7, #12
 440 0070 D154     		strb	r1, [r2, r3]
 124:.\PeltierCalibration.c ****             tempTemperatureAndPercentageArray[(3*i)+2] = (uint8)SM1percentageValues[i]; // Storing 
 441              		.loc 1 124 0 discriminator 3
 442 0072 D7F83C21 		ldr	r2, [r7, #316]
 443 0076 1346     		mov	r3, r2
 444 0078 5B00     		lsls	r3, r3, #1
 445 007a 1344     		add	r3, r3, r2
 446 007c 0233     		adds	r3, r3, #2
 447 007e 3649     		ldr	r1, .L30+4
 448 0080 D7F83C21 		ldr	r2, [r7, #316]
 449 0084 0A44     		add	r2, r2, r1
 450 0086 1178     		ldrb	r1, [r2]	@ zero_extendqisi2
 451 0088 07F10C02 		add	r2, r7, #12
 452 008c D154     		strb	r1, [r2, r3]
 119:.\PeltierCalibration.c ****         {
 453              		.loc 1 119 0 discriminator 3
 454 008e D7F83C31 		ldr	r3, [r7, #316]
 455 0092 0133     		adds	r3, r3, #1
 456 0094 C7F83C31 		str	r3, [r7, #316]
 457              	.L25:
 119:.\PeltierCalibration.c ****         {
 458              		.loc 1 119 0 is_stmt 0 discriminator 1
 459 0098 D7F83C31 		ldr	r3, [r7, #316]
 460 009c 632B     		cmp	r3, #99
 461 009e CADD     		ble	.L26
 125:.\PeltierCalibration.c ****         }
 126:.\PeltierCalibration.c ****         eepromStatus = Em_EEPROM_Write(&tempTemperatureAndPercentageArray[0], &SM1eepromArray[0], 3
 462              		.loc 1 126 0 is_stmt 1
 463 00a0 07F10C03 		add	r3, r7, #12
 464 00a4 1846     		mov	r0, r3
 465 00a6 2D49     		ldr	r1, .L30+8
 466 00a8 4FF49672 		mov	r2, #300
 467 00ac FFF7FEFF 		bl	Em_EEPROM_Write
 468 00b0 0246     		mov	r2, r0
 469 00b2 2B4B     		ldr	r3, .L30+12
 470 00b4 1A60     		str	r2, [r3]
 471 00b6 48E0     		b	.L23
 472              	.L24:
 127:.\PeltierCalibration.c ****         }
 128:.\PeltierCalibration.c ****     else if (TACPtr->subModuleId == SubModule2_ID)
 473              		.loc 1 128 0
 474 00b8 3B1D     		adds	r3, r7, #4
 475 00ba 1B68     		ldr	r3, [r3]
 476 00bc 1B88     		ldrh	r3, [r3]
 477 00be 022B     		cmp	r3, #2
ARM GAS  C:\Users\plod1602\AppData\Local\Temp\ccH3HTbW.s 			page 12


 478 00c0 43D1     		bne	.L23
 129:.\PeltierCalibration.c ****     {
 130:.\PeltierCalibration.c ****         for(i=0; i<CALIBRATION_TABLE_SIZE; i++)
 479              		.loc 1 130 0
 480 00c2 0023     		movs	r3, #0
 481 00c4 C7F83C31 		str	r3, [r7, #316]
 482 00c8 30E0     		b	.L28
 483              	.L29:
 131:.\PeltierCalibration.c ****         {
 132:.\PeltierCalibration.c ****             array1 = (uint8_t*)(&SM2calibrationValues[i]);
 484              		.loc 1 132 0 discriminator 3
 485 00ca D7F83C31 		ldr	r3, [r7, #316]
 486 00ce 5B00     		lsls	r3, r3, #1
 487 00d0 244A     		ldr	r2, .L30+16
 488 00d2 1344     		add	r3, r3, r2
 489 00d4 C7F83831 		str	r3, [r7, #312]
 133:.\PeltierCalibration.c ****             tempTemperatureAndPercentageArray[3*i] = array1[0];     // LSB
 490              		.loc 1 133 0 discriminator 3
 491 00d8 D7F83C21 		ldr	r2, [r7, #316]
 492 00dc 1346     		mov	r3, r2
 493 00de 5B00     		lsls	r3, r3, #1
 494 00e0 1344     		add	r3, r3, r2
 495 00e2 D7F83821 		ldr	r2, [r7, #312]
 496 00e6 1178     		ldrb	r1, [r2]	@ zero_extendqisi2
 497 00e8 07F10C02 		add	r2, r7, #12
 498 00ec D154     		strb	r1, [r2, r3]
 134:.\PeltierCalibration.c ****             tempTemperatureAndPercentageArray[(3*i)+1] = array1[1]; // MSB
 499              		.loc 1 134 0 discriminator 3
 500 00ee D7F83C21 		ldr	r2, [r7, #316]
 501 00f2 1346     		mov	r3, r2
 502 00f4 5B00     		lsls	r3, r3, #1
 503 00f6 1344     		add	r3, r3, r2
 504 00f8 0133     		adds	r3, r3, #1
 505 00fa D7F83821 		ldr	r2, [r7, #312]
 506 00fe 5178     		ldrb	r1, [r2, #1]	@ zero_extendqisi2
 507 0100 07F10C02 		add	r2, r7, #12
 508 0104 D154     		strb	r1, [r2, r3]
 135:.\PeltierCalibration.c ****             tempTemperatureAndPercentageArray[(3*i)+2] = (uint8)SM1percentageValues[i]; // Storing 
 509              		.loc 1 135 0 discriminator 3
 510 0106 D7F83C21 		ldr	r2, [r7, #316]
 511 010a 1346     		mov	r3, r2
 512 010c 5B00     		lsls	r3, r3, #1
 513 010e 1344     		add	r3, r3, r2
 514 0110 0233     		adds	r3, r3, #2
 515 0112 1149     		ldr	r1, .L30+4
 516 0114 D7F83C21 		ldr	r2, [r7, #316]
 517 0118 0A44     		add	r2, r2, r1
 518 011a 1178     		ldrb	r1, [r2]	@ zero_extendqisi2
 519 011c 07F10C02 		add	r2, r7, #12
 520 0120 D154     		strb	r1, [r2, r3]
 130:.\PeltierCalibration.c ****         {
 521              		.loc 1 130 0 discriminator 3
 522 0122 D7F83C31 		ldr	r3, [r7, #316]
 523 0126 0133     		adds	r3, r3, #1
 524 0128 C7F83C31 		str	r3, [r7, #316]
 525              	.L28:
 130:.\PeltierCalibration.c ****         {
ARM GAS  C:\Users\plod1602\AppData\Local\Temp\ccH3HTbW.s 			page 13


 526              		.loc 1 130 0 is_stmt 0 discriminator 1
 527 012c D7F83C31 		ldr	r3, [r7, #316]
 528 0130 632B     		cmp	r3, #99
 529 0132 CADD     		ble	.L29
 136:.\PeltierCalibration.c ****         } 
 137:.\PeltierCalibration.c ****         eepromStatus = Em_EEPROM_Write(&tempTemperatureAndPercentageArray[0], &SM2eepromArray[0], 3
 530              		.loc 1 137 0 is_stmt 1
 531 0134 07F10C03 		add	r3, r7, #12
 532 0138 1846     		mov	r0, r3
 533 013a 0B49     		ldr	r1, .L30+20
 534 013c 4FF49672 		mov	r2, #300
 535 0140 FFF7FEFF 		bl	Em_EEPROM_Write
 536 0144 0246     		mov	r2, r0
 537 0146 064B     		ldr	r3, .L30+12
 538 0148 1A60     		str	r2, [r3]
 539              	.L23:
 138:.\PeltierCalibration.c ****     }
 139:.\PeltierCalibration.c ****    
 140:.\PeltierCalibration.c ****     /*
 141:.\PeltierCalibration.c ****     int i = 0;
 142:.\PeltierCalibration.c ****     uint8_t *array1;
 143:.\PeltierCalibration.c ****     
 144:.\PeltierCalibration.c ****     uint8 tempTemperatureAndPercentageArray[5*CALIBRATION_TABLE_SIZE] = {0}; // 4 bytes of temperat
 145:.\PeltierCalibration.c ****     
 146:.\PeltierCalibration.c ****     for(i=0; i<CALIBRATION_TABLE_SIZE; i++)
 147:.\PeltierCalibration.c ****     {
 148:.\PeltierCalibration.c ****         array1 = (uint8_t*)(&SM1calibrationValues[i]);
 149:.\PeltierCalibration.c ****         tempTemperatureAndPercentageArray[5*i] = array1[0];     // LSB
 150:.\PeltierCalibration.c ****         tempTemperatureAndPercentageArray[(5*i)+1] = array1[1]; 
 151:.\PeltierCalibration.c ****         tempTemperatureAndPercentageArray[(5*i)+2] = array1[2];
 152:.\PeltierCalibration.c ****         tempTemperatureAndPercentageArray[(5*i)+3] = array1[3]; // MSB
 153:.\PeltierCalibration.c ****         tempTemperatureAndPercentageArray[(5*i)+4] = (uint8)SM1percentageValues[i]; // Storing a by
 154:.\PeltierCalibration.c ****     }	
 155:.\PeltierCalibration.c **** 	eepromStatus = Em_EEPROM_Write(&tempTemperatureAndPercentageArray[0], &eepromArray[0], 5*CALIBRATI
 156:.\PeltierCalibration.c ****     */
 157:.\PeltierCalibration.c **** }
 540              		.loc 1 157 0
 541 014a 07F5A077 		add	r7, r7, #320
 542              		.cfi_def_cfa_offset 8
 543 014e BD46     		mov	sp, r7
 544              		.cfi_def_cfa_register 13
 545              		@ sp needed
 546 0150 80BD     		pop	{r7, pc}
 547              	.L31:
 548 0152 00BF     		.align	2
 549              	.L30:
 550 0154 00000000 		.word	SM1calibrationValues
 551 0158 00000000 		.word	SM1percentageValues
 552 015c F4010000 		.word	SM1eepromArray
 553 0160 00000000 		.word	eepromStatus
 554 0164 00000000 		.word	SM2calibrationValues
 555 0168 20030000 		.word	SM2eepromArray
 556              		.cfi_endproc
 557              	.LFE58:
 558              		.size	setCalibrationTable, .-setCalibrationTable
 559              		.section	.text.calibration,"ax",%progbits
 560              		.align	2
ARM GAS  C:\Users\plod1602\AppData\Local\Temp\ccH3HTbW.s 			page 14


 561              		.global	calibration
 562              		.thumb
 563              		.thumb_func
 564              		.type	calibration, %function
 565              	calibration:
 566              	.LFB59:
 158:.\PeltierCalibration.c **** 
 159:.\PeltierCalibration.c **** uint8 calibration(Tac_Submodule* TACPtr)
 160:.\PeltierCalibration.c **** {
 567              		.loc 1 160 0
 568              		.cfi_startproc
 569              		@ args = 0, pretend = 0, frame = 240
 570              		@ frame_needed = 1, uses_anonymous_args = 0
 571 0000 90B5     		push	{r4, r7, lr}
 572              		.cfi_def_cfa_offset 12
 573              		.cfi_offset 4, -12
 574              		.cfi_offset 7, -8
 575              		.cfi_offset 14, -4
 576 0002 BDB0     		sub	sp, sp, #244
 577              		.cfi_def_cfa_offset 256
 578 0004 00AF     		add	r7, sp, #0
 579              		.cfi_def_cfa_register 7
 580 0006 7860     		str	r0, [r7, #4]
 161:.\PeltierCalibration.c ****     if (TACPtr->subModuleId==SubModule1_ID || TACPtr->subModuleId==SubModule2_ID)
 581              		.loc 1 161 0
 582 0008 7B68     		ldr	r3, [r7, #4]
 583 000a 1B88     		ldrh	r3, [r3]
 584 000c 012B     		cmp	r3, #1
 585 000e 04D0     		beq	.L33
 586              		.loc 1 161 0 is_stmt 0 discriminator 1
 587 0010 7B68     		ldr	r3, [r7, #4]
 588 0012 1B88     		ldrh	r3, [r3]
 589 0014 022B     		cmp	r3, #2
 590 0016 40F0FE80 		bne	.L34
 591              	.L33:
 592              	.LBB4:
 162:.\PeltierCalibration.c ****     {
 163:.\PeltierCalibration.c ****         // Set the fan to 100%
 164:.\PeltierCalibration.c ****         // Wait for temperature to be stable (ambiant temperature) with no Peltier output
 165:.\PeltierCalibration.c ****         // Start by cooling, from the lowest PWM value to the highest
 166:.\PeltierCalibration.c ****         // Register all values
 167:.\PeltierCalibration.c ****         // Put the Peltier off and wait for return to ambiant temperature
 168:.\PeltierCalibration.c ****         // Start heating slowly then increment the PWM gradually registering all values at the same
 169:.\PeltierCalibration.c ****         
 170:.\PeltierCalibration.c ****         // Set the fan to 100%
 171:.\PeltierCalibration.c ****         changeFanSpeed(100,TACPtr->subModuleId);
 593              		.loc 1 171 0 is_stmt 1
 594 001a 7B68     		ldr	r3, [r7, #4]
 595 001c 1B88     		ldrh	r3, [r3]
 596 001e 6420     		movs	r0, #100
 597 0020 1946     		mov	r1, r3
 598 0022 FFF7FEFF 		bl	changeFanSpeed
 172:.\PeltierCalibration.c ****         changeFanState(fanEnabled, TACPtr->subModuleId);
 599              		.loc 1 172 0
 600 0026 7B68     		ldr	r3, [r7, #4]
 601 0028 1B88     		ldrh	r3, [r3]
 602 002a 0120     		movs	r0, #1
ARM GAS  C:\Users\plod1602\AppData\Local\Temp\ccH3HTbW.s 			page 15


 603 002c 1946     		mov	r1, r3
 604 002e FFF7FEFF 		bl	changeFanState
 173:.\PeltierCalibration.c ****         
 174:.\PeltierCalibration.c ****         // Make sure that the Peltier element is not active :
 175:.\PeltierCalibration.c ****         changePeltierModuleState(peltierDisabled, TACPtr->subModuleId); // Signal inH_1 and inH_2 h
 605              		.loc 1 175 0
 606 0032 7B68     		ldr	r3, [r7, #4]
 607 0034 1B88     		ldrh	r3, [r3]
 608 0036 0020     		movs	r0, #0
 609 0038 1946     		mov	r1, r3
 610 003a FFF7FEFF 		bl	changePeltierModuleState
 176:.\PeltierCalibration.c ****         
 177:.\PeltierCalibration.c ****         // Wait for temperature to be stable (ambiant temperature)
 178:.\PeltierCalibration.c ****         int16 ambientTemperature = getStableTemp(TACPtr);
 611              		.loc 1 178 0
 612 003e 7868     		ldr	r0, [r7, #4]
 613 0040 FFF7FEFF 		bl	getStableTemp
 614 0044 0346     		mov	r3, r0
 615 0046 A7F8E630 		strh	r3, [r7, #230]	@ movhi
 179:.\PeltierCalibration.c **** 
 180:.\PeltierCalibration.c ****                 
 181:.\PeltierCalibration.c ****         // Initialize range of PWM percentage to be used :
 182:.\PeltierCalibration.c ****         int8 pwmStartValue = PELTIER_PWM_INCREMENT_VALUE;
 616              		.loc 1 182 0
 617 004a 0A23     		movs	r3, #10
 618 004c 87F8E530 		strb	r3, [r7, #229]
 183:.\PeltierCalibration.c ****         int8 pwmEndValue = BEST_COOLING_PWM_PERCENTAGE;
 619              		.loc 1 183 0
 620 0050 5023     		movs	r3, #80
 621 0052 87F8E430 		strb	r3, [r7, #228]
 184:.\PeltierCalibration.c ****         int pwmPercentageIncrement = (int)PELTIER_PWM_INCREMENT_VALUE;
 622              		.loc 1 184 0
 623 0056 0A23     		movs	r3, #10
 624 0058 C7F8E030 		str	r3, [r7, #224]
 185:.\PeltierCalibration.c ****         int pwmPercentageBeeingSent = pwmStartValue;
 625              		.loc 1 185 0
 626 005c 97F9E530 		ldrsb	r3, [r7, #229]
 627 0060 C7F8EC30 		str	r3, [r7, #236]
 186:.\PeltierCalibration.c ****         
 187:.\PeltierCalibration.c ****         // Placing the Peltier in cooling mode :
 188:.\PeltierCalibration.c ****         changePeltierModuleCurrentDirection(Cooling, TACPtr);
 628              		.loc 1 188 0
 629 0064 0120     		movs	r0, #1
 630 0066 7968     		ldr	r1, [r7, #4]
 631 0068 FFF7FEFF 		bl	changePeltierModuleCurrentDirection
 189:.\PeltierCalibration.c ****         changePeltierModuleState(peltierEnabled, TACPtr->subModuleId);
 632              		.loc 1 189 0
 633 006c 7B68     		ldr	r3, [r7, #4]
 634 006e 1B88     		ldrh	r3, [r3]
 635 0070 0120     		movs	r0, #1
 636 0072 1946     		mov	r1, r3
 637 0074 FFF7FEFF 		bl	changePeltierModuleState
 190:.\PeltierCalibration.c ****         
 191:.\PeltierCalibration.c ****         int32 calibrationValueCount = 0;
 638              		.loc 1 191 0
 639 0078 0023     		movs	r3, #0
 640 007a C7F8DC30 		str	r3, [r7, #220]
ARM GAS  C:\Users\plod1602\AppData\Local\Temp\ccH3HTbW.s 			page 16


 192:.\PeltierCalibration.c ****         int16 currentTemp = 0;
 641              		.loc 1 192 0
 642 007e 0023     		movs	r3, #0
 643 0080 A7F8DA30 		strh	r3, [r7, #218]	@ movhi
 193:.\PeltierCalibration.c ****         
 194:.\PeltierCalibration.c ****         int numberOfCoolingDatas = (pwmEndValue-pwmStartValue)/pwmPercentageIncrement + 1;
 644              		.loc 1 194 0
 645 0084 97F9E420 		ldrsb	r2, [r7, #228]
 646 0088 97F9E530 		ldrsb	r3, [r7, #229]
 647 008c D21A     		subs	r2, r2, r3
 648 008e D7F8E030 		ldr	r3, [r7, #224]
 649 0092 92FBF3F3 		sdiv	r3, r2, r3
 650 0096 0133     		adds	r3, r3, #1
 651 0098 C7F8D430 		str	r3, [r7, #212]
 195:.\PeltierCalibration.c ****         
 196:.\PeltierCalibration.c ****         int16 tempTable[CALIBRATION_TABLE_SIZE];
 197:.\PeltierCalibration.c ****         
 198:.\PeltierCalibration.c ****         // Start by cooling, from the lowest PWM value to the highest
 199:.\PeltierCalibration.c ****         int i;
 200:.\PeltierCalibration.c ****         for (i=numberOfCoolingDatas-1; i>-1; i--)
 652              		.loc 1 200 0
 653 009c D7F8D430 		ldr	r3, [r7, #212]
 654 00a0 013B     		subs	r3, r3, #1
 655 00a2 C7F8E830 		str	r3, [r7, #232]
 656 00a6 33E0     		b	.L35
 657              	.L38:
 658              	.LBB5:
 201:.\PeltierCalibration.c ****         {               
 202:.\PeltierCalibration.c ****             if (STOP_CALIBRATION_FLAG != 0)
 659              		.loc 1 202 0
 660 00a8 5D4B     		ldr	r3, .L47
 661 00aa 1B78     		ldrb	r3, [r3]	@ zero_extendqisi2
 662 00ac 002B     		cmp	r3, #0
 663 00ae 04D0     		beq	.L36
 203:.\PeltierCalibration.c ****             {
 204:.\PeltierCalibration.c ****                 STOP_CALIBRATION_FLAG = 0;
 664              		.loc 1 204 0
 665 00b0 5B4B     		ldr	r3, .L47
 666 00b2 0022     		movs	r2, #0
 667 00b4 1A70     		strb	r2, [r3]
 205:.\PeltierCalibration.c ****                 return CALIBRATION_STOPPED;
 668              		.loc 1 205 0
 669 00b6 1323     		movs	r3, #19
 670 00b8 AEE0     		b	.L45
 671              	.L36:
 206:.\PeltierCalibration.c ****             }
 207:.\PeltierCalibration.c ****             
 208:.\PeltierCalibration.c ****             // Modify the desired PWM value.
 209:.\PeltierCalibration.c ****             changePeltierPWMValue(pwmPercentageBeeingSent, TACPtr->subModuleId);
 672              		.loc 1 209 0 discriminator 2
 673 00ba 7B68     		ldr	r3, [r7, #4]
 674 00bc 1B88     		ldrh	r3, [r3]
 675 00be D7F8EC00 		ldr	r0, [r7, #236]
 676 00c2 1946     		mov	r1, r3
 677 00c4 FFF7FEFF 		bl	changePeltierPWMValue
 210:.\PeltierCalibration.c ****             currentTemp = getStableTemp(TACPtr);
 678              		.loc 1 210 0 discriminator 2
ARM GAS  C:\Users\plod1602\AppData\Local\Temp\ccH3HTbW.s 			page 17


 679 00c8 7868     		ldr	r0, [r7, #4]
 680 00ca FFF7FEFF 		bl	getStableTemp
 681 00ce 0346     		mov	r3, r0
 682 00d0 A7F8DA30 		strh	r3, [r7, #218]	@ movhi
 211:.\PeltierCalibration.c ****             
 212:.\PeltierCalibration.c ****             // Save calibration values in table.
 213:.\PeltierCalibration.c ****             TACPtr->calibrationValuesPtr[i] = currentTemp;
 683              		.loc 1 213 0 discriminator 2
 684 00d4 7B68     		ldr	r3, [r7, #4]
 685 00d6 DA69     		ldr	r2, [r3, #28]
 686 00d8 D7F8E830 		ldr	r3, [r7, #232]
 687 00dc 5B00     		lsls	r3, r3, #1
 688 00de 1344     		add	r3, r3, r2
 689 00e0 B7F8DA20 		ldrh	r2, [r7, #218]	@ movhi
 690 00e4 1A80     		strh	r2, [r3]	@ movhi
 214:.\PeltierCalibration.c ****             TACPtr->percentageValuesPtr[i] = pwmPercentageBeeingSent;
 691              		.loc 1 214 0 discriminator 2
 692 00e6 7B68     		ldr	r3, [r7, #4]
 693 00e8 1A6A     		ldr	r2, [r3, #32]
 694 00ea D7F8E830 		ldr	r3, [r7, #232]
 695 00ee 1344     		add	r3, r3, r2
 696 00f0 D7F8EC20 		ldr	r2, [r7, #236]
 697 00f4 D2B2     		uxtb	r2, r2
 698 00f6 1A70     		strb	r2, [r3]
 215:.\PeltierCalibration.c **** 
 216:.\PeltierCalibration.c ****     		//Preparing the next value to send to the PWM to respect the % increment.
 217:.\PeltierCalibration.c ****     		pwmPercentageBeeingSent += pwmPercentageIncrement;
 699              		.loc 1 217 0 discriminator 2
 700 00f8 D7F8EC20 		ldr	r2, [r7, #236]
 701 00fc D7F8E030 		ldr	r3, [r7, #224]
 702 0100 1344     		add	r3, r3, r2
 703 0102 C7F8EC30 		str	r3, [r7, #236]
 704              	.LBE5:
 200:.\PeltierCalibration.c ****         {               
 705              		.loc 1 200 0 discriminator 2
 706 0106 D7F8E830 		ldr	r3, [r7, #232]
 707 010a 013B     		subs	r3, r3, #1
 708 010c C7F8E830 		str	r3, [r7, #232]
 709              	.L35:
 200:.\PeltierCalibration.c ****         {               
 710              		.loc 1 200 0 is_stmt 0 discriminator 1
 711 0110 D7F8E830 		ldr	r3, [r7, #232]
 712 0114 002B     		cmp	r3, #0
 713 0116 C7DA     		bge	.L38
 218:.\PeltierCalibration.c ****         }       
 219:.\PeltierCalibration.c ****         
 220:.\PeltierCalibration.c ****         // Put the Peltier off and wait for return to ambiant temperature
 221:.\PeltierCalibration.c ****         changePeltierModuleState(peltierDisabled, TACPtr->subModuleId);
 714              		.loc 1 221 0 is_stmt 1
 715 0118 7B68     		ldr	r3, [r7, #4]
 716 011a 1B88     		ldrh	r3, [r3]
 717 011c 0020     		movs	r0, #0
 718 011e 1946     		mov	r1, r3
 719 0120 FFF7FEFF 		bl	changePeltierModuleState
 222:.\PeltierCalibration.c ****         TACPtr->calibrationValuesPtr[numberOfCoolingDatas] = getStableTemp(TACPtr);
 720              		.loc 1 222 0
 721 0124 7B68     		ldr	r3, [r7, #4]
ARM GAS  C:\Users\plod1602\AppData\Local\Temp\ccH3HTbW.s 			page 18


 722 0126 DA69     		ldr	r2, [r3, #28]
 723 0128 D7F8D430 		ldr	r3, [r7, #212]
 724 012c 5B00     		lsls	r3, r3, #1
 725 012e D418     		adds	r4, r2, r3
 726 0130 7868     		ldr	r0, [r7, #4]
 727 0132 FFF7FEFF 		bl	getStableTemp
 728 0136 0346     		mov	r3, r0
 729 0138 2380     		strh	r3, [r4]	@ movhi
 223:.\PeltierCalibration.c ****         TACPtr->percentageValuesPtr[numberOfCoolingDatas] = 0;        
 730              		.loc 1 223 0
 731 013a 7B68     		ldr	r3, [r7, #4]
 732 013c 1A6A     		ldr	r2, [r3, #32]
 733 013e D7F8D430 		ldr	r3, [r7, #212]
 734 0142 1344     		add	r3, r3, r2
 735 0144 0022     		movs	r2, #0
 736 0146 1A70     		strb	r2, [r3]
 224:.\PeltierCalibration.c ****         
 225:.\PeltierCalibration.c ****         // Initialize range of PWM percentage to be used :
 226:.\PeltierCalibration.c ****         pwmStartValue = PELTIER_PWM_INCREMENT_VALUE;
 737              		.loc 1 226 0
 738 0148 0A23     		movs	r3, #10
 739 014a 87F8E530 		strb	r3, [r7, #229]
 227:.\PeltierCalibration.c ****         pwmEndValue = BEST_HEATING_PWM_PERCENTAGE;
 740              		.loc 1 227 0
 741 014e 6423     		movs	r3, #100
 742 0150 87F8E430 		strb	r3, [r7, #228]
 228:.\PeltierCalibration.c ****         pwmPercentageBeeingSent = pwmStartValue;
 743              		.loc 1 228 0
 744 0154 97F9E530 		ldrsb	r3, [r7, #229]
 745 0158 C7F8EC30 		str	r3, [r7, #236]
 229:.\PeltierCalibration.c ****         
 230:.\PeltierCalibration.c ****         changePeltierModuleCurrentDirection(Heating, TACPtr);
 746              		.loc 1 230 0
 747 015c 0020     		movs	r0, #0
 748 015e 7968     		ldr	r1, [r7, #4]
 749 0160 FFF7FEFF 		bl	changePeltierModuleCurrentDirection
 231:.\PeltierCalibration.c ****         changePeltierModuleState(peltierEnabled, TACPtr->subModuleId);
 750              		.loc 1 231 0
 751 0164 7B68     		ldr	r3, [r7, #4]
 752 0166 1B88     		ldrh	r3, [r3]
 753 0168 0120     		movs	r0, #1
 754 016a 1946     		mov	r1, r3
 755 016c FFF7FEFF 		bl	changePeltierModuleState
 232:.\PeltierCalibration.c ****         
 233:.\PeltierCalibration.c ****         // Start heating slowly then increment the PWM gradually registering all values at the same
 234:.\PeltierCalibration.c ****         for (i=numberOfCoolingDatas+1; i<CALIBRATION_TABLE_SIZE; i++)
 756              		.loc 1 234 0
 757 0170 D7F8D430 		ldr	r3, [r7, #212]
 758 0174 0133     		adds	r3, r3, #1
 759 0176 C7F8E830 		str	r3, [r7, #232]
 760 017a 3DE0     		b	.L39
 761              	.L44:
 235:.\PeltierCalibration.c ****         {
 236:.\PeltierCalibration.c ****             if (STOP_CALIBRATION_FLAG != 0)
 762              		.loc 1 236 0
 763 017c 284B     		ldr	r3, .L47
 764 017e 1B78     		ldrb	r3, [r3]	@ zero_extendqisi2
ARM GAS  C:\Users\plod1602\AppData\Local\Temp\ccH3HTbW.s 			page 19


 765 0180 002B     		cmp	r3, #0
 766 0182 04D0     		beq	.L40
 237:.\PeltierCalibration.c ****             {
 238:.\PeltierCalibration.c ****                 STOP_CALIBRATION_FLAG = 0;
 767              		.loc 1 238 0
 768 0184 264B     		ldr	r3, .L47
 769 0186 0022     		movs	r2, #0
 770 0188 1A70     		strb	r2, [r3]
 239:.\PeltierCalibration.c ****                 return CALIBRATION_STOPPED;
 771              		.loc 1 239 0
 772 018a 1323     		movs	r3, #19
 773 018c 44E0     		b	.L45
 774              	.L40:
 240:.\PeltierCalibration.c ****             }
 241:.\PeltierCalibration.c ****             
 242:.\PeltierCalibration.c ****             if (TACPtr->currentTemperature < TACPtr->maxTargetTemperature)
 775              		.loc 1 242 0
 776 018e 7B68     		ldr	r3, [r7, #4]
 777 0190 1A89     		ldrh	r2, [r3, #8]
 778 0192 7B68     		ldr	r3, [r7, #4]
 779 0194 5B89     		ldrh	r3, [r3, #10]
 780 0196 12B2     		sxth	r2, r2
 781 0198 1BB2     		sxth	r3, r3
 782 019a 9A42     		cmp	r2, r3
 783 019c 26DA     		bge	.L41
 784              	.LBB6:
 243:.\PeltierCalibration.c ****             {
 244:.\PeltierCalibration.c ****                 // Modify the desired PWM value.
 245:.\PeltierCalibration.c ****                 changePeltierPWMValue(pwmPercentageBeeingSent, TACPtr->subModuleId);
 785              		.loc 1 245 0
 786 019e 7B68     		ldr	r3, [r7, #4]
 787 01a0 1B88     		ldrh	r3, [r3]
 788 01a2 D7F8EC00 		ldr	r0, [r7, #236]
 789 01a6 1946     		mov	r1, r3
 790 01a8 FFF7FEFF 		bl	changePeltierPWMValue
 246:.\PeltierCalibration.c ****                 currentTemp = getStableTemp(TACPtr);
 791              		.loc 1 246 0
 792 01ac 7868     		ldr	r0, [r7, #4]
 793 01ae FFF7FEFF 		bl	getStableTemp
 794 01b2 0346     		mov	r3, r0
 795 01b4 A7F8DA30 		strh	r3, [r7, #218]	@ movhi
 247:.\PeltierCalibration.c ****                 
 248:.\PeltierCalibration.c ****                 // Save calibration values in table.
 249:.\PeltierCalibration.c ****                 TACPtr->calibrationValuesPtr[i] = currentTemp;
 796              		.loc 1 249 0
 797 01b8 7B68     		ldr	r3, [r7, #4]
 798 01ba DA69     		ldr	r2, [r3, #28]
 799 01bc D7F8E830 		ldr	r3, [r7, #232]
 800 01c0 5B00     		lsls	r3, r3, #1
 801 01c2 1344     		add	r3, r3, r2
 802 01c4 B7F8DA20 		ldrh	r2, [r7, #218]	@ movhi
 803 01c8 1A80     		strh	r2, [r3]	@ movhi
 250:.\PeltierCalibration.c ****                 TACPtr->percentageValuesPtr[i] = pwmPercentageBeeingSent;
 804              		.loc 1 250 0
 805 01ca 7B68     		ldr	r3, [r7, #4]
 806 01cc 1A6A     		ldr	r2, [r3, #32]
 807 01ce D7F8E830 		ldr	r3, [r7, #232]
ARM GAS  C:\Users\plod1602\AppData\Local\Temp\ccH3HTbW.s 			page 20


 808 01d2 1344     		add	r3, r3, r2
 809 01d4 D7F8EC20 		ldr	r2, [r7, #236]
 810 01d8 D2B2     		uxtb	r2, r2
 811 01da 1A70     		strb	r2, [r3]
 251:.\PeltierCalibration.c **** 
 252:.\PeltierCalibration.c ****         		//Preparing the next value to send to the PWM to respect the % increment.
 253:.\PeltierCalibration.c ****         		pwmPercentageBeeingSent += pwmPercentageIncrement;
 812              		.loc 1 253 0
 813 01dc D7F8EC20 		ldr	r2, [r7, #236]
 814 01e0 D7F8E030 		ldr	r3, [r7, #224]
 815 01e4 1344     		add	r3, r3, r2
 816 01e6 C7F8EC30 		str	r3, [r7, #236]
 817              	.LBE6:
 818 01ea 00E0     		b	.L46
 819              	.L41:
 254:.\PeltierCalibration.c ****             }
 255:.\PeltierCalibration.c ****             else
 256:.\PeltierCalibration.c ****             {
 257:.\PeltierCalibration.c ****                 break;
 820              		.loc 1 257 0
 821 01ec 08E0     		b	.L43
 822              	.L46:
 234:.\PeltierCalibration.c ****         {
 823              		.loc 1 234 0 discriminator 2
 824 01ee D7F8E830 		ldr	r3, [r7, #232]
 825 01f2 0133     		adds	r3, r3, #1
 826 01f4 C7F8E830 		str	r3, [r7, #232]
 827              	.L39:
 234:.\PeltierCalibration.c ****         {
 828              		.loc 1 234 0 is_stmt 0 discriminator 1
 829 01f8 D7F8E830 		ldr	r3, [r7, #232]
 830 01fc 632B     		cmp	r3, #99
 831 01fe BDDD     		ble	.L44
 832              	.L43:
 258:.\PeltierCalibration.c ****             }
 259:.\PeltierCalibration.c ****         }
 260:.\PeltierCalibration.c ****         changePeltierModuleState(peltierDisabled,TACPtr->subModuleId); // Sets Signal inH_1 and inH
 833              		.loc 1 260 0 is_stmt 1
 834 0200 7B68     		ldr	r3, [r7, #4]
 835 0202 1B88     		ldrh	r3, [r3]
 836 0204 0020     		movs	r0, #0
 837 0206 1946     		mov	r1, r3
 838 0208 FFF7FEFF 		bl	changePeltierModuleState
 261:.\PeltierCalibration.c ****         setCalibrationTable(TACPtr);
 839              		.loc 1 261 0
 840 020c 7868     		ldr	r0, [r7, #4]
 841 020e FFF7FEFF 		bl	setCalibrationTable
 262:.\PeltierCalibration.c ****         return 1;        
 842              		.loc 1 262 0
 843 0212 0123     		movs	r3, #1
 844 0214 00E0     		b	.L45
 845              	.L34:
 846              	.LBE4:
 263:.\PeltierCalibration.c ****     }
 264:.\PeltierCalibration.c ****     else
 265:.\PeltierCalibration.c ****     {
 266:.\PeltierCalibration.c ****         // If not using the sub module 1 nor 2, tell it to the master as I don't know where we are 
ARM GAS  C:\Users\plod1602\AppData\Local\Temp\ccH3HTbW.s 			page 21


 267:.\PeltierCalibration.c ****         return BAD_SUBMODULE_NUMBER;
 847              		.loc 1 267 0
 848 0216 1723     		movs	r3, #23
 849              	.L45:
 268:.\PeltierCalibration.c ****     }
 269:.\PeltierCalibration.c **** }
 850              		.loc 1 269 0 discriminator 1
 851 0218 1846     		mov	r0, r3
 852 021a F437     		adds	r7, r7, #244
 853              		.cfi_def_cfa_offset 12
 854 021c BD46     		mov	sp, r7
 855              		.cfi_def_cfa_register 13
 856              		@ sp needed
 857 021e 90BD     		pop	{r4, r7, pc}
 858              	.L48:
 859              		.align	2
 860              	.L47:
 861 0220 00000000 		.word	STOP_CALIBRATION_FLAG
 862              		.cfi_endproc
 863              	.LFE59:
 864              		.size	calibration, .-calibration
 865              		.section	.text.getStableTemp,"ax",%progbits
 866              		.align	2
 867              		.global	getStableTemp
 868              		.thumb
 869              		.thumb_func
 870              		.type	getStableTemp, %function
 871              	getStableTemp:
 872              	.LFB60:
 270:.\PeltierCalibration.c **** int16 getStableTemp(Tac_Submodule* TACPtr)
 271:.\PeltierCalibration.c **** {
 873              		.loc 1 271 0
 874              		.cfi_startproc
 875              		@ args = 0, pretend = 0, frame = 16
 876              		@ frame_needed = 1, uses_anonymous_args = 0
 877 0000 80B5     		push	{r7, lr}
 878              		.cfi_def_cfa_offset 8
 879              		.cfi_offset 7, -8
 880              		.cfi_offset 14, -4
 881 0002 84B0     		sub	sp, sp, #16
 882              		.cfi_def_cfa_offset 24
 883 0004 00AF     		add	r7, sp, #0
 884              		.cfi_def_cfa_register 7
 885 0006 7860     		str	r0, [r7, #4]
 272:.\PeltierCalibration.c ****     int16 currentTemp = 0;
 886              		.loc 1 272 0
 887 0008 0023     		movs	r3, #0
 888 000a FB81     		strh	r3, [r7, #14]	@ movhi
 273:.\PeltierCalibration.c ****     int16 pastTemp = 0;
 889              		.loc 1 273 0
 890 000c 0023     		movs	r3, #0
 891 000e BB81     		strh	r3, [r7, #12]	@ movhi
 274:.\PeltierCalibration.c ****     int8 tolerance_hit = 0;     // Will contain the number of times a reading was +- tolerance from
 892              		.loc 1 274 0
 893 0010 0023     		movs	r3, #0
 894 0012 FB72     		strb	r3, [r7, #11]
 275:.\PeltierCalibration.c ****     int16 deltaValue = 0; 
ARM GAS  C:\Users\plod1602\AppData\Local\Temp\ccH3HTbW.s 			page 22


 895              		.loc 1 275 0
 896 0014 0023     		movs	r3, #0
 897 0016 3B81     		strh	r3, [r7, #8]	@ movhi
 276:.\PeltierCalibration.c ****     
 277:.\PeltierCalibration.c ****     while(tolerance_hit < NB_STABLE_VALUE_REQUIRED && currentTemp <= TACPtr->maxTargetTemperature)
 898              		.loc 1 277 0
 899 0018 28E0     		b	.L50
 900              	.L56:
 278:.\PeltierCalibration.c ****     {                
 279:.\PeltierCalibration.c ****         if (STOP_CALIBRATION_FLAG != 0)
 901              		.loc 1 279 0
 902 001a 1D4B     		ldr	r3, .L57
 903 001c 1B78     		ldrb	r3, [r3]	@ zero_extendqisi2
 904 001e 002B     		cmp	r3, #0
 905 0020 04D0     		beq	.L51
 280:.\PeltierCalibration.c ****         {
 281:.\PeltierCalibration.c ****             STOP_CALIBRATION_FLAG = 0;
 906              		.loc 1 281 0
 907 0022 1B4B     		ldr	r3, .L57
 908 0024 0022     		movs	r2, #0
 909 0026 1A70     		strb	r2, [r3]
 282:.\PeltierCalibration.c ****             return CALIBRATION_STOPPED;
 910              		.loc 1 282 0
 911 0028 1323     		movs	r3, #19
 912 002a 2BE0     		b	.L52
 913              	.L51:
 283:.\PeltierCalibration.c ****         }   
 284:.\PeltierCalibration.c ****         
 285:.\PeltierCalibration.c ****          // Partie temprature
 286:.\PeltierCalibration.c ****         currentTemp = getThermistorTemp(TACPtr);
 914              		.loc 1 286 0
 915 002c 7868     		ldr	r0, [r7, #4]
 916 002e FFF7FEFF 		bl	getThermistorTemp
 917 0032 0346     		mov	r3, r0
 918 0034 FB81     		strh	r3, [r7, #14]	@ movhi
 287:.\PeltierCalibration.c ****         deltaValue = abs(currentTemp - pastTemp);        
 919              		.loc 1 287 0
 920 0036 B7F90E20 		ldrsh	r2, [r7, #14]
 921 003a B7F90C30 		ldrsh	r3, [r7, #12]
 922 003e D31A     		subs	r3, r2, r3
 923 0040 002B     		cmp	r3, #0
 924 0042 B8BF     		it	lt
 925 0044 5B42     		rsblt	r3, r3, #0
 926 0046 3B81     		strh	r3, [r7, #8]	@ movhi
 288:.\PeltierCalibration.c ****         
 289:.\PeltierCalibration.c ****         // Ajout Kevin
 290:.\PeltierCalibration.c ****         if (deltaValue < TEMP_TOLERANCE)
 927              		.loc 1 290 0
 928 0048 B7F90830 		ldrsh	r3, [r7, #8]
 929 004c 022B     		cmp	r3, #2
 930 004e 05DC     		bgt	.L53
 291:.\PeltierCalibration.c ****         {
 292:.\PeltierCalibration.c ****             tolerance_hit ++;
 931              		.loc 1 292 0
 932 0050 FB7A     		ldrb	r3, [r7, #11]	@ zero_extendqisi2
 933 0052 DBB2     		uxtb	r3, r3
 934 0054 0133     		adds	r3, r3, #1
ARM GAS  C:\Users\plod1602\AppData\Local\Temp\ccH3HTbW.s 			page 23


 935 0056 DBB2     		uxtb	r3, r3
 936 0058 FB72     		strb	r3, [r7, #11]
 937 005a 03E0     		b	.L54
 938              	.L53:
 293:.\PeltierCalibration.c ****         }
 294:.\PeltierCalibration.c ****         else
 295:.\PeltierCalibration.c ****         {
 296:.\PeltierCalibration.c ****             tolerance_hit = 0;
 939              		.loc 1 296 0
 940 005c 0023     		movs	r3, #0
 941 005e FB72     		strb	r3, [r7, #11]
 297:.\PeltierCalibration.c ****             pastTemp = currentTemp;
 942              		.loc 1 297 0
 943 0060 FB89     		ldrh	r3, [r7, #14]	@ movhi
 944 0062 BB81     		strh	r3, [r7, #12]	@ movhi
 945              	.L54:
 298:.\PeltierCalibration.c ****         }
 299:.\PeltierCalibration.c ****           
 300:.\PeltierCalibration.c ****         CyDelay(CY_DELAY_MS_FOR_STABLE_TEMP);    // CRUCIAL: Wait before reading next temperature  
 946              		.loc 1 300 0
 947 0064 41F28830 		movw	r0, #5000
 948 0068 FFF7FEFF 		bl	CyDelay
 949              	.L50:
 277:.\PeltierCalibration.c ****     {                
 950              		.loc 1 277 0
 951 006c 97F90B30 		ldrsb	r3, [r7, #11]
 952 0070 062B     		cmp	r3, #6
 953 0072 06DC     		bgt	.L55
 277:.\PeltierCalibration.c ****     {                
 954              		.loc 1 277 0 is_stmt 0 discriminator 1
 955 0074 7B68     		ldr	r3, [r7, #4]
 956 0076 5B89     		ldrh	r3, [r3, #10]
 957 0078 B7F90E20 		ldrsh	r2, [r7, #14]
 958 007c 1BB2     		sxth	r3, r3
 959 007e 9A42     		cmp	r2, r3
 960 0080 CBDD     		ble	.L56
 961              	.L55:
 301:.\PeltierCalibration.c ****     }
 302:.\PeltierCalibration.c ****     
 303:.\PeltierCalibration.c ****     return currentTemp;
 962              		.loc 1 303 0 is_stmt 1
 963 0082 FB89     		ldrh	r3, [r7, #14]
 964              	.L52:
 965 0084 1BB2     		sxth	r3, r3
 304:.\PeltierCalibration.c **** }
 966              		.loc 1 304 0
 967 0086 1846     		mov	r0, r3
 968 0088 1037     		adds	r7, r7, #16
 969              		.cfi_def_cfa_offset 8
 970 008a BD46     		mov	sp, r7
 971              		.cfi_def_cfa_register 13
 972              		@ sp needed
 973 008c 80BD     		pop	{r7, pc}
 974              	.L58:
 975 008e 00BF     		.align	2
 976              	.L57:
 977 0090 00000000 		.word	STOP_CALIBRATION_FLAG
ARM GAS  C:\Users\plod1602\AppData\Local\Temp\ccH3HTbW.s 			page 24


 978              		.cfi_endproc
 979              	.LFE60:
 980              		.size	getStableTemp, .-getStableTemp
 981              		.global	__aeabi_i2d
 982              		.global	__aeabi_ddiv
 983              		.global	__aeabi_dadd
 984              		.global	__aeabi_d2iz
 985              		.section	.text.peltierControl,"ax",%progbits
 986              		.align	2
 987              		.global	peltierControl
 988              		.thumb
 989              		.thumb_func
 990              		.type	peltierControl, %function
 991              	peltierControl:
 992              	.LFB61:
 305:.\PeltierCalibration.c **** 
 306:.\PeltierCalibration.c **** 
 307:.\PeltierCalibration.c **** 
 308:.\PeltierCalibration.c **** /*===========================================================================*/
 309:.\PeltierCalibration.c **** // Should not be called directly, will be called by "controlTemperature" function
 310:.\PeltierCalibration.c **** void peltierControl(int function, int diff, uint8 moduleNumber, int targetTemperature)
 311:.\PeltierCalibration.c **** {
 993              		.loc 1 311 0
 994              		.cfi_startproc
 995              		@ args = 0, pretend = 0, frame = 40
 996              		@ frame_needed = 1, uses_anonymous_args = 0
 997 0000 80B5     		push	{r7, lr}
 998              		.cfi_def_cfa_offset 8
 999              		.cfi_offset 7, -8
 1000              		.cfi_offset 14, -4
 1001 0002 8AB0     		sub	sp, sp, #40
 1002              		.cfi_def_cfa_offset 48
 1003 0004 00AF     		add	r7, sp, #0
 1004              		.cfi_def_cfa_register 7
 1005 0006 F860     		str	r0, [r7, #12]
 1006 0008 B960     		str	r1, [r7, #8]
 1007 000a 3B60     		str	r3, [r7]
 1008 000c 1346     		mov	r3, r2
 1009 000e FB71     		strb	r3, [r7, #7]
 312:.\PeltierCalibration.c ****     Tac_Submodule* TacPtr;
 313:.\PeltierCalibration.c ****     
 314:.\PeltierCalibration.c ****     if (moduleNumber == SubModule1_ID)
 1010              		.loc 1 314 0
 1011 0010 FB79     		ldrb	r3, [r7, #7]	@ zero_extendqisi2
 1012 0012 012B     		cmp	r3, #1
 1013 0014 02D1     		bne	.L60
 315:.\PeltierCalibration.c ****     {
 316:.\PeltierCalibration.c ****         TacPtr = &SM1;        
 1014              		.loc 1 316 0
 1015 0016 6E4B     		ldr	r3, .L77+24
 1016 0018 7B62     		str	r3, [r7, #36]
 1017 001a 04E0     		b	.L61
 1018              	.L60:
 317:.\PeltierCalibration.c ****     }
 318:.\PeltierCalibration.c ****     else if(moduleNumber == SubModule2_ID)
 1019              		.loc 1 318 0
 1020 001c FB79     		ldrb	r3, [r7, #7]	@ zero_extendqisi2
ARM GAS  C:\Users\plod1602\AppData\Local\Temp\ccH3HTbW.s 			page 25


 1021 001e 022B     		cmp	r3, #2
 1022 0020 01D1     		bne	.L61
 319:.\PeltierCalibration.c ****     {
 320:.\PeltierCalibration.c ****         TacPtr = &SM2;
 1023              		.loc 1 320 0
 1024 0022 6C4B     		ldr	r3, .L77+28
 1025 0024 7B62     		str	r3, [r7, #36]
 1026              	.L61:
 321:.\PeltierCalibration.c ****     }
 322:.\PeltierCalibration.c ****     double controlValue;
 323:.\PeltierCalibration.c ****     if(function == PELTIER_COOL )
 1027              		.loc 1 323 0
 1028 0026 FB68     		ldr	r3, [r7, #12]
 1029 0028 012B     		cmp	r3, #1
 1030 002a 4AD1     		bne	.L62
 1031              	.LBB7:
 324:.\PeltierCalibration.c ****     {
 325:.\PeltierCalibration.c ****         //double controlValue = (0.3+((0.000625*pow(diff,2))/3.08))*480; // Calculated from desired
 326:.\PeltierCalibration.c ****         if(diff>10)
 1032              		.loc 1 326 0
 1033 002c BB68     		ldr	r3, [r7, #8]
 1034 002e 0A2B     		cmp	r3, #10
 1035 0030 05DD     		ble	.L63
 327:.\PeltierCalibration.c ****         {
 328:.\PeltierCalibration.c ****             controlValue = 300;
 1036              		.loc 1 328 0
 1037 0032 61A3     		adr	r3, .L77
 1038 0034 D3E90023 		ldrd	r2, [r3]
 1039 0038 C7E90623 		strd	r2, [r7, #24]
 1040 003c 1AE0     		b	.L64
 1041              	.L63:
 329:.\PeltierCalibration.c ****         }
 330:.\PeltierCalibration.c ****         else
 331:.\PeltierCalibration.c ****         {
 332:.\PeltierCalibration.c ****            controlValue = ((4*diff)/0.595)+132; // See excel for reference ramp 
 1042              		.loc 1 332 0
 1043 003e BB68     		ldr	r3, [r7, #8]
 1044 0040 9B00     		lsls	r3, r3, #2
 1045 0042 1846     		mov	r0, r3
 1046 0044 FFF7FEFF 		bl	__aeabi_i2d
 1047 0048 0246     		mov	r2, r0
 1048 004a 0B46     		mov	r3, r1
 1049 004c 1046     		mov	r0, r2
 1050 004e 1946     		mov	r1, r3
 1051 0050 5BA3     		adr	r3, .L77+8
 1052 0052 D3E90023 		ldrd	r2, [r3]
 1053 0056 FFF7FEFF 		bl	__aeabi_ddiv
 1054 005a 0246     		mov	r2, r0
 1055 005c 0B46     		mov	r3, r1
 1056 005e 1046     		mov	r0, r2
 1057 0060 1946     		mov	r1, r3
 1058 0062 4FF00002 		mov	r2, #0
 1059 0066 5C4B     		ldr	r3, .L77+32
 1060 0068 FFF7FEFF 		bl	__aeabi_dadd
 1061 006c 0246     		mov	r2, r0
 1062 006e 0B46     		mov	r3, r1
 1063 0070 C7E90623 		strd	r2, [r7, #24]
ARM GAS  C:\Users\plod1602\AppData\Local\Temp\ccH3HTbW.s 			page 26


 1064              	.L64:
 333:.\PeltierCalibration.c ****         }        
 334:.\PeltierCalibration.c ****         int val = (int)controlValue;
 1065              		.loc 1 334 0
 1066 0074 D7E90601 		ldrd	r0, [r7, #24]
 1067 0078 FFF7FEFF 		bl	__aeabi_d2iz
 1068 007c 0346     		mov	r3, r0
 1069 007e 7B61     		str	r3, [r7, #20]
 335:.\PeltierCalibration.c ****         
 336:.\PeltierCalibration.c ****         // Deactivate the desired Peltier Element.
 337:.\PeltierCalibration.c ****         changePeltierModuleState(0,moduleNumber); 
 1070              		.loc 1 337 0
 1071 0080 FB79     		ldrb	r3, [r7, #7]	@ zero_extendqisi2
 1072 0082 0020     		movs	r0, #0
 1073 0084 1946     		mov	r1, r3
 1074 0086 FFF7FEFF 		bl	changePeltierModuleState
 338:.\PeltierCalibration.c ****         
 339:.\PeltierCalibration.c ****         // changes PWM value, affecting Peltier's power
 340:.\PeltierCalibration.c ****         if (moduleNumber == 1)
 1075              		.loc 1 340 0
 1076 008a FB79     		ldrb	r3, [r7, #7]	@ zero_extendqisi2
 1077 008c 012B     		cmp	r3, #1
 1078 008e 05D1     		bne	.L65
 341:.\PeltierCalibration.c ****         {
 342:.\PeltierCalibration.c ****             Peltier1_PWM_Ctrl_WriteCompare(val);
 1079              		.loc 1 342 0
 1080 0090 7B69     		ldr	r3, [r7, #20]
 1081 0092 9BB2     		uxth	r3, r3
 1082 0094 1846     		mov	r0, r3
 1083 0096 FFF7FEFF 		bl	Peltier1_PWM_Ctrl_WriteCompare
 1084 009a 07E0     		b	.L66
 1085              	.L65:
 343:.\PeltierCalibration.c ****         }
 344:.\PeltierCalibration.c ****         else if (moduleNumber == 2)
 1086              		.loc 1 344 0
 1087 009c FB79     		ldrb	r3, [r7, #7]	@ zero_extendqisi2
 1088 009e 022B     		cmp	r3, #2
 1089 00a0 04D1     		bne	.L66
 345:.\PeltierCalibration.c ****         {
 346:.\PeltierCalibration.c ****             Peltier2_PWM_Ctrl_WriteCompare(val);
 1090              		.loc 1 346 0
 1091 00a2 7B69     		ldr	r3, [r7, #20]
 1092 00a4 9BB2     		uxth	r3, r3
 1093 00a6 1846     		mov	r0, r3
 1094 00a8 FFF7FEFF 		bl	Peltier2_PWM_Ctrl_WriteCompare
 1095              	.L66:
 347:.\PeltierCalibration.c ****         }
 348:.\PeltierCalibration.c ****         
 349:.\PeltierCalibration.c ****         // Sets the H_bridge to heat or cool depending on the parameter passed
 350:.\PeltierCalibration.c ****         changePeltierModuleCurrentDirection(function, TacPtr);
 1096              		.loc 1 350 0
 1097 00ac F868     		ldr	r0, [r7, #12]
 1098 00ae 796A     		ldr	r1, [r7, #36]
 1099 00b0 FFF7FEFF 		bl	changePeltierModuleCurrentDirection
 351:.\PeltierCalibration.c ****         
 352:.\PeltierCalibration.c ****         // Reactivate the desired Peltier Element.
 353:.\PeltierCalibration.c ****         changePeltierModuleState(1,TacPtr->subModuleId);
ARM GAS  C:\Users\plod1602\AppData\Local\Temp\ccH3HTbW.s 			page 27


 1100              		.loc 1 353 0
 1101 00b4 7B6A     		ldr	r3, [r7, #36]
 1102 00b6 1B88     		ldrh	r3, [r3]
 1103 00b8 0120     		movs	r0, #1
 1104 00ba 1946     		mov	r1, r3
 1105 00bc FFF7FEFF 		bl	changePeltierModuleState
 1106              	.LBE7:
 1107 00c0 76E0     		b	.L59
 1108              	.L62:
 354:.\PeltierCalibration.c ****         
 355:.\PeltierCalibration.c ****         //Peltier_on_Write(0u);   // deactivates peltier element
 356:.\PeltierCalibration.c ****         //LED_Write(0u);          
 357:.\PeltierCalibration.c ****         //peltierPWM_WriteCompare(val);       // changes PWM value, affecting Peltier's power
 358:.\PeltierCalibration.c ****         //peltier_control_Write(function);    // Sets the H_bridge to heat or cool depending on the
 359:.\PeltierCalibration.c ****         ////peltierPWM_Start();
 360:.\PeltierCalibration.c ****         //Peltier_on_Write(1u);   // Signal inH_1 and inH_2   
 361:.\PeltierCalibration.c ****     }
 362:.\PeltierCalibration.c ****     else if(function ==  PELTIER_HEAT)
 1109              		.loc 1 362 0
 1110 00c2 FB68     		ldr	r3, [r7, #12]
 1111 00c4 022B     		cmp	r3, #2
 1112 00c6 4DD1     		bne	.L68
 1113              	.LBB8:
 363:.\PeltierCalibration.c ****     {
 364:.\PeltierCalibration.c ****         //double controlValue = (0.3+((0.000625*pow(diff,2))/2))*480; // Calculated from desired ra
 365:.\PeltierCalibration.c ****         if(diff>20)
 1114              		.loc 1 365 0
 1115 00c8 BB68     		ldr	r3, [r7, #8]
 1116 00ca 142B     		cmp	r3, #20
 1117 00cc 05DD     		ble	.L69
 366:.\PeltierCalibration.c ****         {
 367:.\PeltierCalibration.c ****             controlValue = 384;
 1118              		.loc 1 367 0
 1119 00ce 4FF00002 		mov	r2, #0
 1120 00d2 424B     		ldr	r3, .L77+36
 1121 00d4 C7E90623 		strd	r2, [r7, #24]
 1122 00d8 1AE0     		b	.L70
 1123              	.L69:
 368:.\PeltierCalibration.c ****         }
 369:.\PeltierCalibration.c ****         else
 370:.\PeltierCalibration.c ****         {
 371:.\PeltierCalibration.c ****            controlValue = ((4*diff)/0.396)+132; // See excel for reference ramp 
 1124              		.loc 1 371 0
 1125 00da BB68     		ldr	r3, [r7, #8]
 1126 00dc 9B00     		lsls	r3, r3, #2
 1127 00de 1846     		mov	r0, r3
 1128 00e0 FFF7FEFF 		bl	__aeabi_i2d
 1129 00e4 0246     		mov	r2, r0
 1130 00e6 0B46     		mov	r3, r1
 1131 00e8 1046     		mov	r0, r2
 1132 00ea 1946     		mov	r1, r3
 1133 00ec 36A3     		adr	r3, .L77+16
 1134 00ee D3E90023 		ldrd	r2, [r3]
 1135 00f2 FFF7FEFF 		bl	__aeabi_ddiv
 1136 00f6 0246     		mov	r2, r0
 1137 00f8 0B46     		mov	r3, r1
 1138 00fa 1046     		mov	r0, r2
ARM GAS  C:\Users\plod1602\AppData\Local\Temp\ccH3HTbW.s 			page 28


 1139 00fc 1946     		mov	r1, r3
 1140 00fe 4FF00002 		mov	r2, #0
 1141 0102 354B     		ldr	r3, .L77+32
 1142 0104 FFF7FEFF 		bl	__aeabi_dadd
 1143 0108 0246     		mov	r2, r0
 1144 010a 0B46     		mov	r3, r1
 1145 010c C7E90623 		strd	r2, [r7, #24]
 1146              	.L70:
 372:.\PeltierCalibration.c ****         } 
 373:.\PeltierCalibration.c ****         int val = (int)controlValue;
 1147              		.loc 1 373 0
 1148 0110 D7E90601 		ldrd	r0, [r7, #24]
 1149 0114 FFF7FEFF 		bl	__aeabi_d2iz
 1150 0118 0346     		mov	r3, r0
 1151 011a 3B61     		str	r3, [r7, #16]
 374:.\PeltierCalibration.c ****         
 375:.\PeltierCalibration.c ****         // Deactivate the desired Peltier Element.
 376:.\PeltierCalibration.c ****         changePeltierModuleState(0,TacPtr->subModuleId); 
 1152              		.loc 1 376 0
 1153 011c 7B6A     		ldr	r3, [r7, #36]
 1154 011e 1B88     		ldrh	r3, [r3]
 1155 0120 0020     		movs	r0, #0
 1156 0122 1946     		mov	r1, r3
 1157 0124 FFF7FEFF 		bl	changePeltierModuleState
 377:.\PeltierCalibration.c ****         
 378:.\PeltierCalibration.c ****         // changes PWM value, affecting Peltier's power
 379:.\PeltierCalibration.c ****         if (TacPtr->subModuleId == 1)
 1158              		.loc 1 379 0
 1159 0128 7B6A     		ldr	r3, [r7, #36]
 1160 012a 1B88     		ldrh	r3, [r3]
 1161 012c 012B     		cmp	r3, #1
 1162 012e 05D1     		bne	.L71
 380:.\PeltierCalibration.c ****         {
 381:.\PeltierCalibration.c ****             Peltier1_PWM_Ctrl_WriteCompare(val);
 1163              		.loc 1 381 0
 1164 0130 3B69     		ldr	r3, [r7, #16]
 1165 0132 9BB2     		uxth	r3, r3
 1166 0134 1846     		mov	r0, r3
 1167 0136 FFF7FEFF 		bl	Peltier1_PWM_Ctrl_WriteCompare
 1168 013a 08E0     		b	.L72
 1169              	.L71:
 382:.\PeltierCalibration.c ****         }
 383:.\PeltierCalibration.c ****         else if (TacPtr->subModuleId == 2)
 1170              		.loc 1 383 0
 1171 013c 7B6A     		ldr	r3, [r7, #36]
 1172 013e 1B88     		ldrh	r3, [r3]
 1173 0140 022B     		cmp	r3, #2
 1174 0142 04D1     		bne	.L72
 384:.\PeltierCalibration.c ****         {
 385:.\PeltierCalibration.c ****             Peltier2_PWM_Ctrl_WriteCompare(val);
 1175              		.loc 1 385 0
 1176 0144 3B69     		ldr	r3, [r7, #16]
 1177 0146 9BB2     		uxth	r3, r3
 1178 0148 1846     		mov	r0, r3
 1179 014a FFF7FEFF 		bl	Peltier2_PWM_Ctrl_WriteCompare
 1180              	.L72:
 386:.\PeltierCalibration.c ****         }
ARM GAS  C:\Users\plod1602\AppData\Local\Temp\ccH3HTbW.s 			page 29


 387:.\PeltierCalibration.c ****         
 388:.\PeltierCalibration.c ****         // Sets the H_bridge to heat or cool depending on the parameter passed
 389:.\PeltierCalibration.c ****         changePeltierModuleCurrentDirection(function, TacPtr);
 1181              		.loc 1 389 0
 1182 014e F868     		ldr	r0, [r7, #12]
 1183 0150 796A     		ldr	r1, [r7, #36]
 1184 0152 FFF7FEFF 		bl	changePeltierModuleCurrentDirection
 390:.\PeltierCalibration.c ****         
 391:.\PeltierCalibration.c ****         // Reactivate the desired Peltier Element.
 392:.\PeltierCalibration.c ****         changePeltierModuleState(1,TacPtr->subModuleId);
 1185              		.loc 1 392 0
 1186 0156 7B6A     		ldr	r3, [r7, #36]
 1187 0158 1B88     		ldrh	r3, [r3]
 1188 015a 0120     		movs	r0, #1
 1189 015c 1946     		mov	r1, r3
 1190 015e FFF7FEFF 		bl	changePeltierModuleState
 1191              	.LBE8:
 1192 0162 25E0     		b	.L59
 1193              	.L68:
 393:.\PeltierCalibration.c ****         
 394:.\PeltierCalibration.c ****         //Peltier_on_Write(0u);
 395:.\PeltierCalibration.c ****         //peltierPWM_WriteCompare(val);
 396:.\PeltierCalibration.c ****         //peltier_control_Write(function);    // Sets the H_bridge to heat or cool depending on the
 397:.\PeltierCalibration.c ****         ////peltierPWM_Start();
 398:.\PeltierCalibration.c ****         //Peltier_on_Write(1u);   // Signal inH_1 and inH_2        
 399:.\PeltierCalibration.c ****     }    
 400:.\PeltierCalibration.c ****     else if(function == PELTIER_MAINTAIN)   // Never called
 1194              		.loc 1 400 0
 1195 0164 FB68     		ldr	r3, [r7, #12]
 1196 0166 022B     		cmp	r3, #2
 1197 0168 22D1     		bne	.L59
 1198              	.LBB9:
 401:.\PeltierCalibration.c ****     {
 402:.\PeltierCalibration.c ****         // Deactivate the desired Peltier Element.
 403:.\PeltierCalibration.c ****         changePeltierModuleState(0,moduleNumber);
 1199              		.loc 1 403 0
 1200 016a FB79     		ldrb	r3, [r7, #7]	@ zero_extendqisi2
 1201 016c 0020     		movs	r0, #0
 1202 016e 1946     		mov	r1, r3
 1203 0170 FFF7FEFF 		bl	changePeltierModuleState
 404:.\PeltierCalibration.c ****         
 405:.\PeltierCalibration.c ****         if (targetTemperature>25)
 1204              		.loc 1 405 0
 1205 0174 3B68     		ldr	r3, [r7]
 1206 0176 192B     		cmp	r3, #25
 1207 0178 04DD     		ble	.L73
 1208              	.LBB10:
 406:.\PeltierCalibration.c ****         {
 407:.\PeltierCalibration.c ****             // Sets the H_bridge to heat or cool depending on the parameter passed
 408:.\PeltierCalibration.c ****             changePeltierModuleCurrentDirection(PELTIER_HEAT, TacPtr);
 1209              		.loc 1 408 0
 1210 017a 0220     		movs	r0, #2
 1211 017c 796A     		ldr	r1, [r7, #36]
 1212 017e FFF7FEFF 		bl	changePeltierModuleCurrentDirection
 1213              	.LBE10:
 1214 0182 03E0     		b	.L74
 1215              	.L73:
ARM GAS  C:\Users\plod1602\AppData\Local\Temp\ccH3HTbW.s 			page 30


 1216              	.LBB11:
 409:.\PeltierCalibration.c ****         }
 410:.\PeltierCalibration.c ****         else
 411:.\PeltierCalibration.c ****         {
 412:.\PeltierCalibration.c ****             // Sets the H_bridge to heat or cool depending on the parameter passed
 413:.\PeltierCalibration.c ****             changePeltierModuleCurrentDirection(PELTIER_COOL, TacPtr);            
 1217              		.loc 1 413 0
 1218 0184 0120     		movs	r0, #1
 1219 0186 796A     		ldr	r1, [r7, #36]
 1220 0188 FFF7FEFF 		bl	changePeltierModuleCurrentDirection
 1221              	.L74:
 1222              	.LBE11:
 414:.\PeltierCalibration.c ****         } 
 415:.\PeltierCalibration.c ****         
 416:.\PeltierCalibration.c ****         // changes PWM value, affecting Peltier's power
 417:.\PeltierCalibration.c ****         if (moduleNumber == 1)
 1223              		.loc 1 417 0
 1224 018c FB79     		ldrb	r3, [r7, #7]	@ zero_extendqisi2
 1225 018e 012B     		cmp	r3, #1
 1226 0190 03D1     		bne	.L75
 418:.\PeltierCalibration.c ****         {
 419:.\PeltierCalibration.c ****             Peltier1_PWM_Ctrl_WriteCompare(100);
 1227              		.loc 1 419 0
 1228 0192 6420     		movs	r0, #100
 1229 0194 FFF7FEFF 		bl	Peltier1_PWM_Ctrl_WriteCompare
 1230 0198 05E0     		b	.L76
 1231              	.L75:
 420:.\PeltierCalibration.c ****         }
 421:.\PeltierCalibration.c ****         else if (moduleNumber == 2)
 1232              		.loc 1 421 0
 1233 019a FB79     		ldrb	r3, [r7, #7]	@ zero_extendqisi2
 1234 019c 022B     		cmp	r3, #2
 1235 019e 02D1     		bne	.L76
 422:.\PeltierCalibration.c ****         {
 423:.\PeltierCalibration.c ****             Peltier2_PWM_Ctrl_WriteCompare(100);
 1236              		.loc 1 423 0
 1237 01a0 6420     		movs	r0, #100
 1238 01a2 FFF7FEFF 		bl	Peltier2_PWM_Ctrl_WriteCompare
 1239              	.L76:
 424:.\PeltierCalibration.c ****         }
 425:.\PeltierCalibration.c ****         
 426:.\PeltierCalibration.c ****         // Reactivate the desired Peltier Element.
 427:.\PeltierCalibration.c ****         changePeltierModuleState(1,moduleNumber);
 1240              		.loc 1 427 0
 1241 01a6 FB79     		ldrb	r3, [r7, #7]	@ zero_extendqisi2
 1242 01a8 0120     		movs	r0, #1
 1243 01aa 1946     		mov	r1, r3
 1244 01ac FFF7FEFF 		bl	changePeltierModuleState
 1245              	.L59:
 1246              	.LBE9:
 428:.\PeltierCalibration.c ****         
 429:.\PeltierCalibration.c ****         /*
 430:.\PeltierCalibration.c ****         if(targetTemp > 25) // need to apply heat to maintain temperature
 431:.\PeltierCalibration.c ****         {
 432:.\PeltierCalibration.c ****             Peltier_on_Write(0u);   // Signal inH_1 and inH_2 
 433:.\PeltierCalibration.c ****             peltier_control_Write(PELTIER_HEAT);    // Sets the H_bridge to heat or cool depending 
 434:.\PeltierCalibration.c ****             peltierPWM_WriteCompare(100);   // TODO Calculate this value in function of targetTemp
ARM GAS  C:\Users\plod1602\AppData\Local\Temp\ccH3HTbW.s 			page 31


 435:.\PeltierCalibration.c ****             Peltier_on_Write(1u);   // Signal inH_1 and inH_2 
 436:.\PeltierCalibration.c ****         }
 437:.\PeltierCalibration.c ****         else    // Need to cool 
 438:.\PeltierCalibration.c ****         {
 439:.\PeltierCalibration.c ****             Peltier_on_Write(0u);   // Signal inH_1 and inH_2 
 440:.\PeltierCalibration.c ****             peltier_control_Write(PELTIER_COOL);    // Sets the H_bridge to heat or cool depending 
 441:.\PeltierCalibration.c ****             peltierPWM_WriteCompare(100); 
 442:.\PeltierCalibration.c ****             Peltier_on_Write(1u);   // Signal inH_1 and inH_2 
 443:.\PeltierCalibration.c ****         }*/
 444:.\PeltierCalibration.c ****     }
 445:.\PeltierCalibration.c **** }
 1247              		.loc 1 445 0
 1248 01b0 2837     		adds	r7, r7, #40
 1249              		.cfi_def_cfa_offset 8
 1250 01b2 BD46     		mov	sp, r7
 1251              		.cfi_def_cfa_register 13
 1252              		@ sp needed
 1253 01b4 80BD     		pop	{r7, pc}
 1254              	.L78:
 1255 01b6 00BF     		.align	3
 1256              	.L77:
 1257 01b8 00000000 		.word	0
 1258 01bc 00C07240 		.word	1081262080
 1259 01c0 0AD7A370 		.word	1889785610
 1260 01c4 3D0AE33F 		.word	1071843901
 1261 01c8 F2D24D62 		.word	1649267442
 1262 01cc 1058D93F 		.word	1071208464
 1263 01d0 00000000 		.word	SM1
 1264 01d4 00000000 		.word	SM2
 1265 01d8 00806040 		.word	1080066048
 1266 01dc 00007840 		.word	1081606144
 1267              		.cfi_endproc
 1268              	.LFE61:
 1269              		.size	peltierControl, .-peltierControl
 1270              		.section	.text.updateSMPeriodValue,"ax",%progbits
 1271              		.align	2
 1272              		.global	updateSMPeriodValue
 1273              		.thumb
 1274              		.thumb_func
 1275              		.type	updateSMPeriodValue, %function
 1276              	updateSMPeriodValue:
 1277              	.LFB62:
 446:.\PeltierCalibration.c **** 
 447:.\PeltierCalibration.c **** // Fan functions section
 448:.\PeltierCalibration.c **** 
 449:.\PeltierCalibration.c **** 
 450:.\PeltierCalibration.c **** 
 451:.\PeltierCalibration.c **** 
 452:.\PeltierCalibration.c **** 
 453:.\PeltierCalibration.c **** // Agitator functions section
 454:.\PeltierCalibration.c **** 
 455:.\PeltierCalibration.c **** 
 456:.\PeltierCalibration.c **** // Peltier functions section
 457:.\PeltierCalibration.c **** 
 458:.\PeltierCalibration.c **** 
 459:.\PeltierCalibration.c **** 
 460:.\PeltierCalibration.c **** 
ARM GAS  C:\Users\plod1602\AppData\Local\Temp\ccH3HTbW.s 			page 32


 461:.\PeltierCalibration.c **** uint8 updateSMPeriodValue()
 462:.\PeltierCalibration.c **** {    
 1278              		.loc 1 462 0
 1279              		.cfi_startproc
 1280              		@ args = 0, pretend = 0, frame = 0
 1281              		@ frame_needed = 1, uses_anonymous_args = 0
 1282 0000 80B5     		push	{r7, lr}
 1283              		.cfi_def_cfa_offset 8
 1284              		.cfi_offset 7, -8
 1285              		.cfi_offset 14, -4
 1286 0002 00AF     		add	r7, sp, #0
 1287              		.cfi_def_cfa_register 7
 463:.\PeltierCalibration.c ****     SM1.pwmPeriodValue = Peltier1_PWM_Ctrl_ReadPeriod();
 1288              		.loc 1 463 0
 1289 0004 FFF7FEFF 		bl	Peltier1_PWM_Ctrl_ReadPeriod
 1290 0008 0346     		mov	r3, r0
 1291 000a 1A46     		mov	r2, r3
 1292 000c 054B     		ldr	r3, .L81
 1293 000e 5A82     		strh	r2, [r3, #18]	@ movhi
 464:.\PeltierCalibration.c ****     SM2.pwmPeriodValue = Peltier2_PWM_Ctrl_ReadPeriod();
 1294              		.loc 1 464 0
 1295 0010 FFF7FEFF 		bl	Peltier2_PWM_Ctrl_ReadPeriod
 1296 0014 0346     		mov	r3, r0
 1297 0016 1A46     		mov	r2, r3
 1298 0018 034B     		ldr	r3, .L81+4
 1299 001a 5A82     		strh	r2, [r3, #18]	@ movhi
 465:.\PeltierCalibration.c **** 
 466:.\PeltierCalibration.c ****     return 1;
 1300              		.loc 1 466 0
 1301 001c 0123     		movs	r3, #1
 467:.\PeltierCalibration.c **** }
 1302              		.loc 1 467 0
 1303 001e 1846     		mov	r0, r3
 1304 0020 80BD     		pop	{r7, pc}
 1305              	.L82:
 1306 0022 00BF     		.align	2
 1307              	.L81:
 1308 0024 00000000 		.word	SM1
 1309 0028 00000000 		.word	SM2
 1310              		.cfi_endproc
 1311              	.LFE62:
 1312              		.size	updateSMPeriodValue, .-updateSMPeriodValue
 1313              		.section	.text.testPWMPeriods,"ax",%progbits
 1314              		.align	2
 1315              		.global	testPWMPeriods
 1316              		.thumb
 1317              		.thumb_func
 1318              		.type	testPWMPeriods, %function
 1319              	testPWMPeriods:
 1320              	.LFB63:
 468:.\PeltierCalibration.c **** 
 469:.\PeltierCalibration.c **** void testPWMPeriods()
 470:.\PeltierCalibration.c **** {
 1321              		.loc 1 470 0
 1322              		.cfi_startproc
 1323              		@ args = 0, pretend = 0, frame = 8
 1324              		@ frame_needed = 1, uses_anonymous_args = 0
ARM GAS  C:\Users\plod1602\AppData\Local\Temp\ccH3HTbW.s 			page 33


 1325 0000 80B5     		push	{r7, lr}
 1326              		.cfi_def_cfa_offset 8
 1327              		.cfi_offset 7, -8
 1328              		.cfi_offset 14, -4
 1329 0002 82B0     		sub	sp, sp, #8
 1330              		.cfi_def_cfa_offset 16
 1331 0004 00AF     		add	r7, sp, #0
 1332              		.cfi_def_cfa_register 7
 471:.\PeltierCalibration.c ****     uint32 desiredFreq = 0; // In KHz.
 1333              		.loc 1 471 0
 1334 0006 0023     		movs	r3, #0
 1335 0008 7B60     		str	r3, [r7, #4]
 472:.\PeltierCalibration.c ****     uint16 desiredPeriod = 0;
 1336              		.loc 1 472 0
 1337 000a 0023     		movs	r3, #0
 1338 000c 7B80     		strh	r3, [r7, #2]	@ movhi
 473:.\PeltierCalibration.c ****     uint16 actualPeriod = 0;
 1339              		.loc 1 473 0
 1340 000e 0023     		movs	r3, #0
 1341 0010 3B80     		strh	r3, [r7]	@ movhi
 474:.\PeltierCalibration.c ****     
 475:.\PeltierCalibration.c ****     for (desiredFreq=60000; desiredFreq<80000; desiredFreq+=2000)
 1342              		.loc 1 475 0
 1343 0012 4EF66023 		movw	r3, #60000
 1344 0016 7B60     		str	r3, [r7, #4]
 1345 0018 1AE0     		b	.L84
 1346              	.L85:
 1347              	.LBB12:
 476:.\PeltierCalibration.c ****     {
 477:.\PeltierCalibration.c ****         actualPeriod = Peltier1_PWM_Ctrl_ReadPeriod();
 1348              		.loc 1 477 0 discriminator 3
 1349 001a FFF7FEFF 		bl	Peltier1_PWM_Ctrl_ReadPeriod
 1350 001e 0346     		mov	r3, r0
 1351 0020 3B80     		strh	r3, [r7]	@ movhi
 478:.\PeltierCalibration.c ****         desiredPeriod = 24000000/desiredFreq; //2400/desiredFreq;
 1352              		.loc 1 478 0 discriminator 3
 1353 0022 0F4A     		ldr	r2, .L86
 1354 0024 7B68     		ldr	r3, [r7, #4]
 1355 0026 B2FBF3F3 		udiv	r3, r2, r3
 1356 002a 7B80     		strh	r3, [r7, #2]	@ movhi
 479:.\PeltierCalibration.c ****         Peltier1_PWM_Ctrl_WritePeriod(desiredPeriod);
 1357              		.loc 1 479 0 discriminator 3
 1358 002c 7B88     		ldrh	r3, [r7, #2]
 1359 002e 1846     		mov	r0, r3
 1360 0030 FFF7FEFF 		bl	Peltier1_PWM_Ctrl_WritePeriod
 480:.\PeltierCalibration.c ****         changePeltierPWMValue(80,SM1.subModuleId);
 1361              		.loc 1 480 0 discriminator 3
 1362 0034 0B4B     		ldr	r3, .L86+4
 1363 0036 1B88     		ldrh	r3, [r3]
 1364 0038 5020     		movs	r0, #80
 1365 003a 1946     		mov	r1, r3
 1366 003c FFF7FEFF 		bl	changePeltierPWMValue
 481:.\PeltierCalibration.c ****         CyDelay(10000);        
 1367              		.loc 1 481 0 discriminator 3
 1368 0040 42F21070 		movw	r0, #10000
 1369 0044 FFF7FEFF 		bl	CyDelay
 1370              	.LBE12:
ARM GAS  C:\Users\plod1602\AppData\Local\Temp\ccH3HTbW.s 			page 34


 475:.\PeltierCalibration.c ****     {
 1371              		.loc 1 475 0 discriminator 3
 1372 0048 7B68     		ldr	r3, [r7, #4]
 1373 004a 03F5FA63 		add	r3, r3, #2000
 1374 004e 7B60     		str	r3, [r7, #4]
 1375              	.L84:
 475:.\PeltierCalibration.c ****     {
 1376              		.loc 1 475 0 is_stmt 0 discriminator 1
 1377 0050 7B68     		ldr	r3, [r7, #4]
 1378 0052 054A     		ldr	r2, .L86+8
 1379 0054 9342     		cmp	r3, r2
 1380 0056 E0D9     		bls	.L85
 482:.\PeltierCalibration.c ****     }
 483:.\PeltierCalibration.c **** }
 1381              		.loc 1 483 0 is_stmt 1
 1382 0058 0837     		adds	r7, r7, #8
 1383              		.cfi_def_cfa_offset 8
 1384 005a BD46     		mov	sp, r7
 1385              		.cfi_def_cfa_register 13
 1386              		@ sp needed
 1387 005c 80BD     		pop	{r7, pc}
 1388              	.L87:
 1389 005e 00BF     		.align	2
 1390              	.L86:
 1391 0060 00366E01 		.word	24000000
 1392 0064 00000000 		.word	SM1
 1393 0068 7F380100 		.word	79999
 1394              		.cfi_endproc
 1395              	.LFE63:
 1396              		.size	testPWMPeriods, .-testPWMPeriods
 1397              		.text
 1398              	.Letext0:
 1399              		.file 2 "c:\\program files (x86)\\cypress\\psoc creator\\3.3\\psoc creator\\import\\gnu\\arm\\4.9.
 1400              		.file 3 "c:\\program files (x86)\\cypress\\psoc creator\\3.3\\psoc creator\\import\\gnu\\arm\\4.9.
 1401              		.file 4 "Generated_Source\\PSoC5/cytypes.h"
 1402              		.file 5 "./Defines.h"
 1403              		.file 6 "Generated_Source\\PSoC5/core_cm3.h"
 1404              		.file 7 "./TAC_Submodule.h"
 1405              		.file 8 "./PeltierCalibration.h"