ARM GAS  C:\Users\Lois\AppData\Local\Temp\ccOyAePj.s 			page 1


   1              		.syntax unified
   2              		.cpu cortex-m3
   3              		.fpu softvfp
   4              		.eabi_attribute 20, 1
   5              		.eabi_attribute 21, 1
   6              		.eabi_attribute 23, 3
   7              		.eabi_attribute 24, 1
   8              		.eabi_attribute 25, 1
   9              		.eabi_attribute 26, 1
  10              		.eabi_attribute 30, 6
  11              		.eabi_attribute 34, 1
  12              		.eabi_attribute 18, 4
  13              		.thumb
  14              		.file	"PIDControler.c"
  15              		.text
  16              	.Ltext0:
  17              		.cfi_sections	.debug_frame
  18              		.global	integral
  19              		.bss
  20              		.align	3
  21              		.type	integral, %object
  22              		.size	integral, 8
  23              	integral:
  24 0000 00000000 		.space	8
  24      00000000 
  25              		.global	last_error
  26              		.align	3
  27              		.type	last_error, %object
  28              		.size	last_error, 8
  29              	last_error:
  30 0008 00000000 		.space	8
  30      00000000 
  31              		.global	__aeabi_i2d
  32              		.global	__aeabi_dsub
  33              		.global	__aeabi_dcmpgt
  34              		.global	__aeabi_dcmplt
  35              		.global	__aeabi_dmul
  36              		.global	__aeabi_dadd
  37              		.global	__aeabi_ddiv
  38              		.global	__aeabi_f2d
  39              		.global	__aeabi_d2iz
  40              		.global	__aeabi_d2uiz
  41              		.global	__aeabi_d2f
  42              		.section	.text.updatePeltierOutput,"ax",%progbits
  43              		.align	2
  44              		.global	updatePeltierOutput
  45              		.thumb
  46              		.thumb_func
  47              		.type	updatePeltierOutput, %function
  48              	updatePeltierOutput:
  49              	.LFB56:
  50              		.file 1 ".\\PIDControler.c"
   1:.\PIDControler.c **** /* ========================================
   2:.\PIDControler.c ****  *
   3:.\PIDControler.c ****  * Copyright YOUR COMPANY, THE YEAR
   4:.\PIDControler.c ****  * All Rights Reserved
   5:.\PIDControler.c ****  * UNPUBLISHED, LICENSED SOFTWARE.
ARM GAS  C:\Users\Lois\AppData\Local\Temp\ccOyAePj.s 			page 2


   6:.\PIDControler.c ****  *
   7:.\PIDControler.c ****  * CONFIDENTIAL AND PROPRIETARY INFORMATION
   8:.\PIDControler.c ****  * WHICH IS THE PROPERTY OF your company.
   9:.\PIDControler.c ****  *
  10:.\PIDControler.c ****  * ========================================
  11:.\PIDControler.c **** */
  12:.\PIDControler.c **** 
  13:.\PIDControler.c **** #include "PIDControler.h"
  14:.\PIDControler.c **** 
  15:.\PIDControler.c **** void applyCommand(uint8 module, int8 command);
  16:.\PIDControler.c **** 
  17:.\PIDControler.c **** 
  18:.\PIDControler.c **** double integral = 0;
  19:.\PIDControler.c **** double last_error = 0;
  20:.\PIDControler.c **** 
  21:.\PIDControler.c **** extern MC1_5Module  mc1_5Module [2];
  22:.\PIDControler.c **** 
  23:.\PIDControler.c **** #define PID_ENABLE_TEMPERATURE 90
  24:.\PIDControler.c **** 
  25:.\PIDControler.c **** // Updates current temperature of the Peltier element by reading the corresponding thermistor.
  26:.\PIDControler.c **** void updatePeltierOutput(uint8 module, double dt)
  27:.\PIDControler.c **** {
  51              		.loc 1 27 0
  52              		.cfi_startproc
  53              		@ args = 0, pretend = 0, frame = 80
  54              		@ frame_needed = 1, uses_anonymous_args = 0
  55 0000 B0B5     		push	{r4, r5, r7, lr}
  56              		.cfi_def_cfa_offset 16
  57              		.cfi_offset 4, -16
  58              		.cfi_offset 5, -12
  59              		.cfi_offset 7, -8
  60              		.cfi_offset 14, -4
  61 0002 94B0     		sub	sp, sp, #80
  62              		.cfi_def_cfa_offset 96
  63 0004 00AF     		add	r7, sp, #0
  64              		.cfi_def_cfa_register 7
  65 0006 0146     		mov	r1, r0
  66 0008 C7E90023 		strd	r2, [r7]
  67 000c 0B46     		mov	r3, r1
  68 000e FB73     		strb	r3, [r7, #15]
  28:.\PIDControler.c ****     double command;
  29:.\PIDControler.c ****     uint16 target = mc1_5Module [module].targetTemperature;
  69              		.loc 1 29 0
  70 0010 FB7B     		ldrb	r3, [r7, #15]	@ zero_extendqisi2
  71 0012 BF4A     		ldr	r2, .L23+8
  72 0014 2C21     		movs	r1, #44
  73 0016 01FB03F3 		mul	r3, r1, r3
  74 001a 1344     		add	r3, r3, r2
  75 001c 9B88     		ldrh	r3, [r3, #4]
  76 001e FB87     		strh	r3, [r7, #62]	@ movhi
  30:.\PIDControler.c ****     double current = getThermistorTemp(module); 
  77              		.loc 1 30 0
  78 0020 FB7B     		ldrb	r3, [r7, #15]	@ zero_extendqisi2
  79 0022 1846     		mov	r0, r3
  80 0024 FFF7FEFF 		bl	getThermistorTemp
  81 0028 0346     		mov	r3, r0
  82 002a 1846     		mov	r0, r3
ARM GAS  C:\Users\Lois\AppData\Local\Temp\ccOyAePj.s 			page 3


  83 002c FFF7FEFF 		bl	__aeabi_i2d
  84 0030 0246     		mov	r2, r0
  85 0032 0B46     		mov	r3, r1
  86 0034 C7E90C23 		strd	r2, [r7, #48]
  31:.\PIDControler.c **** 	double error = target - current;
  87              		.loc 1 31 0
  88 0038 FB8F     		ldrh	r3, [r7, #62]
  89 003a 1846     		mov	r0, r3
  90 003c FFF7FEFF 		bl	__aeabi_i2d
  91 0040 0246     		mov	r2, r0
  92 0042 0B46     		mov	r3, r1
  93 0044 1046     		mov	r0, r2
  94 0046 1946     		mov	r1, r3
  95 0048 D7E90C23 		ldrd	r2, [r7, #48]
  96 004c FFF7FEFF 		bl	__aeabi_dsub
  97 0050 0246     		mov	r2, r0
  98 0052 0B46     		mov	r3, r1
  99 0054 C7E90A23 		strd	r2, [r7, #40]
  32:.\PIDControler.c ****     double kp;
  33:.\PIDControler.c ****     double x;
  34:.\PIDControler.c ****     
  35:.\PIDControler.c ****     if(current < mc1_5Module [module].temperatureLimitHigh)
 100              		.loc 1 35 0
 101 0058 FB7B     		ldrb	r3, [r7, #15]	@ zero_extendqisi2
 102 005a AD4A     		ldr	r2, .L23+8
 103 005c 2C21     		movs	r1, #44
 104 005e 01FB03F3 		mul	r3, r1, r3
 105 0062 1344     		add	r3, r3, r2
 106 0064 1833     		adds	r3, r3, #24
 107 0066 5B88     		ldrh	r3, [r3, #2]
 108 0068 1846     		mov	r0, r3
 109 006a FFF7FEFF 		bl	__aeabi_i2d
 110 006e 0246     		mov	r2, r0
 111 0070 0B46     		mov	r3, r1
 112 0072 1046     		mov	r0, r2
 113 0074 1946     		mov	r1, r3
 114 0076 D7E90C23 		ldrd	r2, [r7, #48]
 115 007a FFF7FEFF 		bl	__aeabi_dcmpgt
 116 007e 0346     		mov	r3, r0
 117 0080 002B     		cmp	r3, #0
 118 0082 00F05181 		beq	.L21
 119              	.LBB2:
  36:.\PIDControler.c ****     {
  37:.\PIDControler.c ****         if( current > target-PID_ENABLE_TEMPERATURE && current < target+PID_ENABLE_TEMPERATURE)
 120              		.loc 1 37 0
 121 0086 FB8F     		ldrh	r3, [r7, #62]
 122 0088 5A3B     		subs	r3, r3, #90
 123 008a 1846     		mov	r0, r3
 124 008c FFF7FEFF 		bl	__aeabi_i2d
 125 0090 0246     		mov	r2, r0
 126 0092 0B46     		mov	r3, r1
 127 0094 1046     		mov	r0, r2
 128 0096 1946     		mov	r1, r3
 129 0098 D7E90C23 		ldrd	r2, [r7, #48]
 130 009c FFF7FEFF 		bl	__aeabi_dcmplt
 131 00a0 0346     		mov	r3, r0
 132 00a2 002B     		cmp	r3, #0
ARM GAS  C:\Users\Lois\AppData\Local\Temp\ccOyAePj.s 			page 4


 133 00a4 23D0     		beq	.L4
 134              		.loc 1 37 0 is_stmt 0 discriminator 1
 135 00a6 FB8F     		ldrh	r3, [r7, #62]
 136 00a8 5A33     		adds	r3, r3, #90
 137 00aa 1846     		mov	r0, r3
 138 00ac FFF7FEFF 		bl	__aeabi_i2d
 139 00b0 0246     		mov	r2, r0
 140 00b2 0B46     		mov	r3, r1
 141 00b4 1046     		mov	r0, r2
 142 00b6 1946     		mov	r1, r3
 143 00b8 D7E90C23 		ldrd	r2, [r7, #48]
 144 00bc FFF7FEFF 		bl	__aeabi_dcmpgt
 145 00c0 0346     		mov	r3, r0
 146 00c2 002B     		cmp	r3, #0
 147 00c4 13D0     		beq	.L4
  38:.\PIDControler.c ****         {
  39:.\PIDControler.c **** 			integral += error*dt;
 148              		.loc 1 39 0 is_stmt 1
 149 00c6 D7E90A01 		ldrd	r0, [r7, #40]
 150 00ca D7E90023 		ldrd	r2, [r7]
 151 00ce FFF7FEFF 		bl	__aeabi_dmul
 152 00d2 0246     		mov	r2, r0
 153 00d4 0B46     		mov	r3, r1
 154 00d6 1046     		mov	r0, r2
 155 00d8 1946     		mov	r1, r3
 156 00da 8E4B     		ldr	r3, .L23+12
 157 00dc D3E90023 		ldrd	r2, [r3]
 158 00e0 FFF7FEFF 		bl	__aeabi_dadd
 159 00e4 0246     		mov	r2, r0
 160 00e6 0B46     		mov	r3, r1
 161 00e8 8A49     		ldr	r1, .L23+12
 162 00ea C1E90023 		strd	r2, [r1]
 163              	.L4:
  40:.\PIDControler.c **** 		}
  41:.\PIDControler.c **** 			
  42:.\PIDControler.c **** 		double derivative = (error - last_error)/dt;
 164              		.loc 1 42 0
 165 00ee 8A4B     		ldr	r3, .L23+16
 166 00f0 D3E90023 		ldrd	r2, [r3]
 167 00f4 D7E90A01 		ldrd	r0, [r7, #40]
 168 00f8 FFF7FEFF 		bl	__aeabi_dsub
 169 00fc 0246     		mov	r2, r0
 170 00fe 0B46     		mov	r3, r1
 171 0100 1046     		mov	r0, r2
 172 0102 1946     		mov	r1, r3
 173 0104 D7E90023 		ldrd	r2, [r7]
 174 0108 FFF7FEFF 		bl	__aeabi_ddiv
 175 010c 0246     		mov	r2, r0
 176 010e 0B46     		mov	r3, r1
 177 0110 C7E90823 		strd	r2, [r7, #32]
  43:.\PIDControler.c ****  		
  44:.\PIDControler.c **** 		x = (fabs(error)/(double)100);
 178              		.loc 1 44 0
 179 0114 BC6A     		ldr	r4, [r7, #40]
 180 0116 FB6A     		ldr	r3, [r7, #44]
 181 0118 23F00045 		bic	r5, r3, #-2147483648
 182 011c 2046     		mov	r0, r4
ARM GAS  C:\Users\Lois\AppData\Local\Temp\ccOyAePj.s 			page 5


 183 011e 2946     		mov	r1, r5
 184 0120 4FF00002 		mov	r2, #0
 185 0124 7D4B     		ldr	r3, .L23+20
 186 0126 FFF7FEFF 		bl	__aeabi_ddiv
 187 012a 0246     		mov	r2, r0
 188 012c 0B46     		mov	r3, r1
 189 012e C7E90623 		strd	r2, [r7, #24]
  45:.\PIDControler.c **** 		if(error < 0)
 190              		.loc 1 45 0
 191 0132 D7E90A01 		ldrd	r0, [r7, #40]
 192 0136 4FF00002 		mov	r2, #0
 193 013a 4FF00003 		mov	r3, #0
 194 013e FFF7FEFF 		bl	__aeabi_dcmplt
 195 0142 0346     		mov	r3, r0
 196 0144 002B     		cmp	r3, #0
 197 0146 39D0     		beq	.L22
  46:.\PIDControler.c **** 			kp = (double)mc1_5Module [module].kp + x + (x*x*x)/(double)2;
 198              		.loc 1 46 0
 199 0148 FB7B     		ldrb	r3, [r7, #15]	@ zero_extendqisi2
 200 014a 714A     		ldr	r2, .L23+8
 201 014c 2C21     		movs	r1, #44
 202 014e 01FB03F3 		mul	r3, r1, r3
 203 0152 1344     		add	r3, r3, r2
 204 0154 2033     		adds	r3, r3, #32
 205 0156 1B68     		ldr	r3, [r3]	@ float
 206 0158 1846     		mov	r0, r3
 207 015a FFF7FEFF 		bl	__aeabi_f2d
 208 015e 0246     		mov	r2, r0
 209 0160 0B46     		mov	r3, r1
 210 0162 1046     		mov	r0, r2
 211 0164 1946     		mov	r1, r3
 212 0166 D7E90623 		ldrd	r2, [r7, #24]
 213 016a FFF7FEFF 		bl	__aeabi_dadd
 214 016e 0246     		mov	r2, r0
 215 0170 0B46     		mov	r3, r1
 216 0172 1446     		mov	r4, r2
 217 0174 1D46     		mov	r5, r3
 218 0176 D7E90601 		ldrd	r0, [r7, #24]
 219 017a D7E90623 		ldrd	r2, [r7, #24]
 220 017e FFF7FEFF 		bl	__aeabi_dmul
 221 0182 0246     		mov	r2, r0
 222 0184 0B46     		mov	r3, r1
 223 0186 1046     		mov	r0, r2
 224 0188 1946     		mov	r1, r3
 225 018a D7E90623 		ldrd	r2, [r7, #24]
 226 018e FFF7FEFF 		bl	__aeabi_dmul
 227 0192 0246     		mov	r2, r0
 228 0194 0B46     		mov	r3, r1
 229 0196 1046     		mov	r0, r2
 230 0198 1946     		mov	r1, r3
 231 019a 4FF00002 		mov	r2, #0
 232 019e 4FF08043 		mov	r3, #1073741824
 233 01a2 FFF7FEFF 		bl	__aeabi_ddiv
 234 01a6 0246     		mov	r2, r0
 235 01a8 0B46     		mov	r3, r1
 236 01aa 2046     		mov	r0, r4
 237 01ac 2946     		mov	r1, r5
ARM GAS  C:\Users\Lois\AppData\Local\Temp\ccOyAePj.s 			page 6


 238 01ae FFF7FEFF 		bl	__aeabi_dadd
 239 01b2 0246     		mov	r2, r0
 240 01b4 0B46     		mov	r3, r1
 241 01b6 C7E91023 		strd	r2, [r7, #64]
 242 01ba 36E0     		b	.L9
 243              	.L22:
  47:.\PIDControler.c **** 		else
  48:.\PIDControler.c **** 			kp = (double)mc1_5Module [module].kp + 0.01*x + (x*x)/(double)20;
 244              		.loc 1 48 0
 245 01bc FB7B     		ldrb	r3, [r7, #15]	@ zero_extendqisi2
 246 01be 544A     		ldr	r2, .L23+8
 247 01c0 2C21     		movs	r1, #44
 248 01c2 01FB03F3 		mul	r3, r1, r3
 249 01c6 1344     		add	r3, r3, r2
 250 01c8 2033     		adds	r3, r3, #32
 251 01ca 1B68     		ldr	r3, [r3]	@ float
 252 01cc 1846     		mov	r0, r3
 253 01ce FFF7FEFF 		bl	__aeabi_f2d
 254 01d2 0446     		mov	r4, r0
 255 01d4 0D46     		mov	r5, r1
 256 01d6 D7E90601 		ldrd	r0, [r7, #24]
 257 01da 4BA3     		adr	r3, .L23
 258 01dc D3E90023 		ldrd	r2, [r3]
 259 01e0 FFF7FEFF 		bl	__aeabi_dmul
 260 01e4 0246     		mov	r2, r0
 261 01e6 0B46     		mov	r3, r1
 262 01e8 2046     		mov	r0, r4
 263 01ea 2946     		mov	r1, r5
 264 01ec FFF7FEFF 		bl	__aeabi_dadd
 265 01f0 0246     		mov	r2, r0
 266 01f2 0B46     		mov	r3, r1
 267 01f4 1446     		mov	r4, r2
 268 01f6 1D46     		mov	r5, r3
 269 01f8 D7E90601 		ldrd	r0, [r7, #24]
 270 01fc D7E90623 		ldrd	r2, [r7, #24]
 271 0200 FFF7FEFF 		bl	__aeabi_dmul
 272 0204 0246     		mov	r2, r0
 273 0206 0B46     		mov	r3, r1
 274 0208 1046     		mov	r0, r2
 275 020a 1946     		mov	r1, r3
 276 020c 4FF00002 		mov	r2, #0
 277 0210 434B     		ldr	r3, .L23+24
 278 0212 FFF7FEFF 		bl	__aeabi_ddiv
 279 0216 0246     		mov	r2, r0
 280 0218 0B46     		mov	r3, r1
 281 021a 2046     		mov	r0, r4
 282 021c 2946     		mov	r1, r5
 283 021e FFF7FEFF 		bl	__aeabi_dadd
 284 0222 0246     		mov	r2, r0
 285 0224 0B46     		mov	r3, r1
 286 0226 C7E91023 		strd	r2, [r7, #64]
 287              	.L9:
  49:.\PIDControler.c **** 	  
  50:.\PIDControler.c **** 		command = kp * error + (double)mc1_5Module [module].ki * integral + (double)mc1_5Module [module].
 288              		.loc 1 50 0
 289 022a D7E91001 		ldrd	r0, [r7, #64]
 290 022e D7E90A23 		ldrd	r2, [r7, #40]
ARM GAS  C:\Users\Lois\AppData\Local\Temp\ccOyAePj.s 			page 7


 291 0232 FFF7FEFF 		bl	__aeabi_dmul
 292 0236 0246     		mov	r2, r0
 293 0238 0B46     		mov	r3, r1
 294 023a 1446     		mov	r4, r2
 295 023c 1D46     		mov	r5, r3
 296 023e FB7B     		ldrb	r3, [r7, #15]	@ zero_extendqisi2
 297 0240 334A     		ldr	r2, .L23+8
 298 0242 2C21     		movs	r1, #44
 299 0244 01FB03F3 		mul	r3, r1, r3
 300 0248 1344     		add	r3, r3, r2
 301 024a 2033     		adds	r3, r3, #32
 302 024c 5B68     		ldr	r3, [r3, #4]	@ float
 303 024e 1846     		mov	r0, r3
 304 0250 FFF7FEFF 		bl	__aeabi_f2d
 305 0254 2F4B     		ldr	r3, .L23+12
 306 0256 D3E90023 		ldrd	r2, [r3]
 307 025a FFF7FEFF 		bl	__aeabi_dmul
 308 025e 0246     		mov	r2, r0
 309 0260 0B46     		mov	r3, r1
 310 0262 2046     		mov	r0, r4
 311 0264 2946     		mov	r1, r5
 312 0266 FFF7FEFF 		bl	__aeabi_dadd
 313 026a 0246     		mov	r2, r0
 314 026c 0B46     		mov	r3, r1
 315 026e 1446     		mov	r4, r2
 316 0270 1D46     		mov	r5, r3
 317 0272 FB7B     		ldrb	r3, [r7, #15]	@ zero_extendqisi2
 318 0274 264A     		ldr	r2, .L23+8
 319 0276 2C21     		movs	r1, #44
 320 0278 01FB03F3 		mul	r3, r1, r3
 321 027c 1344     		add	r3, r3, r2
 322 027e 2833     		adds	r3, r3, #40
 323 0280 1B68     		ldr	r3, [r3]	@ float
 324 0282 1846     		mov	r0, r3
 325 0284 FFF7FEFF 		bl	__aeabi_f2d
 326 0288 0246     		mov	r2, r0
 327 028a 0B46     		mov	r3, r1
 328 028c 1046     		mov	r0, r2
 329 028e 1946     		mov	r1, r3
 330 0290 D7E90823 		ldrd	r2, [r7, #32]
 331 0294 FFF7FEFF 		bl	__aeabi_dmul
 332 0298 0246     		mov	r2, r0
 333 029a 0B46     		mov	r3, r1
 334 029c 2046     		mov	r0, r4
 335 029e 2946     		mov	r1, r5
 336 02a0 FFF7FEFF 		bl	__aeabi_dadd
 337 02a4 0246     		mov	r2, r0
 338 02a6 0B46     		mov	r3, r1
 339 02a8 C7E91223 		strd	r2, [r7, #72]
  51:.\PIDControler.c **** 		
  52:.\PIDControler.c **** 		if(command > 100)  command = 100;
 340              		.loc 1 52 0
 341 02ac D7E91201 		ldrd	r0, [r7, #72]
 342 02b0 4FF00002 		mov	r2, #0
 343 02b4 194B     		ldr	r3, .L23+20
 344 02b6 FFF7FEFF 		bl	__aeabi_dcmpgt
 345 02ba 0346     		mov	r3, r0
ARM GAS  C:\Users\Lois\AppData\Local\Temp\ccOyAePj.s 			page 8


 346 02bc 002B     		cmp	r3, #0
 347 02be 04D0     		beq	.L10
 348              		.loc 1 52 0 is_stmt 0 discriminator 1
 349 02c0 4FF00002 		mov	r2, #0
 350 02c4 154B     		ldr	r3, .L23+20
 351 02c6 C7E91223 		strd	r2, [r7, #72]
 352              	.L10:
  53:.\PIDControler.c **** 		if(command < -100) command = -100;
 353              		.loc 1 53 0 is_stmt 1
 354 02ca D7E91201 		ldrd	r0, [r7, #72]
 355 02ce 4FF00002 		mov	r2, #0
 356 02d2 144B     		ldr	r3, .L23+28
 357 02d4 FFF7FEFF 		bl	__aeabi_dcmplt
 358 02d8 0346     		mov	r3, r0
 359 02da 002B     		cmp	r3, #0
 360 02dc 04D0     		beq	.L12
 361              		.loc 1 53 0 is_stmt 0 discriminator 1
 362 02de 4FF00002 		mov	r2, #0
 363 02e2 104B     		ldr	r3, .L23+28
 364 02e4 C7E91223 		strd	r2, [r7, #72]
 365              	.L12:
  54:.\PIDControler.c **** 		
  55:.\PIDControler.c **** 		applyCommand(module, command);
 366              		.loc 1 55 0 is_stmt 1
 367 02e8 D7E91201 		ldrd	r0, [r7, #72]
 368 02ec FFF7FEFF 		bl	__aeabi_d2iz
 369 02f0 0346     		mov	r3, r0
 370 02f2 DBB2     		uxtb	r3, r3
 371 02f4 FA7B     		ldrb	r2, [r7, #15]	@ zero_extendqisi2
 372 02f6 5BB2     		sxtb	r3, r3
 373 02f8 1046     		mov	r0, r2
 374 02fa 1946     		mov	r1, r3
 375 02fc FFF7FEFF 		bl	applyCommand
 376              	.LBE2:
 377 0300 21E0     		b	.L14
 378              	.L24:
 379 0302 00BFAFF3 		.align	3
 379      0080
 380              	.L23:
 381 0308 7B14AE47 		.word	1202590843
 382 030c E17A843F 		.word	1065646817
 383 0310 00000000 		.word	mc1_5Module
 384 0314 00000000 		.word	integral
 385 0318 00000000 		.word	last_error
 386 031c 00005940 		.word	1079574528
 387 0320 00003440 		.word	1077149696
 388 0324 000059C0 		.word	-1067909120
 389              	.L21:
  56:.\PIDControler.c ****     }
  57:.\PIDControler.c ****     else 
  58:.\PIDControler.c ****     {
  59:.\PIDControler.c ****         // TODO: SEND ERROR MESSAGE (TEMPERATURE LIMIT REACHED)
  60:.\PIDControler.c ****         changeFanState(fanEnabled, module);
 390              		.loc 1 60 0
 391 0328 FB7B     		ldrb	r3, [r7, #15]	@ zero_extendqisi2
 392 032a 0120     		movs	r0, #1
 393 032c 1946     		mov	r1, r3
ARM GAS  C:\Users\Lois\AppData\Local\Temp\ccOyAePj.s 			page 9


 394 032e FFF7FEFF 		bl	changeFanState
  61:.\PIDControler.c ****         changeFanSpeed(100,module);
 395              		.loc 1 61 0
 396 0332 FB7B     		ldrb	r3, [r7, #15]	@ zero_extendqisi2
 397 0334 6420     		movs	r0, #100
 398 0336 1946     		mov	r1, r3
 399 0338 FFF7FEFF 		bl	changeFanSpeed
  62:.\PIDControler.c ****         changePeltierModuleState(peltierDisabled, module);
 400              		.loc 1 62 0
 401 033c FB7B     		ldrb	r3, [r7, #15]	@ zero_extendqisi2
 402 033e 0020     		movs	r0, #0
 403 0340 1946     		mov	r1, r3
 404 0342 FFF7FEFF 		bl	changePeltierModuleState
 405              	.L14:
  63:.\PIDControler.c ****     }
  64:.\PIDControler.c ****     
  65:.\PIDControler.c **** 	sendTemperatureToCAN(module, current, (int8)command);
 406              		.loc 1 65 0
 407 0346 D7E90C01 		ldrd	r0, [r7, #48]
 408 034a FFF7FEFF 		bl	__aeabi_d2uiz
 409 034e 0346     		mov	r3, r0
 410 0350 9CB2     		uxth	r4, r3
 411 0352 D7E91201 		ldrd	r0, [r7, #72]
 412 0356 FFF7FEFF 		bl	__aeabi_d2iz
 413 035a 0346     		mov	r3, r0
 414 035c DBB2     		uxtb	r3, r3
 415 035e FA7B     		ldrb	r2, [r7, #15]	@ zero_extendqisi2
 416 0360 5BB2     		sxtb	r3, r3
 417 0362 1046     		mov	r0, r2
 418 0364 2146     		mov	r1, r4
 419 0366 1A46     		mov	r2, r3
 420 0368 FFF7FEFF 		bl	sendTemperatureToCAN
  66:.\PIDControler.c ****     float i = (float)integral;
 421              		.loc 1 66 0
 422 036c 0C4B     		ldr	r3, .L25
 423 036e D3E90023 		ldrd	r2, [r3]
 424 0372 1046     		mov	r0, r2
 425 0374 1946     		mov	r1, r3
 426 0376 FFF7FEFF 		bl	__aeabi_d2f
 427 037a 0346     		mov	r3, r0
 428 037c 7B61     		str	r3, [r7, #20]	@ float
  67:.\PIDControler.c **** 	sendFloatToCAN(GET_PID_INTEGRAL, module, &i);
 429              		.loc 1 67 0
 430 037e FA7B     		ldrb	r2, [r7, #15]	@ zero_extendqisi2
 431 0380 07F11403 		add	r3, r7, #20
 432 0384 1720     		movs	r0, #23
 433 0386 1146     		mov	r1, r2
 434 0388 1A46     		mov	r2, r3
 435 038a FFF7FEFF 		bl	sendFloatToCAN
  68:.\PIDControler.c ****     
  69:.\PIDControler.c ****     last_error = error;
 436              		.loc 1 69 0
 437 038e 0549     		ldr	r1, .L25+4
 438 0390 D7E90A23 		ldrd	r2, [r7, #40]
 439 0394 C1E90023 		strd	r2, [r1]
  70:.\PIDControler.c **** }
 440              		.loc 1 70 0
ARM GAS  C:\Users\Lois\AppData\Local\Temp\ccOyAePj.s 			page 10


 441 0398 5037     		adds	r7, r7, #80
 442              		.cfi_def_cfa_offset 16
 443 039a BD46     		mov	sp, r7
 444              		.cfi_def_cfa_register 13
 445              		@ sp needed
 446 039c B0BD     		pop	{r4, r5, r7, pc}
 447              	.L26:
 448 039e 00BF     		.align	2
 449              	.L25:
 450 03a0 00000000 		.word	integral
 451 03a4 00000000 		.word	last_error
 452              		.cfi_endproc
 453              	.LFE56:
 454              		.size	updatePeltierOutput, .-updatePeltierOutput
 455              		.section	.text.applyCommand,"ax",%progbits
 456              		.align	2
 457              		.global	applyCommand
 458              		.thumb
 459              		.thumb_func
 460              		.type	applyCommand, %function
 461              	applyCommand:
 462              	.LFB57:
  71:.\PIDControler.c **** 
  72:.\PIDControler.c **** 
  73:.\PIDControler.c **** void applyCommand(uint8 module, int8 command)
  74:.\PIDControler.c **** {
 463              		.loc 1 74 0
 464              		.cfi_startproc
 465              		@ args = 0, pretend = 0, frame = 16
 466              		@ frame_needed = 1, uses_anonymous_args = 0
 467 0000 80B5     		push	{r7, lr}
 468              		.cfi_def_cfa_offset 8
 469              		.cfi_offset 7, -8
 470              		.cfi_offset 14, -4
 471 0002 84B0     		sub	sp, sp, #16
 472              		.cfi_def_cfa_offset 24
 473 0004 00AF     		add	r7, sp, #0
 474              		.cfi_def_cfa_register 7
 475 0006 0346     		mov	r3, r0
 476 0008 0A46     		mov	r2, r1
 477 000a FB71     		strb	r3, [r7, #7]
 478 000c 1346     		mov	r3, r2
 479 000e BB71     		strb	r3, [r7, #6]
  75:.\PIDControler.c ****     int8 commandABS;
  76:.\PIDControler.c ****     commandABS = abs((int8)command);
 480              		.loc 1 76 0
 481 0010 97F90630 		ldrsb	r3, [r7, #6]
 482 0014 002B     		cmp	r3, #0
 483 0016 B8BF     		it	lt
 484 0018 5B42     		rsblt	r3, r3, #0
 485 001a FB73     		strb	r3, [r7, #15]
  77:.\PIDControler.c ****     
  78:.\PIDControler.c ****     if(command != commandABS) // COOLING PROCESS
 486              		.loc 1 78 0
 487 001c 97F90620 		ldrsb	r2, [r7, #6]
 488 0020 97F90F30 		ldrsb	r3, [r7, #15]
 489 0024 9A42     		cmp	r2, r3
ARM GAS  C:\Users\Lois\AppData\Local\Temp\ccOyAePj.s 			page 11


 490 0026 1CD0     		beq	.L28
  79:.\PIDControler.c ****     {
  80:.\PIDControler.c ****         if(mc1_5Module [module].targetTemperature < 250) // TODO: change 250 to the value of the am
 491              		.loc 1 80 0
 492 0028 FB79     		ldrb	r3, [r7, #7]	@ zero_extendqisi2
 493 002a 184A     		ldr	r2, .L31
 494 002c 2C21     		movs	r1, #44
 495 002e 01FB03F3 		mul	r3, r1, r3
 496 0032 1344     		add	r3, r3, r2
 497 0034 9B88     		ldrh	r3, [r3, #4]
 498 0036 1BB2     		sxth	r3, r3
 499 0038 F92B     		cmp	r3, #249
 500 003a 0BDC     		bgt	.L29
  81:.\PIDControler.c ****         {
  82:.\PIDControler.c ****             changePeltierModuleCurrentDirection(Cooling, module);
 501              		.loc 1 82 0
 502 003c FB79     		ldrb	r3, [r7, #7]	@ zero_extendqisi2
 503 003e 0120     		movs	r0, #1
 504 0040 1946     		mov	r1, r3
 505 0042 FFF7FEFF 		bl	changePeltierModuleCurrentDirection
  83:.\PIDControler.c ****             changePeltierPWMValue(commandABS,module);
 506              		.loc 1 83 0
 507 0046 97F90F20 		ldrsb	r2, [r7, #15]
 508 004a FB79     		ldrb	r3, [r7, #7]	@ zero_extendqisi2
 509 004c 1046     		mov	r0, r2
 510 004e 1946     		mov	r1, r3
 511 0050 FFF7FEFF 		bl	changePeltierPWMValue
 512              	.L29:
  84:.\PIDControler.c ****         }
  85:.\PIDControler.c ****         changeFanSpeed(commandABS,module);
 513              		.loc 1 85 0
 514 0054 FA7B     		ldrb	r2, [r7, #15]	@ zero_extendqisi2
 515 0056 FB79     		ldrb	r3, [r7, #7]	@ zero_extendqisi2
 516 0058 1046     		mov	r0, r2
 517 005a 1946     		mov	r1, r3
 518 005c FFF7FEFF 		bl	changeFanSpeed
 519 0060 10E0     		b	.L27
 520              	.L28:
  86:.\PIDControler.c ****     }
  87:.\PIDControler.c ****     else 					// HEATING PROCESS
  88:.\PIDControler.c ****     {
  89:.\PIDControler.c ****         changePeltierModuleCurrentDirection(Heating, module);
 521              		.loc 1 89 0
 522 0062 FB79     		ldrb	r3, [r7, #7]	@ zero_extendqisi2
 523 0064 0020     		movs	r0, #0
 524 0066 1946     		mov	r1, r3
 525 0068 FFF7FEFF 		bl	changePeltierModuleCurrentDirection
  90:.\PIDControler.c **** 		changeFanSpeed(0,module);
 526              		.loc 1 90 0
 527 006c FB79     		ldrb	r3, [r7, #7]	@ zero_extendqisi2
 528 006e 0020     		movs	r0, #0
 529 0070 1946     		mov	r1, r3
 530 0072 FFF7FEFF 		bl	changeFanSpeed
  91:.\PIDControler.c **** 		
  92:.\PIDControler.c ****         changePeltierPWMValue(commandABS,module);
 531              		.loc 1 92 0
 532 0076 97F90F20 		ldrsb	r2, [r7, #15]
ARM GAS  C:\Users\Lois\AppData\Local\Temp\ccOyAePj.s 			page 12


 533 007a FB79     		ldrb	r3, [r7, #7]	@ zero_extendqisi2
 534 007c 1046     		mov	r0, r2
 535 007e 1946     		mov	r1, r3
 536 0080 FFF7FEFF 		bl	changePeltierPWMValue
 537              	.L27:
  93:.\PIDControler.c ****     }
  94:.\PIDControler.c **** }
 538              		.loc 1 94 0
 539 0084 1037     		adds	r7, r7, #16
 540              		.cfi_def_cfa_offset 8
 541 0086 BD46     		mov	sp, r7
 542              		.cfi_def_cfa_register 13
 543              		@ sp needed
 544 0088 80BD     		pop	{r7, pc}
 545              	.L32:
 546 008a 00BF     		.align	2
 547              	.L31:
 548 008c 00000000 		.word	mc1_5Module
 549              		.cfi_endproc
 550              	.LFE57:
 551              		.size	applyCommand, .-applyCommand
 552              		.section	.text.resetPIDSumError,"ax",%progbits
 553              		.align	2
 554              		.global	resetPIDSumError
 555              		.thumb
 556              		.thumb_func
 557              		.type	resetPIDSumError, %function
 558              	resetPIDSumError:
 559              	.LFB58:
  95:.\PIDControler.c **** 
  96:.\PIDControler.c **** 
  97:.\PIDControler.c **** void resetPIDSumError()
  98:.\PIDControler.c **** {
 560              		.loc 1 98 0
 561              		.cfi_startproc
 562              		@ args = 0, pretend = 0, frame = 0
 563              		@ frame_needed = 1, uses_anonymous_args = 0
 564              		@ link register save eliminated.
 565 0000 80B4     		push	{r7}
 566              		.cfi_def_cfa_offset 4
 567              		.cfi_offset 7, -4
 568 0002 00AF     		add	r7, sp, #0
 569              		.cfi_def_cfa_register 7
  99:.\PIDControler.c ****     integral = 0;
 570              		.loc 1 99 0
 571 0004 0549     		ldr	r1, .L34
 572 0006 4FF00002 		mov	r2, #0
 573 000a 4FF00003 		mov	r3, #0
 574 000e C1E90023 		strd	r2, [r1]
 100:.\PIDControler.c **** }
 575              		.loc 1 100 0
 576 0012 BD46     		mov	sp, r7
 577              		.cfi_def_cfa_register 13
 578              		@ sp needed
 579 0014 5DF8047B 		ldr	r7, [sp], #4
 580              		.cfi_restore 7
 581              		.cfi_def_cfa_offset 0
ARM GAS  C:\Users\Lois\AppData\Local\Temp\ccOyAePj.s 			page 13


 582 0018 7047     		bx	lr
 583              	.L35:
 584 001a 00BF     		.align	2
 585              	.L34:
 586 001c 00000000 		.word	integral
 587              		.cfi_endproc
 588              	.LFE58:
 589              		.size	resetPIDSumError, .-resetPIDSumError
 590              		.text
 591              	.Letext0:
 592              		.file 2 "c:\\program files (x86)\\cypress\\psoc creator\\3.3\\psoc creator\\import\\gnu\\arm\\4.9.
 593              		.file 3 "c:\\program files (x86)\\cypress\\psoc creator\\3.3\\psoc creator\\import\\gnu\\arm\\4.9.
 594              		.file 4 "Generated_Source\\PSoC5/cytypes.h"
 595              		.file 5 ".\\Defines.h"
 596              		.file 6 "Generated_Source\\PSoC5/core_cm3.h"