ARM GAS  C:\Users\plod1602\AppData\Local\Temp\cciCkG6V.s 			page 1


   1              		.syntax unified
   2              		.cpu cortex-m3
   3              		.fpu softvfp
   4              		.eabi_attribute 20, 1
   5              		.eabi_attribute 21, 1
   6              		.eabi_attribute 23, 3
   7              		.eabi_attribute 24, 1
   8              		.eabi_attribute 25, 1
   9              		.eabi_attribute 26, 1
  10              		.eabi_attribute 30, 6
  11              		.eabi_attribute 34, 1
  12              		.eabi_attribute 18, 4
  13              		.thumb
  14              		.file	"TAC_Submodule.c"
  15              		.text
  16              	.Ltext0:
  17              		.cfi_sections	.debug_frame
  18              		.global	__aeabi_i2d
  19              		.global	__aeabi_ddiv
  20              		.global	__aeabi_dmul
  21              		.global	__aeabi_dadd
  22              		.global	__aeabi_dcmpgt
  23              		.global	__aeabi_dcmpge
  24              		.global	__aeabi_dcmple
  25              		.section	.text.updatePeltierOutput,"ax",%progbits
  26              		.align	2
  27              		.global	updatePeltierOutput
  28              		.thumb
  29              		.thumb_func
  30              		.type	updatePeltierOutput, %function
  31              	updatePeltierOutput:
  32              	.LFB56:
  33              		.file 1 ".\\TAC_Submodule.c"
   1:.\TAC_Submodule.c **** /* ========================================
   2:.\TAC_Submodule.c ****  *
   3:.\TAC_Submodule.c ****  * Copyright YOUR COMPANY, THE YEAR
   4:.\TAC_Submodule.c ****  * All Rights Reserved
   5:.\TAC_Submodule.c ****  * UNPUBLISHED, LICENSED SOFTWARE.
   6:.\TAC_Submodule.c ****  *
   7:.\TAC_Submodule.c ****  * CONFIDENTIAL AND PROPRIETARY INFORMATION
   8:.\TAC_Submodule.c ****  * WHICH IS THE PROPERTY OF your company.
   9:.\TAC_Submodule.c ****  *
  10:.\TAC_Submodule.c ****  * ========================================
  11:.\TAC_Submodule.c **** */
  12:.\TAC_Submodule.c **** #include "TAC_Submodule.h"
  13:.\TAC_Submodule.c **** #include "PeltierCalibration.h"
  14:.\TAC_Submodule.c **** 
  15:.\TAC_Submodule.c **** 
  16:.\TAC_Submodule.c **** 
  17:.\TAC_Submodule.c **** void updatePeltierOutput(Tac_Submodule* TACPtr, double CycleTime)//, int16 currentTemp)
  18:.\TAC_Submodule.c **** {
  34              		.loc 1 18 0
  35              		.cfi_startproc
  36              		@ args = 0, pretend = 0, frame = 48
  37              		@ frame_needed = 1, uses_anonymous_args = 0
  38 0000 2DE9B043 		push	{r4, r5, r7, r8, r9, lr}
  39              		.cfi_def_cfa_offset 24
ARM GAS  C:\Users\plod1602\AppData\Local\Temp\cciCkG6V.s 			page 2


  40              		.cfi_offset 4, -24
  41              		.cfi_offset 5, -20
  42              		.cfi_offset 7, -16
  43              		.cfi_offset 8, -12
  44              		.cfi_offset 9, -8
  45              		.cfi_offset 14, -4
  46 0004 8CB0     		sub	sp, sp, #48
  47              		.cfi_def_cfa_offset 72
  48 0006 00AF     		add	r7, sp, #0
  49              		.cfi_def_cfa_register 7
  50 0008 F860     		str	r0, [r7, #12]
  51 000a C7E90023 		strd	r2, [r7]
  19:.\TAC_Submodule.c ****     // Updates current temperature of the Peltier element by reading the corresponding thermistor.
  20:.\TAC_Submodule.c ****     TACPtr->currentTemperature = getThermistorTemp(TACPtr);   
  52              		.loc 1 20 0
  53 000e F868     		ldr	r0, [r7, #12]
  54 0010 FFF7FEFF 		bl	getThermistorTemp
  55 0014 0346     		mov	r3, r0
  56 0016 1A46     		mov	r2, r3
  57 0018 FB68     		ldr	r3, [r7, #12]
  58 001a 1A81     		strh	r2, [r3, #8]	@ movhi
  21:.\TAC_Submodule.c ****     
  22:.\TAC_Submodule.c ****     //Filling Error and error tab
  23:.\TAC_Submodule.c ****     int16 tempErr = TACPtr->targetTemperature-TACPtr->currentTemperature;
  59              		.loc 1 23 0
  60 001c FB68     		ldr	r3, [r7, #12]
  61 001e DB88     		ldrh	r3, [r3, #6]
  62 0020 9AB2     		uxth	r2, r3
  63 0022 FB68     		ldr	r3, [r7, #12]
  64 0024 1B89     		ldrh	r3, [r3, #8]
  65 0026 9BB2     		uxth	r3, r3
  66 0028 D31A     		subs	r3, r2, r3
  67 002a 9BB2     		uxth	r3, r3
  68 002c FB84     		strh	r3, [r7, #38]	@ movhi
  24:.\TAC_Submodule.c ****     double diffErr=0;
  69              		.loc 1 24 0
  70 002e 4FF00002 		mov	r2, #0
  71 0032 4FF00003 		mov	r3, #0
  72 0036 C7E90A23 		strd	r2, [r7, #40]
  25:.\TAC_Submodule.c ****     double intErr=0;
  73              		.loc 1 25 0
  74 003a 4FF00002 		mov	r2, #0
  75 003e 4FF00003 		mov	r3, #0
  76 0042 C7E90623 		strd	r2, [r7, #24]
  26:.\TAC_Submodule.c ****     if (*TACPtr->errorTabCounter>=NB_OF_ACC_ERROR)
  77              		.loc 1 26 0
  78 0046 FB68     		ldr	r3, [r7, #12]
  79 0048 DB6A     		ldr	r3, [r3, #44]
  80 004a 1B78     		ldrb	r3, [r3]	@ zero_extendqisi2
  81 004c 042B     		cmp	r3, #4
  82 004e 03D9     		bls	.L2
  27:.\TAC_Submodule.c ****     {
  28:.\TAC_Submodule.c ****         *TACPtr->errorTabCounter=0;
  83              		.loc 1 28 0
  84 0050 FB68     		ldr	r3, [r7, #12]
  85 0052 DB6A     		ldr	r3, [r3, #44]
  86 0054 0022     		movs	r2, #0
ARM GAS  C:\Users\plod1602\AppData\Local\Temp\cciCkG6V.s 			page 3


  87 0056 1A70     		strb	r2, [r3]
  88              	.L2:
  29:.\TAC_Submodule.c ****     }
  30:.\TAC_Submodule.c **** 
  31:.\TAC_Submodule.c ****     TACPtr->errorTabPtr[*TACPtr->errorTabCounter]=tempErr;
  89              		.loc 1 31 0
  90 0058 FB68     		ldr	r3, [r7, #12]
  91 005a 9A6A     		ldr	r2, [r3, #40]
  92 005c FB68     		ldr	r3, [r7, #12]
  93 005e DB6A     		ldr	r3, [r3, #44]
  94 0060 1B78     		ldrb	r3, [r3]	@ zero_extendqisi2
  95 0062 5B00     		lsls	r3, r3, #1
  96 0064 1344     		add	r3, r3, r2
  97 0066 FA8C     		ldrh	r2, [r7, #38]	@ movhi
  98 0068 1A80     		strh	r2, [r3]	@ movhi
  32:.\TAC_Submodule.c ****     
  33:.\TAC_Submodule.c ****     if (*TACPtr->errorTabCounter==0)
  99              		.loc 1 33 0
 100 006a FB68     		ldr	r3, [r7, #12]
 101 006c DB6A     		ldr	r3, [r3, #44]
 102 006e 1B78     		ldrb	r3, [r3]	@ zero_extendqisi2
 103 0070 002B     		cmp	r3, #0
 104 0072 17D1     		bne	.L3
  34:.\TAC_Submodule.c ****     {
  35:.\TAC_Submodule.c ****         diffErr=(tempErr-TACPtr->errorTabPtr[NB_OF_ACC_ERROR-1])/CycleTime;
 105              		.loc 1 35 0
 106 0074 B7F92620 		ldrsh	r2, [r7, #38]
 107 0078 FB68     		ldr	r3, [r7, #12]
 108 007a 9B6A     		ldr	r3, [r3, #40]
 109 007c 0833     		adds	r3, r3, #8
 110 007e 1B88     		ldrh	r3, [r3]
 111 0080 1BB2     		sxth	r3, r3
 112 0082 D31A     		subs	r3, r2, r3
 113 0084 1846     		mov	r0, r3
 114 0086 FFF7FEFF 		bl	__aeabi_i2d
 115 008a 0246     		mov	r2, r0
 116 008c 0B46     		mov	r3, r1
 117 008e 1046     		mov	r0, r2
 118 0090 1946     		mov	r1, r3
 119 0092 D7E90023 		ldrd	r2, [r7]
 120 0096 FFF7FEFF 		bl	__aeabi_ddiv
 121 009a 0246     		mov	r2, r0
 122 009c 0B46     		mov	r3, r1
 123 009e C7E90A23 		strd	r2, [r7, #40]
 124 00a2 1DE0     		b	.L4
 125              	.L3:
  36:.\TAC_Submodule.c ****     }
  37:.\TAC_Submodule.c ****     else
  38:.\TAC_Submodule.c ****     {
  39:.\TAC_Submodule.c ****         diffErr=(tempErr-TACPtr->errorTabPtr[*TACPtr->errorTabCounter-1])/CycleTime;
 126              		.loc 1 39 0
 127 00a4 B7F92620 		ldrsh	r2, [r7, #38]
 128 00a8 FB68     		ldr	r3, [r7, #12]
 129 00aa 996A     		ldr	r1, [r3, #40]
 130 00ac FB68     		ldr	r3, [r7, #12]
 131 00ae DB6A     		ldr	r3, [r3, #44]
 132 00b0 1B78     		ldrb	r3, [r3]	@ zero_extendqisi2
ARM GAS  C:\Users\plod1602\AppData\Local\Temp\cciCkG6V.s 			page 4


 133 00b2 03F10043 		add	r3, r3, #-2147483648
 134 00b6 013B     		subs	r3, r3, #1
 135 00b8 5B00     		lsls	r3, r3, #1
 136 00ba 0B44     		add	r3, r3, r1
 137 00bc 1B88     		ldrh	r3, [r3]
 138 00be 1BB2     		sxth	r3, r3
 139 00c0 D31A     		subs	r3, r2, r3
 140 00c2 1846     		mov	r0, r3
 141 00c4 FFF7FEFF 		bl	__aeabi_i2d
 142 00c8 0246     		mov	r2, r0
 143 00ca 0B46     		mov	r3, r1
 144 00cc 1046     		mov	r0, r2
 145 00ce 1946     		mov	r1, r3
 146 00d0 D7E90023 		ldrd	r2, [r7]
 147 00d4 FFF7FEFF 		bl	__aeabi_ddiv
 148 00d8 0246     		mov	r2, r0
 149 00da 0B46     		mov	r3, r1
 150 00dc C7E90A23 		strd	r2, [r7, #40]
 151              	.L4:
  40:.\TAC_Submodule.c ****     }
  41:.\TAC_Submodule.c ****     *TACPtr->errorTabCounter+=1;
 152              		.loc 1 41 0
 153 00e0 FB68     		ldr	r3, [r7, #12]
 154 00e2 DB6A     		ldr	r3, [r3, #44]
 155 00e4 FA68     		ldr	r2, [r7, #12]
 156 00e6 D26A     		ldr	r2, [r2, #44]
 157 00e8 1278     		ldrb	r2, [r2]	@ zero_extendqisi2
 158 00ea 0132     		adds	r2, r2, #1
 159 00ec D2B2     		uxtb	r2, r2
 160 00ee 1A70     		strb	r2, [r3]
  42:.\TAC_Submodule.c ****     intErr=getArraySum(&TACPtr->errorTabPtr[0], NB_OF_ACC_ERROR);
 161              		.loc 1 42 0
 162 00f0 FB68     		ldr	r3, [r7, #12]
 163 00f2 9B6A     		ldr	r3, [r3, #40]
 164 00f4 1846     		mov	r0, r3
 165 00f6 0521     		movs	r1, #5
 166 00f8 FFF7FEFF 		bl	getArraySum
 167 00fc C7E90601 		strd	r0, [r7, #24]
  43:.\TAC_Submodule.c ****     
  44:.\TAC_Submodule.c ****     
  45:.\TAC_Submodule.c ****     
  46:.\TAC_Submodule.c ****     
  47:.\TAC_Submodule.c ****     
  48:.\TAC_Submodule.c ****     // If the module is in waiting mode and the peltier is still on, we shut it off.
  49:.\TAC_Submodule.c ****     if (TACPtr->temperatureMode == Waiting && TACPtr->peltierState == peltierEnabled)
 168              		.loc 1 49 0
 169 0100 FB68     		ldr	r3, [r7, #12]
 170 0102 1B7B     		ldrb	r3, [r3, #12]	@ zero_extendqisi2
 171 0104 042B     		cmp	r3, #4
 172 0106 0AD1     		bne	.L5
 173              		.loc 1 49 0 is_stmt 0 discriminator 1
 174 0108 FB68     		ldr	r3, [r7, #12]
 175 010a 1B79     		ldrb	r3, [r3, #4]	@ zero_extendqisi2
 176 010c 012B     		cmp	r3, #1
 177 010e 06D1     		bne	.L5
 178              	.LBB2:
  50:.\TAC_Submodule.c ****     {
ARM GAS  C:\Users\plod1602\AppData\Local\Temp\cciCkG6V.s 			page 5


  51:.\TAC_Submodule.c ****         changePeltierModuleState(peltierDisabled,TACPtr->subModuleId);
 179              		.loc 1 51 0 is_stmt 1
 180 0110 FB68     		ldr	r3, [r7, #12]
 181 0112 1B88     		ldrh	r3, [r3]
 182 0114 0020     		movs	r0, #0
 183 0116 1946     		mov	r1, r3
 184 0118 FFF7FEFF 		bl	changePeltierModuleState
 185              	.LBE2:
  50:.\TAC_Submodule.c ****     {
 186              		.loc 1 50 0
 187 011c 0DE0     		b	.L6
 188              	.L5:
  52:.\TAC_Submodule.c ****     }
  53:.\TAC_Submodule.c ****     // Else, if the module is not in waiting mode but the peltier is off, we put it on.
  54:.\TAC_Submodule.c ****     else if (TACPtr->temperatureMode != Waiting && TACPtr->peltierState == peltierDisabled)
 189              		.loc 1 54 0
 190 011e FB68     		ldr	r3, [r7, #12]
 191 0120 1B7B     		ldrb	r3, [r3, #12]	@ zero_extendqisi2
 192 0122 042B     		cmp	r3, #4
 193 0124 09D0     		beq	.L6
 194              		.loc 1 54 0 is_stmt 0 discriminator 1
 195 0126 FB68     		ldr	r3, [r7, #12]
 196 0128 1B79     		ldrb	r3, [r3, #4]	@ zero_extendqisi2
 197 012a 002B     		cmp	r3, #0
 198 012c 05D1     		bne	.L6
 199              	.LBB3:
  55:.\TAC_Submodule.c ****     {
  56:.\TAC_Submodule.c ****         changePeltierModuleState(peltierEnabled,TACPtr->subModuleId);
 200              		.loc 1 56 0 is_stmt 1
 201 012e FB68     		ldr	r3, [r7, #12]
 202 0130 1B88     		ldrh	r3, [r3]
 203 0132 0120     		movs	r0, #1
 204 0134 1946     		mov	r1, r3
 205 0136 FFF7FEFF 		bl	changePeltierModuleState
 206              	.L6:
 207              	.LBE3:
  57:.\TAC_Submodule.c ****     }
  58:.\TAC_Submodule.c ****     
  59:.\TAC_Submodule.c ****     double PID_Result = P*tempErr+I*intErr+D*diffErr;
 208              		.loc 1 59 0
 209 013a B7F92630 		ldrsh	r3, [r7, #38]
 210 013e 1846     		mov	r0, r3
 211 0140 FFF7FEFF 		bl	__aeabi_i2d
 212 0144 0246     		mov	r2, r0
 213 0146 0B46     		mov	r3, r1
 214 0148 1046     		mov	r0, r2
 215 014a 1946     		mov	r1, r3
 216 014c 4FF00002 		mov	r2, #0
 217 0150 5F4B     		ldr	r3, .L28+8
 218 0152 FFF7FEFF 		bl	__aeabi_dmul
 219 0156 0246     		mov	r2, r0
 220 0158 0B46     		mov	r3, r1
 221 015a 9046     		mov	r8, r2
 222 015c 9946     		mov	r9, r3
 223 015e D7E90601 		ldrd	r0, [r7, #24]
 224 0162 59A3     		adr	r3, .L28
 225 0164 D3E90023 		ldrd	r2, [r3]
ARM GAS  C:\Users\plod1602\AppData\Local\Temp\cciCkG6V.s 			page 6


 226 0168 FFF7FEFF 		bl	__aeabi_dmul
 227 016c 0246     		mov	r2, r0
 228 016e 0B46     		mov	r3, r1
 229 0170 4046     		mov	r0, r8
 230 0172 4946     		mov	r1, r9
 231 0174 FFF7FEFF 		bl	__aeabi_dadd
 232 0178 0246     		mov	r2, r0
 233 017a 0B46     		mov	r3, r1
 234 017c 9046     		mov	r8, r2
 235 017e 9946     		mov	r9, r3
 236 0180 D7E90A01 		ldrd	r0, [r7, #40]
 237 0184 4FF00002 		mov	r2, #0
 238 0188 4FF00003 		mov	r3, #0
 239 018c FFF7FEFF 		bl	__aeabi_dmul
 240 0190 0246     		mov	r2, r0
 241 0192 0B46     		mov	r3, r1
 242 0194 4046     		mov	r0, r8
 243 0196 4946     		mov	r1, r9
 244 0198 FFF7FEFF 		bl	__aeabi_dadd
 245 019c 0246     		mov	r2, r0
 246 019e 0B46     		mov	r3, r1
 247 01a0 C7E90423 		strd	r2, [r7, #16]
  60:.\TAC_Submodule.c ****      
  61:.\TAC_Submodule.c ****     
  62:.\TAC_Submodule.c ****     // Verify if the user asked to stop temperature maintain Or temperature is between tolerance
  63:.\TAC_Submodule.c ****     //  If not, go ahead with temperature control
  64:.\TAC_Submodule.c ****     if (TACPtr->temperatureMode!= Waiting && (tempErr>TEMP_TOLERANCE || tempErr<-TEMP_TOLERANCE))
 248              		.loc 1 64 0
 249 01a4 FB68     		ldr	r3, [r7, #12]
 250 01a6 1B7B     		ldrb	r3, [r3, #12]	@ zero_extendqisi2
 251 01a8 042B     		cmp	r3, #4
 252 01aa 7FD0     		beq	.L7
 253              		.loc 1 64 0 is_stmt 0 discriminator 1
 254 01ac B7F92630 		ldrsh	r3, [r7, #38]
 255 01b0 032B     		cmp	r3, #3
 256 01b2 04DC     		bgt	.L8
 257              		.loc 1 64 0 discriminator 2
 258 01b4 B7F92630 		ldrsh	r3, [r7, #38]
 259 01b8 13F1030F 		cmn	r3, #3
 260 01bc 76DA     		bge	.L7
 261              	.L8:
  65:.\TAC_Submodule.c ****     { 
  66:.\TAC_Submodule.c ****         // If we are in temperature control mode, we make sure the fan runs at 100% of its speed.
  67:.\TAC_Submodule.c ****         if (TACPtr->fanState != fanEnabled || TACPtr->fanSpeedPercentage != 100)
 262              		.loc 1 67 0 is_stmt 1
 263 01be FB68     		ldr	r3, [r7, #12]
 264 01c0 1B7E     		ldrb	r3, [r3, #24]	@ zero_extendqisi2
 265 01c2 012B     		cmp	r3, #1
 266 01c4 03D1     		bne	.L9
 267              		.loc 1 67 0 is_stmt 0 discriminator 1
 268 01c6 FB68     		ldr	r3, [r7, #12]
 269 01c8 DB7D     		ldrb	r3, [r3, #23]	@ zero_extendqisi2
 270 01ca 642B     		cmp	r3, #100
 271 01cc 0BD0     		beq	.L10
 272              	.L9:
 273              	.LBB4:
  68:.\TAC_Submodule.c ****         {
ARM GAS  C:\Users\plod1602\AppData\Local\Temp\cciCkG6V.s 			page 7


  69:.\TAC_Submodule.c ****             changeFanState(fanEnabled, TACPtr->subModuleId);
 274              		.loc 1 69 0 is_stmt 1
 275 01ce FB68     		ldr	r3, [r7, #12]
 276 01d0 1B88     		ldrh	r3, [r3]
 277 01d2 0120     		movs	r0, #1
 278 01d4 1946     		mov	r1, r3
 279 01d6 FFF7FEFF 		bl	changeFanState
  70:.\TAC_Submodule.c ****             changeFanSpeed(100,TACPtr->subModuleId);
 280              		.loc 1 70 0
 281 01da FB68     		ldr	r3, [r7, #12]
 282 01dc 1B88     		ldrh	r3, [r3]
 283 01de 6420     		movs	r0, #100
 284 01e0 1946     		mov	r1, r3
 285 01e2 FFF7FEFF 		bl	changeFanSpeed
 286              	.L10:
 287              	.LBE4:
  71:.\TAC_Submodule.c ****         } 
  72:.\TAC_Submodule.c ****         // Heating
  73:.\TAC_Submodule.c ****         if(PID_Result>0)
 288              		.loc 1 73 0
 289 01e6 D7E90401 		ldrd	r0, [r7, #16]
 290 01ea 4FF00002 		mov	r2, #0
 291 01ee 4FF00003 		mov	r3, #0
 292 01f2 FFF7FEFF 		bl	__aeabi_dcmpgt
 293 01f6 0346     		mov	r3, r0
 294 01f8 002B     		cmp	r3, #0
 295 01fa 23D0     		beq	.L25
  74:.\TAC_Submodule.c ****         {
  75:.\TAC_Submodule.c ****             // Make sure that the direction of the current is set to heat
  76:.\TAC_Submodule.c ****             if(TACPtr->currentDirection != Heating)
 296              		.loc 1 76 0
 297 01fc FB68     		ldr	r3, [r7, #12]
 298 01fe 5B7B     		ldrb	r3, [r3, #13]	@ zero_extendqisi2
 299 0200 002B     		cmp	r3, #0
 300 0202 06D0     		beq	.L13
 301              	.LBB5:
  77:.\TAC_Submodule.c ****             {
  78:.\TAC_Submodule.c ****                 TACPtr->temperatureMode = Maintaining_heat;
 302              		.loc 1 78 0
 303 0204 FB68     		ldr	r3, [r7, #12]
 304 0206 0022     		movs	r2, #0
 305 0208 1A73     		strb	r2, [r3, #12]
  79:.\TAC_Submodule.c ****                 changePeltierModuleCurrentDirection(Heating, TACPtr);                
 306              		.loc 1 79 0
 307 020a 0020     		movs	r0, #0
 308 020c F968     		ldr	r1, [r7, #12]
 309 020e FFF7FEFF 		bl	changePeltierModuleCurrentDirection
 310              	.L13:
 311              	.LBE5:
  80:.\TAC_Submodule.c ****             }  
  81:.\TAC_Submodule.c ****             if(PID_Result>=BEST_HEATING_PWM_PERCENTAGE)
 312              		.loc 1 81 0
 313 0212 D7E90401 		ldrd	r0, [r7, #16]
 314 0216 4FF00002 		mov	r2, #0
 315 021a 2E4B     		ldr	r3, .L28+12
 316 021c FFF7FEFF 		bl	__aeabi_dcmpge
 317 0220 0346     		mov	r3, r0
ARM GAS  C:\Users\plod1602\AppData\Local\Temp\cciCkG6V.s 			page 8


 318 0222 002B     		cmp	r3, #0
 319 0224 06D0     		beq	.L26
 320              	.LBB6:
  82:.\TAC_Submodule.c ****             {
  83:.\TAC_Submodule.c ****                 changePeltierPWMValue(BEST_HEATING_PWM_PERCENTAGE,TACPtr->subModuleId);
 321              		.loc 1 83 0
 322 0226 FB68     		ldr	r3, [r7, #12]
 323 0228 1B88     		ldrh	r3, [r3]
 324 022a 6420     		movs	r0, #100
 325 022c 1946     		mov	r1, r3
 326 022e FFF7FEFF 		bl	changePeltierPWMValue
 327              	.LBE6:
 328 0232 3AE0     		b	.L17
 329              	.L26:
 330              	.LBB7:
  84:.\TAC_Submodule.c ****             }
  85:.\TAC_Submodule.c ****             else
  86:.\TAC_Submodule.c ****             {
  87:.\TAC_Submodule.c ****                 changePeltierPWMValue(PID_Result,TACPtr->subModuleId);
 331              		.loc 1 87 0
 332 0234 FB68     		ldr	r3, [r7, #12]
 333 0236 1B88     		ldrh	r3, [r3]
 334 0238 D7E90401 		ldrd	r0, [r7, #16]
 335 023c 1A46     		mov	r2, r3
 336 023e FFF7FEFF 		bl	changePeltierPWMValue
 337              	.LBE7:
  73:.\TAC_Submodule.c ****         {
 338              		.loc 1 73 0
 339 0242 3CE0     		b	.L1
 340              	.L25:
  88:.\TAC_Submodule.c ****             }               
  89:.\TAC_Submodule.c ****         }
  90:.\TAC_Submodule.c ****         //Cooling
  91:.\TAC_Submodule.c ****         else
  92:.\TAC_Submodule.c ****         {
  93:.\TAC_Submodule.c ****             //Compensate for the power difference betwwen heating and cooling
  94:.\TAC_Submodule.c ****             PID_Result= PID_Result*3;
 341              		.loc 1 94 0
 342 0244 D7E90401 		ldrd	r0, [r7, #16]
 343 0248 4FF00002 		mov	r2, #0
 344 024c 224B     		ldr	r3, .L28+16
 345 024e FFF7FEFF 		bl	__aeabi_dmul
 346 0252 0246     		mov	r2, r0
 347 0254 0B46     		mov	r3, r1
 348 0256 C7E90423 		strd	r2, [r7, #16]
  95:.\TAC_Submodule.c ****             // Make sure that the direction of the current is set to cool
  96:.\TAC_Submodule.c ****             if(TACPtr->currentDirection != Cooling)
 349              		.loc 1 96 0
 350 025a FB68     		ldr	r3, [r7, #12]
 351 025c 5B7B     		ldrb	r3, [r3, #13]	@ zero_extendqisi2
 352 025e 012B     		cmp	r3, #1
 353 0260 06D0     		beq	.L18
 354              	.LBB8:
  97:.\TAC_Submodule.c ****             {
  98:.\TAC_Submodule.c ****                 TACPtr->temperatureMode = Maintaining_cool;
 355              		.loc 1 98 0
 356 0262 FB68     		ldr	r3, [r7, #12]
ARM GAS  C:\Users\plod1602\AppData\Local\Temp\cciCkG6V.s 			page 9


 357 0264 0222     		movs	r2, #2
 358 0266 1A73     		strb	r2, [r3, #12]
  99:.\TAC_Submodule.c ****                 changePeltierModuleCurrentDirection(Cooling, TACPtr);                
 359              		.loc 1 99 0
 360 0268 0120     		movs	r0, #1
 361 026a F968     		ldr	r1, [r7, #12]
 362 026c FFF7FEFF 		bl	changePeltierModuleCurrentDirection
 363              	.L18:
 364              	.LBE8:
 100:.\TAC_Submodule.c ****             }  
 101:.\TAC_Submodule.c ****             if(PID_Result<=-BEST_COOLING_PWM_PERCENTAGE)
 365              		.loc 1 101 0
 366 0270 D7E90401 		ldrd	r0, [r7, #16]
 367 0274 4FF00002 		mov	r2, #0
 368 0278 184B     		ldr	r3, .L28+20
 369 027a FFF7FEFF 		bl	__aeabi_dcmple
 370 027e 0346     		mov	r3, r0
 371 0280 002B     		cmp	r3, #0
 372 0282 06D0     		beq	.L27
 373              	.LBB9:
 102:.\TAC_Submodule.c ****             {
 103:.\TAC_Submodule.c ****                 changePeltierPWMValue(BEST_COOLING_PWM_PERCENTAGE,TACPtr->subModuleId);
 374              		.loc 1 103 0
 375 0284 FB68     		ldr	r3, [r7, #12]
 376 0286 1B88     		ldrh	r3, [r3]
 377 0288 5020     		movs	r0, #80
 378 028a 1946     		mov	r1, r3
 379 028c FFF7FEFF 		bl	changePeltierPWMValue
 380              	.LBE9:
 381 0290 0BE0     		b	.L17
 382              	.L27:
 383              	.LBB10:
 104:.\TAC_Submodule.c ****             }
 105:.\TAC_Submodule.c ****             else
 106:.\TAC_Submodule.c ****             {
 107:.\TAC_Submodule.c ****                 changePeltierPWMValue(-PID_Result,TACPtr->subModuleId);
 384              		.loc 1 107 0
 385 0292 3C69     		ldr	r4, [r7, #16]
 386 0294 7B69     		ldr	r3, [r7, #20]
 387 0296 83F00045 		eor	r5, r3, #-2147483648
 388 029a FB68     		ldr	r3, [r7, #12]
 389 029c 1B88     		ldrh	r3, [r3]
 390 029e 2046     		mov	r0, r4
 391 02a0 2946     		mov	r1, r5
 392 02a2 1A46     		mov	r2, r3
 393 02a4 FFF7FEFF 		bl	changePeltierPWMValue
 394              	.LBE10:
  73:.\TAC_Submodule.c ****         {
 395              		.loc 1 73 0
 396 02a8 09E0     		b	.L1
 397              	.L17:
  73:.\TAC_Submodule.c ****         {
 398              		.loc 1 73 0 is_stmt 0 discriminator 1
 399 02aa 08E0     		b	.L1
 400              	.L7:
 401              	.LBB11:
 108:.\TAC_Submodule.c ****             } 
ARM GAS  C:\Users\plod1602\AppData\Local\Temp\cciCkG6V.s 			page 10


 109:.\TAC_Submodule.c ****         }
 110:.\TAC_Submodule.c ****     }
 111:.\TAC_Submodule.c ****     // Switch peltier to wait overshoot
 112:.\TAC_Submodule.c ****     else
 113:.\TAC_Submodule.c ****     {
 114:.\TAC_Submodule.c ****         TACPtr->temperatureMode = Waiting_overshoot;
 402              		.loc 1 114 0 is_stmt 1
 403 02ac FB68     		ldr	r3, [r7, #12]
 404 02ae 0322     		movs	r2, #3
 405 02b0 1A73     		strb	r2, [r3, #12]
 115:.\TAC_Submodule.c ****         changePeltierModuleState(peltierDisabled,TACPtr->subModuleId);
 406              		.loc 1 115 0
 407 02b2 FB68     		ldr	r3, [r7, #12]
 408 02b4 1B88     		ldrh	r3, [r3]
 409 02b6 0020     		movs	r0, #0
 410 02b8 1946     		mov	r1, r3
 411 02ba FFF7FEFF 		bl	changePeltierModuleState
 412              	.L1:
 413              	.LBE11:
 116:.\TAC_Submodule.c ****     }
 117:.\TAC_Submodule.c ****     
 118:.\TAC_Submodule.c ****    
 119:.\TAC_Submodule.c **** }
 414              		.loc 1 119 0
 415 02be 3037     		adds	r7, r7, #48
 416              		.cfi_def_cfa_offset 24
 417 02c0 BD46     		mov	sp, r7
 418              		.cfi_def_cfa_register 13
 419              		@ sp needed
 420 02c2 BDE8B083 		pop	{r4, r5, r7, r8, r9, pc}
 421              	.L29:
 422 02c6 00BF     		.align	3
 423              	.L28:
 424 02c8 9A999999 		.word	-1717986918
 425 02cc 9999C93F 		.word	1070176665
 426 02d0 0000E83F 		.word	1072168960
 427 02d4 00005940 		.word	1079574528
 428 02d8 00000840 		.word	1074266112
 429 02dc 000054C0 		.word	-1068236800
 430              		.cfi_endproc
 431              	.LFE56:
 432              		.size	updatePeltierOutput, .-updatePeltierOutput
 433              		.global	__aeabi_dcmplt
 434              		.global	__aeabi_d2iz
 435              		.section	.text.updatePwmValueFromCalibrationTable,"ax",%progbits
 436              		.align	2
 437              		.global	updatePwmValueFromCalibrationTable
 438              		.thumb
 439              		.thumb_func
 440              		.type	updatePwmValueFromCalibrationTable, %function
 441              	updatePwmValueFromCalibrationTable:
 442              	.LFB57:
 120:.\TAC_Submodule.c **** 
 121:.\TAC_Submodule.c **** void updatePwmValueFromCalibrationTable(Tac_Submodule* TACPtr)
 122:.\TAC_Submodule.c **** {
 443              		.loc 1 122 0
 444              		.cfi_startproc
ARM GAS  C:\Users\plod1602\AppData\Local\Temp\cciCkG6V.s 			page 11


 445              		@ args = 0, pretend = 0, frame = 64
 446              		@ frame_needed = 1, uses_anonymous_args = 0
 447 0000 B0B5     		push	{r4, r5, r7, lr}
 448              		.cfi_def_cfa_offset 16
 449              		.cfi_offset 4, -16
 450              		.cfi_offset 5, -12
 451              		.cfi_offset 7, -8
 452              		.cfi_offset 14, -4
 453 0002 90B0     		sub	sp, sp, #64
 454              		.cfi_def_cfa_offset 80
 455 0004 00AF     		add	r7, sp, #0
 456              		.cfi_def_cfa_register 7
 457 0006 7860     		str	r0, [r7, #4]
 123:.\TAC_Submodule.c ****     boolean goodToGo = TACPtr->areCalibrationValuesRetrieved;
 458              		.loc 1 123 0
 459 0008 7B68     		ldr	r3, [r7, #4]
 460 000a 93F82430 		ldrb	r3, [r3, #36]
 461 000e 87F83F30 		strb	r3, [r7, #63]
 124:.\TAC_Submodule.c ****     
 125:.\TAC_Submodule.c ****     // Make sure to get the datas from the calibration table before starting :
 126:.\TAC_Submodule.c ****     if (goodToGo == False && TACPtr->areCalibrationValuesAvailable == True)
 462              		.loc 1 126 0
 463 0012 97F83F30 		ldrb	r3, [r7, #63]	@ zero_extendqisi2
 464 0016 002B     		cmp	r3, #0
 465 0018 0AD1     		bne	.L31
 466              		.loc 1 126 0 is_stmt 0 discriminator 1
 467 001a 7B68     		ldr	r3, [r7, #4]
 468 001c 93F82530 		ldrb	r3, [r3, #37]	@ zero_extendqisi2
 469 0020 012B     		cmp	r3, #1
 470 0022 05D1     		bne	.L31
 127:.\TAC_Submodule.c ****     {
 128:.\TAC_Submodule.c ****         goodToGo = getCalibrationTable(TACPtr);            
 471              		.loc 1 128 0 is_stmt 1
 472 0024 7868     		ldr	r0, [r7, #4]
 473 0026 FFF7FEFF 		bl	getCalibrationTable
 474 002a 0346     		mov	r3, r0
 475 002c 87F83F30 		strb	r3, [r7, #63]
 476              	.L31:
 129:.\TAC_Submodule.c ****     }    
 130:.\TAC_Submodule.c ****     
 131:.\TAC_Submodule.c ****     if (goodToGo == True)
 477              		.loc 1 131 0
 478 0030 97F83F30 		ldrb	r3, [r7, #63]	@ zero_extendqisi2
 479 0034 012B     		cmp	r3, #1
 480 0036 40F0AE80 		bne	.L30
 481              	.LBB12:
 132:.\TAC_Submodule.c ****     {
 133:.\TAC_Submodule.c ****         int x = 0;
 482              		.loc 1 133 0
 483 003a 0023     		movs	r3, #0
 484 003c BB63     		str	r3, [r7, #56]
 134:.\TAC_Submodule.c ****         int bestMatchIndex;
 135:.\TAC_Submodule.c ****         
 136:.\TAC_Submodule.c ****         int diffFromTarget = 0;
 485              		.loc 1 136 0
 486 003e 0023     		movs	r3, #0
 487 0040 3B63     		str	r3, [r7, #48]
ARM GAS  C:\Users\plod1602\AppData\Local\Temp\cciCkG6V.s 			page 12


 137:.\TAC_Submodule.c ****         int precedingDiffFromTarget = 10000000;
 488              		.loc 1 137 0
 489 0042 564B     		ldr	r3, .L42
 490 0044 FB62     		str	r3, [r7, #44]
 138:.\TAC_Submodule.c ****         
 139:.\TAC_Submodule.c ****         int indexWhenOver = 0;
 491              		.loc 1 139 0
 492 0046 0023     		movs	r3, #0
 493 0048 7B63     		str	r3, [r7, #52]
 140:.\TAC_Submodule.c ****         
 141:.\TAC_Submodule.c ****         for (x=0; x<CALIBRATION_TABLE_SIZE; x++)
 494              		.loc 1 141 0
 495 004a 0023     		movs	r3, #0
 496 004c BB63     		str	r3, [r7, #56]
 497 004e 11E0     		b	.L33
 498              	.L36:
 142:.\TAC_Submodule.c ****         {
 143:.\TAC_Submodule.c ****             if (TACPtr->calibrationValuesPtr[x] > TACPtr->targetTemperature)
 499              		.loc 1 143 0
 500 0050 7B68     		ldr	r3, [r7, #4]
 501 0052 DA69     		ldr	r2, [r3, #28]
 502 0054 BB6B     		ldr	r3, [r7, #56]
 503 0056 5B00     		lsls	r3, r3, #1
 504 0058 1344     		add	r3, r3, r2
 505 005a 1A88     		ldrh	r2, [r3]
 506 005c 7B68     		ldr	r3, [r7, #4]
 507 005e DB88     		ldrh	r3, [r3, #6]
 508 0060 12B2     		sxth	r2, r2
 509 0062 1BB2     		sxth	r3, r3
 510 0064 9A42     		cmp	r2, r3
 511 0066 02DD     		ble	.L34
 144:.\TAC_Submodule.c ****             {
 145:.\TAC_Submodule.c ****                 indexWhenOver = x;
 512              		.loc 1 145 0
 513 0068 BB6B     		ldr	r3, [r7, #56]
 514 006a 7B63     		str	r3, [r7, #52]
 146:.\TAC_Submodule.c ****                 break;
 515              		.loc 1 146 0
 516 006c 05E0     		b	.L35
 517              	.L34:
 141:.\TAC_Submodule.c ****         {
 518              		.loc 1 141 0 discriminator 2
 519 006e BB6B     		ldr	r3, [r7, #56]
 520 0070 0133     		adds	r3, r3, #1
 521 0072 BB63     		str	r3, [r7, #56]
 522              	.L33:
 141:.\TAC_Submodule.c ****         {
 523              		.loc 1 141 0 is_stmt 0 discriminator 1
 524 0074 BB6B     		ldr	r3, [r7, #56]
 525 0076 632B     		cmp	r3, #99
 526 0078 EADD     		ble	.L36
 527              	.L35:
 147:.\TAC_Submodule.c ****             }
 148:.\TAC_Submodule.c ****         }
 149:.\TAC_Submodule.c ****         
 150:.\TAC_Submodule.c ****         double diffWithPrecedentValue = TACPtr->targetTemperature - TACPtr->calibrationValuesPtr[in
 528              		.loc 1 150 0 is_stmt 1
ARM GAS  C:\Users\plod1602\AppData\Local\Temp\cciCkG6V.s 			page 13


 529 007a 7B68     		ldr	r3, [r7, #4]
 530 007c DB88     		ldrh	r3, [r3, #6]
 531 007e 1AB2     		sxth	r2, r3
 532 0080 7B68     		ldr	r3, [r7, #4]
 533 0082 D969     		ldr	r1, [r3, #28]
 534 0084 7B6B     		ldr	r3, [r7, #52]
 535 0086 03F10043 		add	r3, r3, #-2147483648
 536 008a 013B     		subs	r3, r3, #1
 537 008c 5B00     		lsls	r3, r3, #1
 538 008e 0B44     		add	r3, r3, r1
 539 0090 1B88     		ldrh	r3, [r3]
 540 0092 1BB2     		sxth	r3, r3
 541 0094 D31A     		subs	r3, r2, r3
 542 0096 1846     		mov	r0, r3
 543 0098 FFF7FEFF 		bl	__aeabi_i2d
 544 009c 0246     		mov	r2, r0
 545 009e 0B46     		mov	r3, r1
 546 00a0 C7E90823 		strd	r2, [r7, #32]
 151:.\TAC_Submodule.c ****         double ratio = diffWithPrecedentValue/(TACPtr->calibrationValuesPtr[indexWhenOver] - TACPtr
 547              		.loc 1 151 0
 548 00a4 7B68     		ldr	r3, [r7, #4]
 549 00a6 DA69     		ldr	r2, [r3, #28]
 550 00a8 7B6B     		ldr	r3, [r7, #52]
 551 00aa 5B00     		lsls	r3, r3, #1
 552 00ac 1344     		add	r3, r3, r2
 553 00ae 1B88     		ldrh	r3, [r3]
 554 00b0 1AB2     		sxth	r2, r3
 555 00b2 7B68     		ldr	r3, [r7, #4]
 556 00b4 D969     		ldr	r1, [r3, #28]
 557 00b6 7B6B     		ldr	r3, [r7, #52]
 558 00b8 03F10043 		add	r3, r3, #-2147483648
 559 00bc 013B     		subs	r3, r3, #1
 560 00be 5B00     		lsls	r3, r3, #1
 561 00c0 0B44     		add	r3, r3, r1
 562 00c2 1B88     		ldrh	r3, [r3]
 563 00c4 1BB2     		sxth	r3, r3
 564 00c6 D31A     		subs	r3, r2, r3
 565 00c8 1846     		mov	r0, r3
 566 00ca FFF7FEFF 		bl	__aeabi_i2d
 567 00ce 0246     		mov	r2, r0
 568 00d0 0B46     		mov	r3, r1
 569 00d2 D7E90801 		ldrd	r0, [r7, #32]
 570 00d6 FFF7FEFF 		bl	__aeabi_ddiv
 571 00da 0246     		mov	r2, r0
 572 00dc 0B46     		mov	r3, r1
 573 00de C7E90623 		strd	r2, [r7, #24]
 152:.\TAC_Submodule.c ****         double percentageToSaveDouble = TACPtr->percentageValuesPtr[indexWhenOver-1] + ratio*(TACPt
 574              		.loc 1 152 0
 575 00e2 7B68     		ldr	r3, [r7, #4]
 576 00e4 1A6A     		ldr	r2, [r3, #32]
 577 00e6 7B6B     		ldr	r3, [r7, #52]
 578 00e8 013B     		subs	r3, r3, #1
 579 00ea 1344     		add	r3, r3, r2
 580 00ec 1B78     		ldrb	r3, [r3]	@ zero_extendqisi2
 581 00ee 5BB2     		sxtb	r3, r3
 582 00f0 1846     		mov	r0, r3
 583 00f2 FFF7FEFF 		bl	__aeabi_i2d
ARM GAS  C:\Users\plod1602\AppData\Local\Temp\cciCkG6V.s 			page 14


 584 00f6 0446     		mov	r4, r0
 585 00f8 0D46     		mov	r5, r1
 586 00fa 7B68     		ldr	r3, [r7, #4]
 587 00fc 1A6A     		ldr	r2, [r3, #32]
 588 00fe 7B6B     		ldr	r3, [r7, #52]
 589 0100 1344     		add	r3, r3, r2
 590 0102 1B78     		ldrb	r3, [r3]	@ zero_extendqisi2
 591 0104 5AB2     		sxtb	r2, r3
 592 0106 7B68     		ldr	r3, [r7, #4]
 593 0108 196A     		ldr	r1, [r3, #32]
 594 010a 7B6B     		ldr	r3, [r7, #52]
 595 010c 013B     		subs	r3, r3, #1
 596 010e 0B44     		add	r3, r3, r1
 597 0110 1B78     		ldrb	r3, [r3]	@ zero_extendqisi2
 598 0112 5BB2     		sxtb	r3, r3
 599 0114 D31A     		subs	r3, r2, r3
 600 0116 1846     		mov	r0, r3
 601 0118 FFF7FEFF 		bl	__aeabi_i2d
 602 011c 0246     		mov	r2, r0
 603 011e 0B46     		mov	r3, r1
 604 0120 1046     		mov	r0, r2
 605 0122 1946     		mov	r1, r3
 606 0124 D7E90623 		ldrd	r2, [r7, #24]
 607 0128 FFF7FEFF 		bl	__aeabi_dmul
 608 012c 0246     		mov	r2, r0
 609 012e 0B46     		mov	r3, r1
 610 0130 2046     		mov	r0, r4
 611 0132 2946     		mov	r1, r5
 612 0134 FFF7FEFF 		bl	__aeabi_dadd
 613 0138 0246     		mov	r2, r0
 614 013a 0B46     		mov	r3, r1
 615 013c C7E90423 		strd	r2, [r7, #16]
 153:.\TAC_Submodule.c ****         
 154:.\TAC_Submodule.c ****         if (percentageToSaveDouble<0)
 616              		.loc 1 154 0
 617 0140 D7E90401 		ldrd	r0, [r7, #16]
 618 0144 4FF00002 		mov	r2, #0
 619 0148 4FF00003 		mov	r3, #0
 620 014c FFF7FEFF 		bl	__aeabi_dcmplt
 621 0150 0346     		mov	r3, r0
 622 0152 002B     		cmp	r3, #0
 623 0154 07D0     		beq	.L41
 624              	.LBB13:
 155:.\TAC_Submodule.c ****         {
 156:.\TAC_Submodule.c ****             TACPtr->temperatureMode = Maintaining_cool;
 625              		.loc 1 156 0
 626 0156 7B68     		ldr	r3, [r7, #4]
 627 0158 0222     		movs	r2, #2
 628 015a 1A73     		strb	r2, [r3, #12]
 157:.\TAC_Submodule.c ****             changePeltierModuleCurrentDirection(Cooling, TACPtr);
 629              		.loc 1 157 0
 630 015c 0120     		movs	r0, #1
 631 015e 7968     		ldr	r1, [r7, #4]
 632 0160 FFF7FEFF 		bl	changePeltierModuleCurrentDirection
 633              	.LBE13:
 634 0164 06E0     		b	.L39
 635              	.L41:
ARM GAS  C:\Users\plod1602\AppData\Local\Temp\cciCkG6V.s 			page 15


 636              	.LBB14:
 158:.\TAC_Submodule.c ****         }
 159:.\TAC_Submodule.c ****         else
 160:.\TAC_Submodule.c ****         {
 161:.\TAC_Submodule.c ****             TACPtr->temperatureMode = Maintaining_heat;
 637              		.loc 1 161 0
 638 0166 7B68     		ldr	r3, [r7, #4]
 639 0168 0022     		movs	r2, #0
 640 016a 1A73     		strb	r2, [r3, #12]
 162:.\TAC_Submodule.c ****             changePeltierModuleCurrentDirection(Heating, TACPtr);
 641              		.loc 1 162 0
 642 016c 0020     		movs	r0, #0
 643 016e 7968     		ldr	r1, [r7, #4]
 644 0170 FFF7FEFF 		bl	changePeltierModuleCurrentDirection
 645              	.L39:
 646              	.LBE14:
 163:.\TAC_Submodule.c ****         }        
 164:.\TAC_Submodule.c ****         
 165:.\TAC_Submodule.c ****         uint8 percentageToSave = abs((int8)percentageToSaveDouble);  
 647              		.loc 1 165 0
 648 0174 D7E90401 		ldrd	r0, [r7, #16]
 649 0178 FFF7FEFF 		bl	__aeabi_d2iz
 650 017c 0346     		mov	r3, r0
 651 017e DBB2     		uxtb	r3, r3
 652 0180 5BB2     		sxtb	r3, r3
 653 0182 002B     		cmp	r3, #0
 654 0184 B8BF     		it	lt
 655 0186 5B42     		rsblt	r3, r3, #0
 656 0188 FB73     		strb	r3, [r7, #15]
 166:.\TAC_Submodule.c ****         TACPtr->desiredPwmPercentage = percentageToSave;
 657              		.loc 1 166 0
 658 018a 7B68     		ldr	r3, [r7, #4]
 659 018c FA7B     		ldrb	r2, [r7, #15]
 660 018e 1A74     		strb	r2, [r3, #16]
 167:.\TAC_Submodule.c ****         TACPtr->pwmValueFromCalibration = UpToDate;
 661              		.loc 1 167 0
 662 0190 7B68     		ldr	r3, [r7, #4]
 663 0192 0122     		movs	r2, #1
 664 0194 1A75     		strb	r2, [r3, #20]
 665              	.L30:
 666              	.LBE12:
 168:.\TAC_Submodule.c ****         
 169:.\TAC_Submodule.c ****     }
 170:.\TAC_Submodule.c **** }
 667              		.loc 1 170 0
 668 0196 4037     		adds	r7, r7, #64
 669              		.cfi_def_cfa_offset 16
 670 0198 BD46     		mov	sp, r7
 671              		.cfi_def_cfa_register 13
 672              		@ sp needed
 673 019a B0BD     		pop	{r4, r5, r7, pc}
 674              	.L43:
 675              		.align	2
 676              	.L42:
 677 019c 80969800 		.word	10000000
 678              		.cfi_endproc
 679              	.LFE57:
ARM GAS  C:\Users\plod1602\AppData\Local\Temp\cciCkG6V.s 			page 16


 680              		.size	updatePwmValueFromCalibrationTable, .-updatePwmValueFromCalibrationTable
 681              		.section	.text.areCalibrationValuesAvailable,"ax",%progbits
 682              		.align	2
 683              		.global	areCalibrationValuesAvailable
 684              		.thumb
 685              		.thumb_func
 686              		.type	areCalibrationValuesAvailable, %function
 687              	areCalibrationValuesAvailable:
 688              	.LFB58:
 171:.\TAC_Submodule.c **** 
 172:.\TAC_Submodule.c **** boolean areCalibrationValuesAvailable(Tac_Submodule* TACPtr)
 173:.\TAC_Submodule.c **** {
 689              		.loc 1 173 0
 690              		.cfi_startproc
 691              		@ args = 0, pretend = 0, frame = 24
 692              		@ frame_needed = 1, uses_anonymous_args = 0
 693              		@ link register save eliminated.
 694 0000 80B4     		push	{r7}
 695              		.cfi_def_cfa_offset 4
 696              		.cfi_offset 7, -4
 697 0002 87B0     		sub	sp, sp, #28
 698              		.cfi_def_cfa_offset 32
 699 0004 00AF     		add	r7, sp, #0
 700              		.cfi_def_cfa_register 7
 701 0006 7860     		str	r0, [r7, #4]
 174:.\TAC_Submodule.c ****     int i;
 175:.\TAC_Submodule.c ****     int mean;
 176:.\TAC_Submodule.c ****     int sum = 0;
 702              		.loc 1 176 0
 703 0008 0023     		movs	r3, #0
 704 000a 3B61     		str	r3, [r7, #16]
 177:.\TAC_Submodule.c ****     
 178:.\TAC_Submodule.c ****     for (i=0; i<10; i++)
 705              		.loc 1 178 0
 706 000c 0023     		movs	r3, #0
 707 000e 7B61     		str	r3, [r7, #20]
 708 0010 0CE0     		b	.L45
 709              	.L46:
 179:.\TAC_Submodule.c ****     {        
 180:.\TAC_Submodule.c ****         sum += TACPtr->calibrationValuesPtr[i];        
 710              		.loc 1 180 0 discriminator 3
 711 0012 7B68     		ldr	r3, [r7, #4]
 712 0014 DA69     		ldr	r2, [r3, #28]
 713 0016 7B69     		ldr	r3, [r7, #20]
 714 0018 5B00     		lsls	r3, r3, #1
 715 001a 1344     		add	r3, r3, r2
 716 001c 1B88     		ldrh	r3, [r3]
 717 001e 1BB2     		sxth	r3, r3
 718 0020 3A69     		ldr	r2, [r7, #16]
 719 0022 1344     		add	r3, r3, r2
 720 0024 3B61     		str	r3, [r7, #16]
 178:.\TAC_Submodule.c ****     {        
 721              		.loc 1 178 0 discriminator 3
 722 0026 7B69     		ldr	r3, [r7, #20]
 723 0028 0133     		adds	r3, r3, #1
 724 002a 7B61     		str	r3, [r7, #20]
 725              	.L45:
ARM GAS  C:\Users\plod1602\AppData\Local\Temp\cciCkG6V.s 			page 17


 178:.\TAC_Submodule.c ****     {        
 726              		.loc 1 178 0 is_stmt 0 discriminator 1
 727 002c 7B69     		ldr	r3, [r7, #20]
 728 002e 092B     		cmp	r3, #9
 729 0030 EFDD     		ble	.L46
 181:.\TAC_Submodule.c ****     }
 182:.\TAC_Submodule.c ****     mean = sum/10;
 730              		.loc 1 182 0 is_stmt 1
 731 0032 3B69     		ldr	r3, [r7, #16]
 732 0034 0D4A     		ldr	r2, .L49
 733 0036 82FB0312 		smull	r1, r2, r2, r3
 734 003a 9210     		asrs	r2, r2, #2
 735 003c DB17     		asrs	r3, r3, #31
 736 003e D31A     		subs	r3, r2, r3
 737 0040 FB60     		str	r3, [r7, #12]
 183:.\TAC_Submodule.c ****     
 184:.\TAC_Submodule.c ****     if (mean==0)
 738              		.loc 1 184 0
 739 0042 FB68     		ldr	r3, [r7, #12]
 740 0044 002B     		cmp	r3, #0
 741 0046 05D1     		bne	.L47
 185:.\TAC_Submodule.c ****     {
 186:.\TAC_Submodule.c ****         TACPtr->areCalibrationValuesAvailable = False;
 742              		.loc 1 186 0
 743 0048 7B68     		ldr	r3, [r7, #4]
 744 004a 0022     		movs	r2, #0
 745 004c 83F82520 		strb	r2, [r3, #37]
 187:.\TAC_Submodule.c ****         return False;
 746              		.loc 1 187 0
 747 0050 0023     		movs	r3, #0
 748 0052 04E0     		b	.L48
 749              	.L47:
 188:.\TAC_Submodule.c ****     }
 189:.\TAC_Submodule.c ****     else
 190:.\TAC_Submodule.c ****     {
 191:.\TAC_Submodule.c ****         TACPtr->areCalibrationValuesAvailable = True;
 750              		.loc 1 191 0
 751 0054 7B68     		ldr	r3, [r7, #4]
 752 0056 0122     		movs	r2, #1
 753 0058 83F82520 		strb	r2, [r3, #37]
 192:.\TAC_Submodule.c ****         return True;
 754              		.loc 1 192 0
 755 005c 0123     		movs	r3, #1
 756              	.L48:
 193:.\TAC_Submodule.c ****     }
 194:.\TAC_Submodule.c **** }
 757              		.loc 1 194 0
 758 005e 1846     		mov	r0, r3
 759 0060 1C37     		adds	r7, r7, #28
 760              		.cfi_def_cfa_offset 4
 761 0062 BD46     		mov	sp, r7
 762              		.cfi_def_cfa_register 13
 763              		@ sp needed
 764 0064 5DF8047B 		ldr	r7, [sp], #4
 765              		.cfi_restore 7
 766              		.cfi_def_cfa_offset 0
 767 0068 7047     		bx	lr
ARM GAS  C:\Users\plod1602\AppData\Local\Temp\cciCkG6V.s 			page 18


 768              	.L50:
 769 006a 00BF     		.align	2
 770              	.L49:
 771 006c 67666666 		.word	1717986919
 772              		.cfi_endproc
 773              	.LFE58:
 774              		.size	areCalibrationValuesAvailable, .-areCalibrationValuesAvailable
 775              		.section	.text.getArraySum,"ax",%progbits
 776              		.align	2
 777              		.global	getArraySum
 778              		.thumb
 779              		.thumb_func
 780              		.type	getArraySum, %function
 781              	getArraySum:
 782              	.LFB59:
 195:.\TAC_Submodule.c **** 
 196:.\TAC_Submodule.c **** // Returns the mean value of all data found in "tab"
 197:.\TAC_Submodule.c **** 
 198:.\TAC_Submodule.c **** double getArraySum(int16* tab, int16 size)
 199:.\TAC_Submodule.c **** {
 783              		.loc 1 199 0
 784              		.cfi_startproc
 785              		@ args = 0, pretend = 0, frame = 24
 786              		@ frame_needed = 1, uses_anonymous_args = 0
 787 0000 80B5     		push	{r7, lr}
 788              		.cfi_def_cfa_offset 8
 789              		.cfi_offset 7, -8
 790              		.cfi_offset 14, -4
 791 0002 86B0     		sub	sp, sp, #24
 792              		.cfi_def_cfa_offset 32
 793 0004 00AF     		add	r7, sp, #0
 794              		.cfi_def_cfa_register 7
 795 0006 7860     		str	r0, [r7, #4]
 796 0008 0B46     		mov	r3, r1
 797 000a 7B80     		strh	r3, [r7, #2]	@ movhi
 200:.\TAC_Submodule.c ****     int i = 0;
 798              		.loc 1 200 0
 799 000c 0023     		movs	r3, #0
 800 000e 7B61     		str	r3, [r7, #20]
 201:.\TAC_Submodule.c ****     double sum = 0;
 801              		.loc 1 201 0
 802 0010 4FF00002 		mov	r2, #0
 803 0014 4FF00003 		mov	r3, #0
 804 0018 C7E90223 		strd	r2, [r7, #8]
 202:.\TAC_Submodule.c ****     for(i = 0; i < size; i++)
 805              		.loc 1 202 0
 806 001c 0023     		movs	r3, #0
 807 001e 7B61     		str	r3, [r7, #20]
 808 0020 15E0     		b	.L52
 809              	.L53:
 203:.\TAC_Submodule.c ****     {
 204:.\TAC_Submodule.c ****         sum += tab[i];
 810              		.loc 1 204 0 discriminator 3
 811 0022 7B69     		ldr	r3, [r7, #20]
 812 0024 5B00     		lsls	r3, r3, #1
 813 0026 7A68     		ldr	r2, [r7, #4]
 814 0028 1344     		add	r3, r3, r2
ARM GAS  C:\Users\plod1602\AppData\Local\Temp\cciCkG6V.s 			page 19


 815 002a 1B88     		ldrh	r3, [r3]
 816 002c 1BB2     		sxth	r3, r3
 817 002e 1846     		mov	r0, r3
 818 0030 FFF7FEFF 		bl	__aeabi_i2d
 819 0034 0246     		mov	r2, r0
 820 0036 0B46     		mov	r3, r1
 821 0038 D7E90201 		ldrd	r0, [r7, #8]
 822 003c FFF7FEFF 		bl	__aeabi_dadd
 823 0040 0246     		mov	r2, r0
 824 0042 0B46     		mov	r3, r1
 825 0044 C7E90223 		strd	r2, [r7, #8]
 202:.\TAC_Submodule.c ****     for(i = 0; i < size; i++)
 826              		.loc 1 202 0 discriminator 3
 827 0048 7B69     		ldr	r3, [r7, #20]
 828 004a 0133     		adds	r3, r3, #1
 829 004c 7B61     		str	r3, [r7, #20]
 830              	.L52:
 202:.\TAC_Submodule.c ****     for(i = 0; i < size; i++)
 831              		.loc 1 202 0 is_stmt 0 discriminator 1
 832 004e B7F90220 		ldrsh	r2, [r7, #2]
 833 0052 7B69     		ldr	r3, [r7, #20]
 834 0054 9A42     		cmp	r2, r3
 835 0056 E4DC     		bgt	.L53
 205:.\TAC_Submodule.c ****     }
 206:.\TAC_Submodule.c ****     return sum; 
 836              		.loc 1 206 0 is_stmt 1
 837 0058 D7E90223 		ldrd	r2, [r7, #8]
 207:.\TAC_Submodule.c **** }
 838              		.loc 1 207 0
 839 005c 1046     		mov	r0, r2
 840 005e 1946     		mov	r1, r3
 841 0060 1837     		adds	r7, r7, #24
 842              		.cfi_def_cfa_offset 8
 843 0062 BD46     		mov	sp, r7
 844              		.cfi_def_cfa_register 13
 845              		@ sp needed
 846 0064 80BD     		pop	{r7, pc}
 847              		.cfi_endproc
 848              	.LFE59:
 849              		.size	getArraySum, .-getArraySum
 850 0066 00BF     		.text
 851              	.Letext0:
 852              		.file 2 "c:\\program files (x86)\\cypress\\psoc creator\\3.3\\psoc creator\\import\\gnu\\arm\\4.9.
 853              		.file 3 "c:\\program files (x86)\\cypress\\psoc creator\\3.3\\psoc creator\\import\\gnu\\arm\\4.9.
 854              		.file 4 "Generated_Source\\PSoC5/cytypes.h"
 855              		.file 5 "./Defines.h"
 856              		.file 6 "Generated_Source\\PSoC5/core_cm3.h"