ARM GAS  C:\Users\Lois\AppData\Local\Temp\ccLl3dXb.s 			page 1


   1              		.syntax unified
   2              		.cpu cortex-m3
   3              		.fpu softvfp
   4              		.eabi_attribute 20, 1
   5              		.eabi_attribute 21, 1
   6              		.eabi_attribute 23, 3
   7              		.eabi_attribute 24, 1
   8              		.eabi_attribute 25, 1
   9              		.eabi_attribute 26, 1
  10              		.eabi_attribute 30, 6
  11              		.eabi_attribute 34, 1
  12              		.eabi_attribute 18, 4
  13              		.thumb
  14              		.file	"Termistor.c"
  15              		.text
  16              	.Ltext0:
  17              		.cfi_sections	.debug_frame
  18              		.section	.text.getThermistorTemp,"ax",%progbits
  19              		.align	2
  20              		.global	getThermistorTemp
  21              		.thumb
  22              		.thumb_func
  23              		.type	getThermistorTemp, %function
  24              	getThermistorTemp:
  25              	.LFB56:
  26              		.file 1 ".\\Termistor.c"
   1:.\Termistor.c **** /* ========================================
   2:.\Termistor.c ****  *
   3:.\Termistor.c ****  * Copyright YOUR COMPANY, THE YEAR
   4:.\Termistor.c ****  * All Rights Reserved
   5:.\Termistor.c ****  * UNPUBLISHED, LICENSED SOFTWARE.
   6:.\Termistor.c ****  *
   7:.\Termistor.c ****  * CONFIDENTIAL AND PROPRIETARY INFORMATION
   8:.\Termistor.c ****  * WHICH IS THE PROPERTY OF your company.
   9:.\Termistor.c ****  *
  10:.\Termistor.c ****  * ========================================
  11:.\Termistor.c **** */
  12:.\Termistor.c **** #include "Termistor.h"
  13:.\Termistor.c **** 
  14:.\Termistor.c **** extern MC1_5Module  mc1_5Module [2];
  15:.\Termistor.c **** 
  16:.\Termistor.c **** /*===========================================================================*/
  17:.\Termistor.c **** // TODO: Adapt function to select which thermistor we want to read and to modify SM1 or SM2 current
  18:.\Termistor.c **** // Returns temperature * 10. (Ex. real value = 1.5 -> returns 15 degrees celsius)
  19:.\Termistor.c **** int16 getThermistorTemp(uint8 module)
  20:.\Termistor.c **** {    
  27              		.loc 1 20 0
  28              		.cfi_startproc
  29              		@ args = 0, pretend = 0, frame = 24
  30              		@ frame_needed = 1, uses_anonymous_args = 0
  31 0000 80B5     		push	{r7, lr}
  32              		.cfi_def_cfa_offset 8
  33              		.cfi_offset 7, -8
  34              		.cfi_offset 14, -4
  35 0002 86B0     		sub	sp, sp, #24
  36              		.cfi_def_cfa_offset 32
  37 0004 00AF     		add	r7, sp, #0
ARM GAS  C:\Users\Lois\AppData\Local\Temp\ccLl3dXb.s 			page 2


  38              		.cfi_def_cfa_register 7
  39 0006 0346     		mov	r3, r0
  40 0008 FB71     		strb	r3, [r7, #7]
  21:.\Termistor.c ****     /* Find temperature in Celsius degree using the component API */
  22:.\Termistor.c ****     /*int16 temperature = (Thermistor_1_GetTemperature(Thermistor_1_GetResistance(MeasureResistorVo
  23:.\Termistor.c ****     */
  24:.\Termistor.c ****     int32 iVtherm, iVref;
  25:.\Termistor.c ****     uint32 iRes, iRes_ext;
  26:.\Termistor.c ****     int32 currentReading = 0;
  41              		.loc 1 26 0
  42 000a 0023     		movs	r3, #0
  43 000c 7B61     		str	r3, [r7, #20]
  27:.\Termistor.c ****     int16 vRef, vTherm;
  28:.\Termistor.c ****     
  29:.\Termistor.c ****     
  30:.\Termistor.c ****     /* Read voltage across thermistor */             
  31:.\Termistor.c ****     ADC_StartConvert();
  44              		.loc 1 31 0
  45 000e FFF7FEFF 		bl	ADC_StartConvert
  32:.\Termistor.c ****     ADC_IsEndConversion(ADC_WAIT_FOR_RESULT);
  46              		.loc 1 32 0
  47 0012 0020     		movs	r0, #0
  48 0014 FFF7FEFF 		bl	ADC_IsEndConversion
  33:.\Termistor.c ****     vTherm = ADC_CountsTo_mVolts(ADC_GetResult32()); 
  49              		.loc 1 33 0
  50 0018 FFF7FEFF 		bl	ADC_GetResult32
  51 001c 0346     		mov	r3, r0
  52 001e 1846     		mov	r0, r3
  53 0020 FFF7FEFF 		bl	ADC_CountsTo_mVolts
  54 0024 0346     		mov	r3, r0
  55 0026 7B82     		strh	r3, [r7, #18]	@ movhi
  34:.\Termistor.c ****     vRef = VDDA*1000-vTherm;
  56              		.loc 1 34 0
  57 0028 7B8A     		ldrh	r3, [r7, #18]
  58 002a C3F59C53 		rsb	r3, r3, #4992
  59 002e 0833     		adds	r3, r3, #8
  60 0030 9BB2     		uxth	r3, r3
  61 0032 3B82     		strh	r3, [r7, #16]	@ movhi
  35:.\Termistor.c ****     
  36:.\Termistor.c ****     /* Find temperature in Celsius degree using the component API */
  37:.\Termistor.c ****     iRes = Thermistor_1_GetResistance(vRef, vTherm);
  62              		.loc 1 37 0
  63 0034 B7F91020 		ldrsh	r2, [r7, #16]
  64 0038 B7F91230 		ldrsh	r3, [r7, #18]
  65 003c 1046     		mov	r0, r2
  66 003e 1946     		mov	r1, r3
  67 0040 FFF7FEFF 		bl	Thermistor_1_GetResistance
  68 0044 F860     		str	r0, [r7, #12]
  38:.\Termistor.c ****     currentReading = Thermistor_1_GetTemperature(iRes);
  69              		.loc 1 38 0
  70 0046 F868     		ldr	r0, [r7, #12]
  71 0048 FFF7FEFF 		bl	Thermistor_1_GetTemperature
  72 004c 0346     		mov	r3, r0
  73 004e 7B61     		str	r3, [r7, #20]
  39:.\Termistor.c ****                
  40:.\Termistor.c ****     int16 tempToSave = currentReading/10;
  74              		.loc 1 40 0
ARM GAS  C:\Users\Lois\AppData\Local\Temp\ccLl3dXb.s 			page 3


  75 0050 7B69     		ldr	r3, [r7, #20]
  76 0052 0A4A     		ldr	r2, .L3
  77 0054 82FB0312 		smull	r1, r2, r2, r3
  78 0058 9210     		asrs	r2, r2, #2
  79 005a DB17     		asrs	r3, r3, #31
  80 005c D31A     		subs	r3, r2, r3
  81 005e 7B81     		strh	r3, [r7, #10]	@ movhi
  41:.\Termistor.c **** 
  42:.\Termistor.c ****     mc1_5Module [module].currentTemperature = tempToSave; 
  82              		.loc 1 42 0
  83 0060 FB79     		ldrb	r3, [r7, #7]	@ zero_extendqisi2
  84 0062 074A     		ldr	r2, .L3+4
  85 0064 2C21     		movs	r1, #44
  86 0066 01FB03F3 		mul	r3, r1, r3
  87 006a 1344     		add	r3, r3, r2
  88 006c 7A89     		ldrh	r2, [r7, #10]	@ movhi
  89 006e DA80     		strh	r2, [r3, #6]	@ movhi
  43:.\Termistor.c ****     
  44:.\Termistor.c ****     return tempToSave;
  90              		.loc 1 44 0
  91 0070 7B89     		ldrh	r3, [r7, #10]
  92 0072 1BB2     		sxth	r3, r3
  45:.\Termistor.c **** }
  93              		.loc 1 45 0
  94 0074 1846     		mov	r0, r3
  95 0076 1837     		adds	r7, r7, #24
  96              		.cfi_def_cfa_offset 8
  97 0078 BD46     		mov	sp, r7
  98              		.cfi_def_cfa_register 13
  99              		@ sp needed
 100 007a 80BD     		pop	{r7, pc}
 101              	.L4:
 102              		.align	2
 103              	.L3:
 104 007c 67666666 		.word	1717986919
 105 0080 00000000 		.word	mc1_5Module
 106              		.cfi_endproc
 107              	.LFE56:
 108              		.size	getThermistorTemp, .-getThermistorTemp
 109              		.section	.text.getArrayMean,"ax",%progbits
 110              		.align	2
 111              		.global	getArrayMean
 112              		.thumb
 113              		.thumb_func
 114              		.type	getArrayMean, %function
 115              	getArrayMean:
 116              	.LFB57:
  46:.\Termistor.c **** 
  47:.\Termistor.c **** 
  48:.\Termistor.c **** int16 getArrayMean(int16* tab, int16 size)
  49:.\Termistor.c **** {
 117              		.loc 1 49 0
 118              		.cfi_startproc
 119              		@ args = 0, pretend = 0, frame = 16
 120              		@ frame_needed = 1, uses_anonymous_args = 0
 121              		@ link register save eliminated.
 122 0000 80B4     		push	{r7}
ARM GAS  C:\Users\Lois\AppData\Local\Temp\ccLl3dXb.s 			page 4


 123              		.cfi_def_cfa_offset 4
 124              		.cfi_offset 7, -4
 125 0002 85B0     		sub	sp, sp, #20
 126              		.cfi_def_cfa_offset 24
 127 0004 00AF     		add	r7, sp, #0
 128              		.cfi_def_cfa_register 7
 129 0006 7860     		str	r0, [r7, #4]
 130 0008 0B46     		mov	r3, r1
 131 000a 7B80     		strh	r3, [r7, #2]	@ movhi
  50:.\Termistor.c ****     int i = 0;
 132              		.loc 1 50 0
 133 000c 0023     		movs	r3, #0
 134 000e FB60     		str	r3, [r7, #12]
  51:.\Termistor.c ****     int mean = 0;
 135              		.loc 1 51 0
 136 0010 0023     		movs	r3, #0
 137 0012 BB60     		str	r3, [r7, #8]
  52:.\Termistor.c ****     for(i = 0; i < size; i++)
 138              		.loc 1 52 0
 139 0014 0023     		movs	r3, #0
 140 0016 FB60     		str	r3, [r7, #12]
 141 0018 0BE0     		b	.L6
 142              	.L7:
  53:.\Termistor.c ****     {
  54:.\Termistor.c ****         mean += tab[i];
 143              		.loc 1 54 0 discriminator 3
 144 001a FB68     		ldr	r3, [r7, #12]
 145 001c 5B00     		lsls	r3, r3, #1
 146 001e 7A68     		ldr	r2, [r7, #4]
 147 0020 1344     		add	r3, r3, r2
 148 0022 1B88     		ldrh	r3, [r3]
 149 0024 1BB2     		sxth	r3, r3
 150 0026 BA68     		ldr	r2, [r7, #8]
 151 0028 1344     		add	r3, r3, r2
 152 002a BB60     		str	r3, [r7, #8]
  52:.\Termistor.c ****     for(i = 0; i < size; i++)
 153              		.loc 1 52 0 discriminator 3
 154 002c FB68     		ldr	r3, [r7, #12]
 155 002e 0133     		adds	r3, r3, #1
 156 0030 FB60     		str	r3, [r7, #12]
 157              	.L6:
  52:.\Termistor.c ****     for(i = 0; i < size; i++)
 158              		.loc 1 52 0 is_stmt 0 discriminator 1
 159 0032 B7F90220 		ldrsh	r2, [r7, #2]
 160 0036 FB68     		ldr	r3, [r7, #12]
 161 0038 9A42     		cmp	r2, r3
 162 003a EEDC     		bgt	.L7
  55:.\Termistor.c ****     }
  56:.\Termistor.c ****     mean = mean/size;
 163              		.loc 1 56 0 is_stmt 1
 164 003c B7F90230 		ldrsh	r3, [r7, #2]
 165 0040 BA68     		ldr	r2, [r7, #8]
 166 0042 92FBF3F3 		sdiv	r3, r2, r3
 167 0046 BB60     		str	r3, [r7, #8]
  57:.\Termistor.c ****     return mean; // Multiplication par 10 pour ne pas dépasser les limites du int16
 168              		.loc 1 57 0
 169 0048 BB68     		ldr	r3, [r7, #8]
ARM GAS  C:\Users\Lois\AppData\Local\Temp\ccLl3dXb.s 			page 5


 170 004a 9BB2     		uxth	r3, r3
 171 004c 1BB2     		sxth	r3, r3
  58:.\Termistor.c **** }
 172              		.loc 1 58 0
 173 004e 1846     		mov	r0, r3
 174 0050 1437     		adds	r7, r7, #20
 175              		.cfi_def_cfa_offset 4
 176 0052 BD46     		mov	sp, r7
 177              		.cfi_def_cfa_register 13
 178              		@ sp needed
 179 0054 5DF8047B 		ldr	r7, [sp], #4
 180              		.cfi_restore 7
 181              		.cfi_def_cfa_offset 0
 182 0058 7047     		bx	lr
 183              		.cfi_endproc
 184              	.LFE57:
 185              		.size	getArrayMean, .-getArrayMean
 186 005a 00BF     		.text
 187              	.Letext0:
 188              		.file 2 "c:\\program files (x86)\\cypress\\psoc creator\\3.3\\psoc creator\\import\\gnu\\arm\\4.9.
 189              		.file 3 "c:\\program files (x86)\\cypress\\psoc creator\\3.3\\psoc creator\\import\\gnu\\arm\\4.9.
 190              		.file 4 "Generated_Source\\PSoC5/cytypes.h"
 191              		.file 5 "./Defines.h"
 192              		.file 6 "Generated_Source\\PSoC5/core_cm3.h"