ARM GAS  C:\Users\Lois\AppData\Local\Temp\ccffXYnk.s 			page 1


   1              		.syntax unified
   2              		.cpu cortex-m3
   3              		.fpu softvfp
   4              		.eabi_attribute 20, 1
   5              		.eabi_attribute 21, 1
   6              		.eabi_attribute 23, 3
   7              		.eabi_attribute 24, 1
   8              		.eabi_attribute 25, 1
   9              		.eabi_attribute 26, 1
  10              		.eabi_attribute 30, 6
  11              		.eabi_attribute 34, 1
  12              		.eabi_attribute 18, 4
  13              		.thumb
  14              		.file	"UART_pm.c"
  15              		.text
  16              	.Ltext0:
  17              		.cfi_sections	.debug_frame
  18              		.bss
  19              		.align	2
  20              	UART_backup:
  21 0000 0000     		.space	2
  22 0002 0000     		.section	.text.UART_DP_ISR,"ax",%progbits
  23              		.align	2
  24              		.global	UART_DP_ISR
  25              		.thumb
  26              		.thumb_func
  27              		.type	UART_DP_ISR, %function
  28              	UART_DP_ISR:
  29              	.LFB56:
  30              		.file 1 ".\\Generated_Source\\PSoC5\\UART_pm.c"
   1:.\Generated_Source\PSoC5/UART_pm.c **** /*******************************************************************************
   2:.\Generated_Source\PSoC5/UART_pm.c **** * File Name: UART_pm.c
   3:.\Generated_Source\PSoC5/UART_pm.c **** * Version 2.80
   4:.\Generated_Source\PSoC5/UART_pm.c **** *
   5:.\Generated_Source\PSoC5/UART_pm.c **** * Description:
   6:.\Generated_Source\PSoC5/UART_pm.c **** *  This file provides Suspend/Resume APIs functionality.
   7:.\Generated_Source\PSoC5/UART_pm.c **** *
   8:.\Generated_Source\PSoC5/UART_pm.c **** * Note:
   9:.\Generated_Source\PSoC5/UART_pm.c **** *
  10:.\Generated_Source\PSoC5/UART_pm.c **** ********************************************************************************
  11:.\Generated_Source\PSoC5/UART_pm.c **** * Copyright 2008-2014, Cypress Semiconductor Corporation.  All rights reserved.
  12:.\Generated_Source\PSoC5/UART_pm.c **** * You may use this file only in accordance with the license, terms, conditions,
  13:.\Generated_Source\PSoC5/UART_pm.c **** * disclaimers, and limitations in the end user license agreement accompanying
  14:.\Generated_Source\PSoC5/UART_pm.c **** * the software package with which this file was provided.
  15:.\Generated_Source\PSoC5/UART_pm.c **** *******************************************************************************/
  16:.\Generated_Source\PSoC5/UART_pm.c **** 
  17:.\Generated_Source\PSoC5/UART_pm.c **** #include "project.h"
  18:.\Generated_Source\PSoC5/UART_pm.c **** #include "UART.h"
  19:.\Generated_Source\PSoC5/UART_pm.c **** #include "UART_pvt.h"
  20:.\Generated_Source\PSoC5/UART_pm.c **** 
  21:.\Generated_Source\PSoC5/UART_pm.c **** 
  22:.\Generated_Source\PSoC5/UART_pm.c **** 
  23:.\Generated_Source\PSoC5/UART_pm.c **** /***************************************
  24:.\Generated_Source\PSoC5/UART_pm.c **** * Custom Declarations
  25:.\Generated_Source\PSoC5/UART_pm.c **** ***************************************/
  26:.\Generated_Source\PSoC5/UART_pm.c **** /* `#START PM_CUSTOM_DECLARATIONS` Place your declaration here */
  27:.\Generated_Source\PSoC5/UART_pm.c **** 
ARM GAS  C:\Users\Lois\AppData\Local\Temp\ccffXYnk.s 			page 2


  28:.\Generated_Source\PSoC5/UART_pm.c **** /* `#END` */
  29:.\Generated_Source\PSoC5/UART_pm.c **** 
  30:.\Generated_Source\PSoC5/UART_pm.c **** 
  31:.\Generated_Source\PSoC5/UART_pm.c **** /***************************************
  32:.\Generated_Source\PSoC5/UART_pm.c **** * Local data allocation
  33:.\Generated_Source\PSoC5/UART_pm.c **** ***************************************/
  34:.\Generated_Source\PSoC5/UART_pm.c **** 
  35:.\Generated_Source\PSoC5/UART_pm.c **** static UART_BACKUP_STRUCT  UART_backup;
  36:.\Generated_Source\PSoC5/UART_pm.c **** 
  37:.\Generated_Source\PSoC5/UART_pm.c **** 
  38:.\Generated_Source\PSoC5/UART_pm.c **** #if(UART_DP_ISR_REMOVE == 0u)
  39:.\Generated_Source\PSoC5/UART_pm.c **** 
  40:.\Generated_Source\PSoC5/UART_pm.c ****     /*******************************************************************************
  41:.\Generated_Source\PSoC5/UART_pm.c ****     * Function Name: UART_DP_Interrupt
  42:.\Generated_Source\PSoC5/UART_pm.c ****     ********************************************************************************
  43:.\Generated_Source\PSoC5/UART_pm.c ****     *
  44:.\Generated_Source\PSoC5/UART_pm.c ****     * Summary:
  45:.\Generated_Source\PSoC5/UART_pm.c ****     *  This Interrupt Service Routine handles DP pin changes for wake-up from
  46:.\Generated_Source\PSoC5/UART_pm.c ****     *  the sleep mode.
  47:.\Generated_Source\PSoC5/UART_pm.c ****     *
  48:.\Generated_Source\PSoC5/UART_pm.c ****     * Parameters:
  49:.\Generated_Source\PSoC5/UART_pm.c ****     *  None.
  50:.\Generated_Source\PSoC5/UART_pm.c ****     *
  51:.\Generated_Source\PSoC5/UART_pm.c ****     * Return:
  52:.\Generated_Source\PSoC5/UART_pm.c ****     *  None.
  53:.\Generated_Source\PSoC5/UART_pm.c ****     *
  54:.\Generated_Source\PSoC5/UART_pm.c ****     *******************************************************************************/
  55:.\Generated_Source\PSoC5/UART_pm.c ****     CY_ISR(UART_DP_ISR)
  56:.\Generated_Source\PSoC5/UART_pm.c ****     {
  31              		.loc 1 56 0
  32              		.cfi_startproc
  33              		@ args = 0, pretend = 0, frame = 0
  34              		@ frame_needed = 1, uses_anonymous_args = 0
  35              		@ link register save eliminated.
  36 0000 80B4     		push	{r7}
  37              		.cfi_def_cfa_offset 4
  38              		.cfi_offset 7, -4
  39 0002 00AF     		add	r7, sp, #0
  40              		.cfi_def_cfa_register 7
  57:.\Generated_Source\PSoC5/UART_pm.c ****         #ifdef UART_DP_ISR_ENTRY_CALLBACK
  58:.\Generated_Source\PSoC5/UART_pm.c ****             UART_DP_ISR_EntryCallback();
  59:.\Generated_Source\PSoC5/UART_pm.c ****         #endif /* UART_DP_ISR_ENTRY_CALLBACK */
  60:.\Generated_Source\PSoC5/UART_pm.c **** 
  61:.\Generated_Source\PSoC5/UART_pm.c ****         /* `#START DP_USER_CODE` Place your code here */
  62:.\Generated_Source\PSoC5/UART_pm.c **** 
  63:.\Generated_Source\PSoC5/UART_pm.c ****         /* `#END` */
  64:.\Generated_Source\PSoC5/UART_pm.c **** 
  65:.\Generated_Source\PSoC5/UART_pm.c ****         /* Clears active interrupt */
  66:.\Generated_Source\PSoC5/UART_pm.c ****         CY_GET_REG8(UART_DP_INTSTAT_PTR);
  41              		.loc 1 66 0
  42 0004 024B     		ldr	r3, .L2
  43 0006 1B78     		ldrb	r3, [r3]
  67:.\Generated_Source\PSoC5/UART_pm.c **** 
  68:.\Generated_Source\PSoC5/UART_pm.c ****         #ifdef UART_DP_ISR_EXIT_CALLBACK
  69:.\Generated_Source\PSoC5/UART_pm.c ****             UART_DP_ISR_ExitCallback();
  70:.\Generated_Source\PSoC5/UART_pm.c ****         #endif /* UART_DP_ISR_EXIT_CALLBACK */
  71:.\Generated_Source\PSoC5/UART_pm.c ****     }
ARM GAS  C:\Users\Lois\AppData\Local\Temp\ccffXYnk.s 			page 3


  44              		.loc 1 71 0
  45 0008 BD46     		mov	sp, r7
  46              		.cfi_def_cfa_register 13
  47              		@ sp needed
  48 000a 5DF8047B 		ldr	r7, [sp], #4
  49              		.cfi_restore 7
  50              		.cfi_def_cfa_offset 0
  51 000e 7047     		bx	lr
  52              	.L3:
  53              		.align	2
  54              	.L2:
  55 0010 8F450040 		.word	1073759631
  56              		.cfi_endproc
  57              	.LFE56:
  58              		.size	UART_DP_ISR, .-UART_DP_ISR
  59              		.section	.text.UART_SaveConfig,"ax",%progbits
  60              		.align	2
  61              		.global	UART_SaveConfig
  62              		.thumb
  63              		.thumb_func
  64              		.type	UART_SaveConfig, %function
  65              	UART_SaveConfig:
  66              	.LFB57:
  72:.\Generated_Source\PSoC5/UART_pm.c **** 
  73:.\Generated_Source\PSoC5/UART_pm.c **** #endif /* (UART_DP_ISR_REMOVE == 0u) */
  74:.\Generated_Source\PSoC5/UART_pm.c **** 
  75:.\Generated_Source\PSoC5/UART_pm.c **** 
  76:.\Generated_Source\PSoC5/UART_pm.c **** /*******************************************************************************
  77:.\Generated_Source\PSoC5/UART_pm.c **** * Function Name: UART_SaveConfig
  78:.\Generated_Source\PSoC5/UART_pm.c **** ********************************************************************************
  79:.\Generated_Source\PSoC5/UART_pm.c **** *
  80:.\Generated_Source\PSoC5/UART_pm.c **** * Summary:
  81:.\Generated_Source\PSoC5/UART_pm.c **** *  Saves the current user configuration.
  82:.\Generated_Source\PSoC5/UART_pm.c **** *
  83:.\Generated_Source\PSoC5/UART_pm.c **** * Parameters:
  84:.\Generated_Source\PSoC5/UART_pm.c **** *  None.
  85:.\Generated_Source\PSoC5/UART_pm.c **** *
  86:.\Generated_Source\PSoC5/UART_pm.c **** * Return:
  87:.\Generated_Source\PSoC5/UART_pm.c **** *  None.
  88:.\Generated_Source\PSoC5/UART_pm.c **** *
  89:.\Generated_Source\PSoC5/UART_pm.c **** * Reentrant:
  90:.\Generated_Source\PSoC5/UART_pm.c **** *  No.
  91:.\Generated_Source\PSoC5/UART_pm.c **** *
  92:.\Generated_Source\PSoC5/UART_pm.c **** *******************************************************************************/
  93:.\Generated_Source\PSoC5/UART_pm.c **** void UART_SaveConfig(void) 
  94:.\Generated_Source\PSoC5/UART_pm.c **** {
  67              		.loc 1 94 0
  68              		.cfi_startproc
  69              		@ args = 0, pretend = 0, frame = 0
  70              		@ frame_needed = 1, uses_anonymous_args = 0
  71              		@ link register save eliminated.
  72 0000 80B4     		push	{r7}
  73              		.cfi_def_cfa_offset 4
  74              		.cfi_offset 7, -4
  75 0002 00AF     		add	r7, sp, #0
  76              		.cfi_def_cfa_register 7
  95:.\Generated_Source\PSoC5/UART_pm.c **** 
ARM GAS  C:\Users\Lois\AppData\Local\Temp\ccffXYnk.s 			page 4


  96:.\Generated_Source\PSoC5/UART_pm.c **** }
  77              		.loc 1 96 0
  78 0004 BD46     		mov	sp, r7
  79              		.cfi_def_cfa_register 13
  80              		@ sp needed
  81 0006 5DF8047B 		ldr	r7, [sp], #4
  82              		.cfi_restore 7
  83              		.cfi_def_cfa_offset 0
  84 000a 7047     		bx	lr
  85              		.cfi_endproc
  86              	.LFE57:
  87              		.size	UART_SaveConfig, .-UART_SaveConfig
  88              		.section	.text.UART_RestoreConfig,"ax",%progbits
  89              		.align	2
  90              		.global	UART_RestoreConfig
  91              		.thumb
  92              		.thumb_func
  93              		.type	UART_RestoreConfig, %function
  94              	UART_RestoreConfig:
  95              	.LFB58:
  97:.\Generated_Source\PSoC5/UART_pm.c **** 
  98:.\Generated_Source\PSoC5/UART_pm.c **** 
  99:.\Generated_Source\PSoC5/UART_pm.c **** /*******************************************************************************
 100:.\Generated_Source\PSoC5/UART_pm.c **** * Function Name: UART_RestoreConfig
 101:.\Generated_Source\PSoC5/UART_pm.c **** ********************************************************************************
 102:.\Generated_Source\PSoC5/UART_pm.c **** *
 103:.\Generated_Source\PSoC5/UART_pm.c **** * Summary:
 104:.\Generated_Source\PSoC5/UART_pm.c **** *  Restores the current user configuration.
 105:.\Generated_Source\PSoC5/UART_pm.c **** *
 106:.\Generated_Source\PSoC5/UART_pm.c **** * Parameters:
 107:.\Generated_Source\PSoC5/UART_pm.c **** *  None.
 108:.\Generated_Source\PSoC5/UART_pm.c **** *
 109:.\Generated_Source\PSoC5/UART_pm.c **** * Return:
 110:.\Generated_Source\PSoC5/UART_pm.c **** *  None.
 111:.\Generated_Source\PSoC5/UART_pm.c **** *
 112:.\Generated_Source\PSoC5/UART_pm.c **** * Reentrant:
 113:.\Generated_Source\PSoC5/UART_pm.c **** *  No.
 114:.\Generated_Source\PSoC5/UART_pm.c **** *
 115:.\Generated_Source\PSoC5/UART_pm.c **** *******************************************************************************/
 116:.\Generated_Source\PSoC5/UART_pm.c **** void UART_RestoreConfig(void) 
 117:.\Generated_Source\PSoC5/UART_pm.c **** {
  96              		.loc 1 117 0
  97              		.cfi_startproc
  98              		@ args = 0, pretend = 0, frame = 0
  99              		@ frame_needed = 1, uses_anonymous_args = 0
 100 0000 80B5     		push	{r7, lr}
 101              		.cfi_def_cfa_offset 8
 102              		.cfi_offset 7, -8
 103              		.cfi_offset 14, -4
 104 0002 00AF     		add	r7, sp, #0
 105              		.cfi_def_cfa_register 7
 118:.\Generated_Source\PSoC5/UART_pm.c ****     if(UART_configuration != 0u)
 106              		.loc 1 118 0
 107 0004 034B     		ldr	r3, .L7
 108 0006 1B78     		ldrb	r3, [r3]
 109 0008 DBB2     		uxtb	r3, r3
 110 000a 002B     		cmp	r3, #0
ARM GAS  C:\Users\Lois\AppData\Local\Temp\ccffXYnk.s 			page 5


 111 000c 01D0     		beq	.L5
 119:.\Generated_Source\PSoC5/UART_pm.c ****     {
 120:.\Generated_Source\PSoC5/UART_pm.c ****         UART_ConfigReg();
 112              		.loc 1 120 0
 113 000e FFF7FEFF 		bl	UART_ConfigReg
 114              	.L5:
 121:.\Generated_Source\PSoC5/UART_pm.c ****     }
 122:.\Generated_Source\PSoC5/UART_pm.c **** }
 115              		.loc 1 122 0
 116 0012 80BD     		pop	{r7, pc}
 117              	.L8:
 118              		.align	2
 119              	.L7:
 120 0014 00000000 		.word	UART_configuration
 121              		.cfi_endproc
 122              	.LFE58:
 123              		.size	UART_RestoreConfig, .-UART_RestoreConfig
 124              		.section	.text.UART_Suspend,"ax",%progbits
 125              		.align	2
 126              		.global	UART_Suspend
 127              		.thumb
 128              		.thumb_func
 129              		.type	UART_Suspend, %function
 130              	UART_Suspend:
 131              	.LFB59:
 123:.\Generated_Source\PSoC5/UART_pm.c **** 
 124:.\Generated_Source\PSoC5/UART_pm.c **** 
 125:.\Generated_Source\PSoC5/UART_pm.c **** /*******************************************************************************
 126:.\Generated_Source\PSoC5/UART_pm.c **** * Function Name: UART_Suspend
 127:.\Generated_Source\PSoC5/UART_pm.c **** ********************************************************************************
 128:.\Generated_Source\PSoC5/UART_pm.c **** *
 129:.\Generated_Source\PSoC5/UART_pm.c **** * Summary:
 130:.\Generated_Source\PSoC5/UART_pm.c **** *  This function disables the USBFS block and prepares for power down mode.
 131:.\Generated_Source\PSoC5/UART_pm.c **** *
 132:.\Generated_Source\PSoC5/UART_pm.c **** * Parameters:
 133:.\Generated_Source\PSoC5/UART_pm.c **** *  None.
 134:.\Generated_Source\PSoC5/UART_pm.c **** *
 135:.\Generated_Source\PSoC5/UART_pm.c **** * Return:
 136:.\Generated_Source\PSoC5/UART_pm.c **** *   None.
 137:.\Generated_Source\PSoC5/UART_pm.c **** *
 138:.\Generated_Source\PSoC5/UART_pm.c **** * Global variables:
 139:.\Generated_Source\PSoC5/UART_pm.c **** *  UART_backup.enable:  modified.
 140:.\Generated_Source\PSoC5/UART_pm.c **** *
 141:.\Generated_Source\PSoC5/UART_pm.c **** * Reentrant:
 142:.\Generated_Source\PSoC5/UART_pm.c **** *  No.
 143:.\Generated_Source\PSoC5/UART_pm.c **** *
 144:.\Generated_Source\PSoC5/UART_pm.c **** *******************************************************************************/
 145:.\Generated_Source\PSoC5/UART_pm.c **** void UART_Suspend(void) 
 146:.\Generated_Source\PSoC5/UART_pm.c **** {
 132              		.loc 1 146 0
 133              		.cfi_startproc
 134              		@ args = 0, pretend = 0, frame = 8
 135              		@ frame_needed = 1, uses_anonymous_args = 0
 136 0000 80B5     		push	{r7, lr}
 137              		.cfi_def_cfa_offset 8
 138              		.cfi_offset 7, -8
 139              		.cfi_offset 14, -4
ARM GAS  C:\Users\Lois\AppData\Local\Temp\ccffXYnk.s 			page 6


 140 0002 82B0     		sub	sp, sp, #8
 141              		.cfi_def_cfa_offset 16
 142 0004 00AF     		add	r7, sp, #0
 143              		.cfi_def_cfa_register 7
 147:.\Generated_Source\PSoC5/UART_pm.c ****     uint8 enableInterrupts;
 148:.\Generated_Source\PSoC5/UART_pm.c ****     enableInterrupts = CyEnterCriticalSection();
 144              		.loc 1 148 0
 145 0006 FFF7FEFF 		bl	CyEnterCriticalSection
 146 000a 0346     		mov	r3, r0
 147 000c FB71     		strb	r3, [r7, #7]
 149:.\Generated_Source\PSoC5/UART_pm.c **** 
 150:.\Generated_Source\PSoC5/UART_pm.c ****     if((CY_GET_REG8(UART_CR0_PTR) & UART_CR0_ENABLE) != 0u)
 148              		.loc 1 150 0
 149 000e 3C4B     		ldr	r3, .L12
 150 0010 1B78     		ldrb	r3, [r3]
 151 0012 DBB2     		uxtb	r3, r3
 152 0014 DBB2     		uxtb	r3, r3
 153 0016 5BB2     		sxtb	r3, r3
 154 0018 002B     		cmp	r3, #0
 155 001a 57DA     		bge	.L10
 151:.\Generated_Source\PSoC5/UART_pm.c ****     {   /* USB block is enabled */
 152:.\Generated_Source\PSoC5/UART_pm.c ****         UART_backup.enableState = 1u;
 156              		.loc 1 152 0
 157 001c 394B     		ldr	r3, .L12+4
 158 001e 0122     		movs	r2, #1
 159 0020 1A70     		strb	r2, [r3]
 153:.\Generated_Source\PSoC5/UART_pm.c **** 
 154:.\Generated_Source\PSoC5/UART_pm.c ****         #if(UART_EP_MM != UART__EP_MANUAL)
 155:.\Generated_Source\PSoC5/UART_pm.c ****             UART_Stop_DMA(UART_MAX_EP);     /* Stop all DMAs */
 156:.\Generated_Source\PSoC5/UART_pm.c ****         #endif   /*  UART_EP_MM != UART__EP_MANUAL */
 157:.\Generated_Source\PSoC5/UART_pm.c **** 
 158:.\Generated_Source\PSoC5/UART_pm.c ****         /* Ensure USB transmit enable is low (USB_USBIO_CR0.ten). - Manual Transmission - Disabled 
 159:.\Generated_Source\PSoC5/UART_pm.c ****         UART_USBIO_CR0_REG &= (uint8)~UART_USBIO_CR0_TEN;
 160              		.loc 1 159 0
 161 0022 394A     		ldr	r2, .L12+8
 162 0024 384B     		ldr	r3, .L12+8
 163 0026 1B78     		ldrb	r3, [r3]
 164 0028 DBB2     		uxtb	r3, r3
 165 002a 03F07F03 		and	r3, r3, #127
 166 002e DBB2     		uxtb	r3, r3
 167 0030 1370     		strb	r3, [r2]
 160:.\Generated_Source\PSoC5/UART_pm.c ****         CyDelayUs(0u);  /*~50ns delay */
 168              		.loc 1 160 0
 169 0032 0020     		movs	r0, #0
 170 0034 FFF7FEFF 		bl	CyDelayUs
 161:.\Generated_Source\PSoC5/UART_pm.c **** 
 162:.\Generated_Source\PSoC5/UART_pm.c ****         /* Disable the USBIO by asserting PM.USB_CR0.fsusbio_pd_n(Inverted) and pd_pullup_hv(Invert
 163:.\Generated_Source\PSoC5/UART_pm.c ****         UART_PM_USB_CR0_REG &=
 171              		.loc 1 163 0
 172 0038 344A     		ldr	r2, .L12+12
 173 003a 344B     		ldr	r3, .L12+12
 174 003c 1B78     		ldrb	r3, [r3]
 175 003e DBB2     		uxtb	r3, r3
 176 0040 23F00603 		bic	r3, r3, #6
 177 0044 DBB2     		uxtb	r3, r3
 178 0046 1370     		strb	r3, [r2]
 164:.\Generated_Source\PSoC5/UART_pm.c ****                                 (uint8)~(UART_PM_USB_CR0_PD_N | UART_PM_USB_CR0_PD_PULLUP_N);
ARM GAS  C:\Users\Lois\AppData\Local\Temp\ccffXYnk.s 			page 7


 165:.\Generated_Source\PSoC5/UART_pm.c **** 
 166:.\Generated_Source\PSoC5/UART_pm.c ****         /* Disable the SIE */
 167:.\Generated_Source\PSoC5/UART_pm.c ****         UART_CR0_REG &= (uint8)~UART_CR0_ENABLE;
 179              		.loc 1 167 0
 180 0048 2D4A     		ldr	r2, .L12
 181 004a 2D4B     		ldr	r3, .L12
 182 004c 1B78     		ldrb	r3, [r3]
 183 004e DBB2     		uxtb	r3, r3
 184 0050 03F07F03 		and	r3, r3, #127
 185 0054 DBB2     		uxtb	r3, r3
 186 0056 1370     		strb	r3, [r2]
 168:.\Generated_Source\PSoC5/UART_pm.c **** 
 169:.\Generated_Source\PSoC5/UART_pm.c ****         CyDelayUs(0u);  /* ~50ns delay */
 187              		.loc 1 169 0
 188 0058 0020     		movs	r0, #0
 189 005a FFF7FEFF 		bl	CyDelayUs
 170:.\Generated_Source\PSoC5/UART_pm.c ****         /* Store mode and Disable VRegulator*/
 171:.\Generated_Source\PSoC5/UART_pm.c ****         UART_backup.mode = UART_CR1_REG & UART_CR1_REG_ENABLE;
 190              		.loc 1 171 0
 191 005e 2C4B     		ldr	r3, .L12+16
 192 0060 1B78     		ldrb	r3, [r3]
 193 0062 DBB2     		uxtb	r3, r3
 194 0064 03F00103 		and	r3, r3, #1
 195 0068 DAB2     		uxtb	r2, r3
 196 006a 264B     		ldr	r3, .L12+4
 197 006c 5A70     		strb	r2, [r3, #1]
 172:.\Generated_Source\PSoC5/UART_pm.c ****         UART_CR1_REG &= (uint8)~UART_CR1_REG_ENABLE;
 198              		.loc 1 172 0
 199 006e 284A     		ldr	r2, .L12+16
 200 0070 274B     		ldr	r3, .L12+16
 201 0072 1B78     		ldrb	r3, [r3]
 202 0074 DBB2     		uxtb	r3, r3
 203 0076 23F00103 		bic	r3, r3, #1
 204 007a DBB2     		uxtb	r3, r3
 205 007c 1370     		strb	r3, [r2]
 173:.\Generated_Source\PSoC5/UART_pm.c **** 
 174:.\Generated_Source\PSoC5/UART_pm.c ****         CyDelayUs(1u);  /* 0.5 us min delay */
 206              		.loc 1 174 0
 207 007e 0120     		movs	r0, #1
 208 0080 FFF7FEFF 		bl	CyDelayUs
 175:.\Generated_Source\PSoC5/UART_pm.c ****         /* Disable the USBIO reference by setting PM.USB_CR0.fsusbio_ref_en.*/
 176:.\Generated_Source\PSoC5/UART_pm.c ****         UART_PM_USB_CR0_REG &= (uint8)~UART_PM_USB_CR0_REF_EN;
 209              		.loc 1 176 0
 210 0084 214A     		ldr	r2, .L12+12
 211 0086 214B     		ldr	r3, .L12+12
 212 0088 1B78     		ldrb	r3, [r3]
 213 008a DBB2     		uxtb	r3, r3
 214 008c 23F00103 		bic	r3, r3, #1
 215 0090 DBB2     		uxtb	r3, r3
 216 0092 1370     		strb	r3, [r2]
 177:.\Generated_Source\PSoC5/UART_pm.c **** 
 178:.\Generated_Source\PSoC5/UART_pm.c ****         /* Switch DP and DM terminals to GPIO mode and disconnect 1.5k pullup*/
 179:.\Generated_Source\PSoC5/UART_pm.c ****         UART_USBIO_CR1_REG |= UART_USBIO_CR1_IOMODE;
 217              		.loc 1 179 0
 218 0094 1F4A     		ldr	r2, .L12+20
 219 0096 1F4B     		ldr	r3, .L12+20
 220 0098 1B78     		ldrb	r3, [r3]
ARM GAS  C:\Users\Lois\AppData\Local\Temp\ccffXYnk.s 			page 8


 221 009a DBB2     		uxtb	r3, r3
 222 009c 43F02003 		orr	r3, r3, #32
 223 00a0 DBB2     		uxtb	r3, r3
 224 00a2 1370     		strb	r3, [r2]
 180:.\Generated_Source\PSoC5/UART_pm.c **** 
 181:.\Generated_Source\PSoC5/UART_pm.c ****         /* Disable USB in ACT PM */
 182:.\Generated_Source\PSoC5/UART_pm.c ****         UART_PM_ACT_CFG_REG &= (uint8)~UART_PM_ACT_EN_FSUSB;
 225              		.loc 1 182 0
 226 00a4 1C4A     		ldr	r2, .L12+24
 227 00a6 1C4B     		ldr	r3, .L12+24
 228 00a8 1B78     		ldrb	r3, [r3]
 229 00aa DBB2     		uxtb	r3, r3
 230 00ac 23F00103 		bic	r3, r3, #1
 231 00b0 DBB2     		uxtb	r3, r3
 232 00b2 1370     		strb	r3, [r2]
 183:.\Generated_Source\PSoC5/UART_pm.c ****         /* Disable USB block for Standby Power Mode */
 184:.\Generated_Source\PSoC5/UART_pm.c ****         UART_PM_STBY_CFG_REG &= (uint8)~UART_PM_STBY_EN_FSUSB;
 233              		.loc 1 184 0
 234 00b4 194A     		ldr	r2, .L12+28
 235 00b6 194B     		ldr	r3, .L12+28
 236 00b8 1B78     		ldrb	r3, [r3]
 237 00ba DBB2     		uxtb	r3, r3
 238 00bc 23F00103 		bic	r3, r3, #1
 239 00c0 DBB2     		uxtb	r3, r3
 240 00c2 1370     		strb	r3, [r2]
 185:.\Generated_Source\PSoC5/UART_pm.c ****         CyDelayUs(1u); /* min  0.5us delay required */
 241              		.loc 1 185 0
 242 00c4 0120     		movs	r0, #1
 243 00c6 FFF7FEFF 		bl	CyDelayUs
 244 00ca 02E0     		b	.L11
 245              	.L10:
 186:.\Generated_Source\PSoC5/UART_pm.c **** 
 187:.\Generated_Source\PSoC5/UART_pm.c ****     }
 188:.\Generated_Source\PSoC5/UART_pm.c ****     else
 189:.\Generated_Source\PSoC5/UART_pm.c ****     {
 190:.\Generated_Source\PSoC5/UART_pm.c ****         UART_backup.enableState = 0u;
 246              		.loc 1 190 0
 247 00cc 0D4B     		ldr	r3, .L12+4
 248 00ce 0022     		movs	r2, #0
 249 00d0 1A70     		strb	r2, [r3]
 250              	.L11:
 191:.\Generated_Source\PSoC5/UART_pm.c ****     }
 192:.\Generated_Source\PSoC5/UART_pm.c **** 
 193:.\Generated_Source\PSoC5/UART_pm.c ****     CyExitCriticalSection(enableInterrupts);
 251              		.loc 1 193 0
 252 00d2 FB79     		ldrb	r3, [r7, #7]	@ zero_extendqisi2
 253 00d4 1846     		mov	r0, r3
 254 00d6 FFF7FEFF 		bl	CyExitCriticalSection
 194:.\Generated_Source\PSoC5/UART_pm.c **** 
 195:.\Generated_Source\PSoC5/UART_pm.c ****     /* Set the DP Interrupt for wake-up from sleep mode. */
 196:.\Generated_Source\PSoC5/UART_pm.c ****     #if(UART_DP_ISR_REMOVE == 0u)
 197:.\Generated_Source\PSoC5/UART_pm.c ****         (void) CyIntSetVector(UART_DP_INTC_VECT_NUM, &UART_DP_ISR);
 255              		.loc 1 197 0
 256 00da 0C20     		movs	r0, #12
 257 00dc 1049     		ldr	r1, .L12+32
 258 00de FFF7FEFF 		bl	CyIntSetVector
 198:.\Generated_Source\PSoC5/UART_pm.c ****         CyIntSetPriority(UART_DP_INTC_VECT_NUM, UART_DP_INTC_PRIOR);
ARM GAS  C:\Users\Lois\AppData\Local\Temp\ccffXYnk.s 			page 9


 259              		.loc 1 198 0
 260 00e2 0C20     		movs	r0, #12
 261 00e4 0721     		movs	r1, #7
 262 00e6 FFF7FEFF 		bl	CyIntSetPriority
 199:.\Generated_Source\PSoC5/UART_pm.c ****         CyIntClearPending(UART_DP_INTC_VECT_NUM);
 263              		.loc 1 199 0
 264 00ea 0E4B     		ldr	r3, .L12+36
 265 00ec 4FF48052 		mov	r2, #4096
 266 00f0 1A60     		str	r2, [r3]
 200:.\Generated_Source\PSoC5/UART_pm.c ****         CyIntEnable(UART_DP_INTC_VECT_NUM);
 267              		.loc 1 200 0
 268 00f2 0D4B     		ldr	r3, .L12+40
 269 00f4 4FF48052 		mov	r2, #4096
 270 00f8 1A60     		str	r2, [r3]
 201:.\Generated_Source\PSoC5/UART_pm.c ****     #endif /* (UART_DP_ISR_REMOVE == 0u) */
 202:.\Generated_Source\PSoC5/UART_pm.c **** }
 271              		.loc 1 202 0
 272 00fa 0837     		adds	r7, r7, #8
 273              		.cfi_def_cfa_offset 8
 274 00fc BD46     		mov	sp, r7
 275              		.cfi_def_cfa_register 13
 276              		@ sp needed
 277 00fe 80BD     		pop	{r7, pc}
 278              	.L13:
 279              		.align	2
 280              	.L12:
 281 0100 08600040 		.word	1073766408
 282 0104 00000000 		.word	UART_backup
 283 0108 10600040 		.word	1073766416
 284 010c 94430040 		.word	1073759124
 285 0110 09600040 		.word	1073766409
 286 0114 12600040 		.word	1073766418
 287 0118 A5430040 		.word	1073759141
 288 011c B5430040 		.word	1073759157
 289 0120 00000000 		.word	UART_DP_ISR
 290 0124 80E200E0 		.word	-536812928
 291 0128 00E100E0 		.word	-536813312
 292              		.cfi_endproc
 293              	.LFE59:
 294              		.size	UART_Suspend, .-UART_Suspend
 295              		.section	.text.UART_Resume,"ax",%progbits
 296              		.align	2
 297              		.global	UART_Resume
 298              		.thumb
 299              		.thumb_func
 300              		.type	UART_Resume, %function
 301              	UART_Resume:
 302              	.LFB60:
 203:.\Generated_Source\PSoC5/UART_pm.c **** 
 204:.\Generated_Source\PSoC5/UART_pm.c **** 
 205:.\Generated_Source\PSoC5/UART_pm.c **** /*******************************************************************************
 206:.\Generated_Source\PSoC5/UART_pm.c **** * Function Name: UART_Resume
 207:.\Generated_Source\PSoC5/UART_pm.c **** ********************************************************************************
 208:.\Generated_Source\PSoC5/UART_pm.c **** *
 209:.\Generated_Source\PSoC5/UART_pm.c **** * Summary:
 210:.\Generated_Source\PSoC5/UART_pm.c **** *  This function enables the USBFS block after power down mode.
 211:.\Generated_Source\PSoC5/UART_pm.c **** *
ARM GAS  C:\Users\Lois\AppData\Local\Temp\ccffXYnk.s 			page 10


 212:.\Generated_Source\PSoC5/UART_pm.c **** * Parameters:
 213:.\Generated_Source\PSoC5/UART_pm.c **** *  None.
 214:.\Generated_Source\PSoC5/UART_pm.c **** *
 215:.\Generated_Source\PSoC5/UART_pm.c **** * Return:
 216:.\Generated_Source\PSoC5/UART_pm.c **** *  None.
 217:.\Generated_Source\PSoC5/UART_pm.c **** *
 218:.\Generated_Source\PSoC5/UART_pm.c **** * Global variables:
 219:.\Generated_Source\PSoC5/UART_pm.c **** *  UART_backup - checked.
 220:.\Generated_Source\PSoC5/UART_pm.c **** *
 221:.\Generated_Source\PSoC5/UART_pm.c **** * Reentrant:
 222:.\Generated_Source\PSoC5/UART_pm.c **** *  No.
 223:.\Generated_Source\PSoC5/UART_pm.c **** *
 224:.\Generated_Source\PSoC5/UART_pm.c **** *******************************************************************************/
 225:.\Generated_Source\PSoC5/UART_pm.c **** void UART_Resume(void) 
 226:.\Generated_Source\PSoC5/UART_pm.c **** {
 303              		.loc 1 226 0
 304              		.cfi_startproc
 305              		@ args = 0, pretend = 0, frame = 8
 306              		@ frame_needed = 1, uses_anonymous_args = 0
 307 0000 80B5     		push	{r7, lr}
 308              		.cfi_def_cfa_offset 8
 309              		.cfi_offset 7, -8
 310              		.cfi_offset 14, -4
 311 0002 82B0     		sub	sp, sp, #8
 312              		.cfi_def_cfa_offset 16
 313 0004 00AF     		add	r7, sp, #0
 314              		.cfi_def_cfa_register 7
 227:.\Generated_Source\PSoC5/UART_pm.c ****     uint8 enableInterrupts;
 228:.\Generated_Source\PSoC5/UART_pm.c ****     enableInterrupts = CyEnterCriticalSection();
 315              		.loc 1 228 0
 316 0006 FFF7FEFF 		bl	CyEnterCriticalSection
 317 000a 0346     		mov	r3, r0
 318 000c FB71     		strb	r3, [r7, #7]
 229:.\Generated_Source\PSoC5/UART_pm.c **** 
 230:.\Generated_Source\PSoC5/UART_pm.c ****     if(UART_backup.enableState != 0u)
 319              		.loc 1 230 0
 320 000e 324B     		ldr	r3, .L16
 321 0010 1B78     		ldrb	r3, [r3]	@ zero_extendqisi2
 322 0012 002B     		cmp	r3, #0
 323 0014 58D0     		beq	.L15
 231:.\Generated_Source\PSoC5/UART_pm.c ****     {
 232:.\Generated_Source\PSoC5/UART_pm.c ****         #if(UART_DP_ISR_REMOVE == 0u)
 233:.\Generated_Source\PSoC5/UART_pm.c ****             CyIntDisable(UART_DP_INTC_VECT_NUM);
 324              		.loc 1 233 0
 325 0016 314B     		ldr	r3, .L16+4
 326 0018 4FF48052 		mov	r2, #4096
 327 001c 1A60     		str	r2, [r3]
 234:.\Generated_Source\PSoC5/UART_pm.c ****         #endif /*  UART_DP_ISR_REMOVE */
 235:.\Generated_Source\PSoC5/UART_pm.c **** 
 236:.\Generated_Source\PSoC5/UART_pm.c ****         /* Enable USB block */
 237:.\Generated_Source\PSoC5/UART_pm.c ****         UART_PM_ACT_CFG_REG |= UART_PM_ACT_EN_FSUSB;
 328              		.loc 1 237 0
 329 001e 304A     		ldr	r2, .L16+8
 330 0020 2F4B     		ldr	r3, .L16+8
 331 0022 1B78     		ldrb	r3, [r3]
 332 0024 DBB2     		uxtb	r3, r3
 333 0026 43F00103 		orr	r3, r3, #1
ARM GAS  C:\Users\Lois\AppData\Local\Temp\ccffXYnk.s 			page 11


 334 002a DBB2     		uxtb	r3, r3
 335 002c 1370     		strb	r3, [r2]
 238:.\Generated_Source\PSoC5/UART_pm.c ****         /* Enable USB block for Standby Power Mode */
 239:.\Generated_Source\PSoC5/UART_pm.c ****         UART_PM_STBY_CFG_REG |= UART_PM_STBY_EN_FSUSB;
 336              		.loc 1 239 0
 337 002e 2D4A     		ldr	r2, .L16+12
 338 0030 2C4B     		ldr	r3, .L16+12
 339 0032 1B78     		ldrb	r3, [r3]
 340 0034 DBB2     		uxtb	r3, r3
 341 0036 43F00103 		orr	r3, r3, #1
 342 003a DBB2     		uxtb	r3, r3
 343 003c 1370     		strb	r3, [r2]
 240:.\Generated_Source\PSoC5/UART_pm.c ****         /* Enable core clock */
 241:.\Generated_Source\PSoC5/UART_pm.c ****         UART_USB_CLK_EN_REG |= UART_USB_CLK_ENABLE;
 344              		.loc 1 241 0
 345 003e 2A4A     		ldr	r2, .L16+16
 346 0040 294B     		ldr	r3, .L16+16
 347 0042 1B78     		ldrb	r3, [r3]
 348 0044 DBB2     		uxtb	r3, r3
 349 0046 43F00103 		orr	r3, r3, #1
 350 004a DBB2     		uxtb	r3, r3
 351 004c 1370     		strb	r3, [r2]
 242:.\Generated_Source\PSoC5/UART_pm.c **** 
 243:.\Generated_Source\PSoC5/UART_pm.c ****         /* Enable the USBIO reference by setting PM.USB_CR0.fsusbio_ref_en.*/
 244:.\Generated_Source\PSoC5/UART_pm.c ****         UART_PM_USB_CR0_REG |= UART_PM_USB_CR0_REF_EN;
 352              		.loc 1 244 0
 353 004e 274A     		ldr	r2, .L16+20
 354 0050 264B     		ldr	r3, .L16+20
 355 0052 1B78     		ldrb	r3, [r3]
 356 0054 DBB2     		uxtb	r3, r3
 357 0056 43F00103 		orr	r3, r3, #1
 358 005a DBB2     		uxtb	r3, r3
 359 005c 1370     		strb	r3, [r2]
 245:.\Generated_Source\PSoC5/UART_pm.c ****         /* The reference will be available ~40us after power restored */
 246:.\Generated_Source\PSoC5/UART_pm.c ****         CyDelayUs(40u);
 360              		.loc 1 246 0
 361 005e 2820     		movs	r0, #40
 362 0060 FFF7FEFF 		bl	CyDelayUs
 247:.\Generated_Source\PSoC5/UART_pm.c ****         /* Return VRegulator*/
 248:.\Generated_Source\PSoC5/UART_pm.c ****         UART_CR1_REG |= UART_backup.mode;
 363              		.loc 1 248 0
 364 0064 2249     		ldr	r1, .L16+24
 365 0066 224B     		ldr	r3, .L16+24
 366 0068 1B78     		ldrb	r3, [r3]
 367 006a DAB2     		uxtb	r2, r3
 368 006c 1A4B     		ldr	r3, .L16
 369 006e 5B78     		ldrb	r3, [r3, #1]	@ zero_extendqisi2
 370 0070 1343     		orrs	r3, r3, r2
 371 0072 DBB2     		uxtb	r3, r3
 372 0074 0B70     		strb	r3, [r1]
 249:.\Generated_Source\PSoC5/UART_pm.c ****         CyDelayUs(0u);  /*~50ns delay */
 373              		.loc 1 249 0
 374 0076 0020     		movs	r0, #0
 375 0078 FFF7FEFF 		bl	CyDelayUs
 250:.\Generated_Source\PSoC5/UART_pm.c ****         /* Enable USBIO */
 251:.\Generated_Source\PSoC5/UART_pm.c ****         UART_PM_USB_CR0_REG |= UART_PM_USB_CR0_PD_N;
 376              		.loc 1 251 0
ARM GAS  C:\Users\Lois\AppData\Local\Temp\ccffXYnk.s 			page 12


 377 007c 1B4A     		ldr	r2, .L16+20
 378 007e 1B4B     		ldr	r3, .L16+20
 379 0080 1B78     		ldrb	r3, [r3]
 380 0082 DBB2     		uxtb	r3, r3
 381 0084 43F00203 		orr	r3, r3, #2
 382 0088 DBB2     		uxtb	r3, r3
 383 008a 1370     		strb	r3, [r2]
 252:.\Generated_Source\PSoC5/UART_pm.c ****         CyDelayUs(2u);
 384              		.loc 1 252 0
 385 008c 0220     		movs	r0, #2
 386 008e FFF7FEFF 		bl	CyDelayUs
 253:.\Generated_Source\PSoC5/UART_pm.c ****         /* Set the USBIO pull-up enable */
 254:.\Generated_Source\PSoC5/UART_pm.c ****         UART_PM_USB_CR0_REG |= UART_PM_USB_CR0_PD_PULLUP_N;
 387              		.loc 1 254 0
 388 0092 164A     		ldr	r2, .L16+20
 389 0094 154B     		ldr	r3, .L16+20
 390 0096 1B78     		ldrb	r3, [r3]
 391 0098 DBB2     		uxtb	r3, r3
 392 009a 43F00403 		orr	r3, r3, #4
 393 009e DBB2     		uxtb	r3, r3
 394 00a0 1370     		strb	r3, [r2]
 255:.\Generated_Source\PSoC5/UART_pm.c **** 
 256:.\Generated_Source\PSoC5/UART_pm.c ****         /* Re-init Arbiter configuration for DMA transfers */
 257:.\Generated_Source\PSoC5/UART_pm.c ****         #if(UART_EP_MM != UART__EP_MANUAL)
 258:.\Generated_Source\PSoC5/UART_pm.c ****             /* Usb arb interrupt enable */
 259:.\Generated_Source\PSoC5/UART_pm.c ****             UART_ARB_INT_EN_REG = UART_ARB_INT_MASK;
 260:.\Generated_Source\PSoC5/UART_pm.c ****             #if(UART_EP_MM == UART__EP_DMAMANUAL)
 261:.\Generated_Source\PSoC5/UART_pm.c ****                 UART_ARB_CFG_REG = UART_ARB_CFG_MANUAL_DMA;
 262:.\Generated_Source\PSoC5/UART_pm.c ****             #endif   /*  UART_EP_MM == UART__EP_DMAMANUAL */
 263:.\Generated_Source\PSoC5/UART_pm.c ****             #if(UART_EP_MM == UART__EP_DMAAUTO)
 264:.\Generated_Source\PSoC5/UART_pm.c ****                 /*Set cfg cmplt this rises DMA request when the full configuration is done */
 265:.\Generated_Source\PSoC5/UART_pm.c ****                 UART_ARB_CFG_REG = UART_ARB_CFG_AUTO_DMA | UART_ARB_CFG_AUTO_MEM;
 266:.\Generated_Source\PSoC5/UART_pm.c ****             #endif   /*  UART_EP_MM == UART__EP_DMAAUTO */
 267:.\Generated_Source\PSoC5/UART_pm.c ****         #endif   /*  UART_EP_MM != UART__EP_MANUAL */
 268:.\Generated_Source\PSoC5/UART_pm.c **** 
 269:.\Generated_Source\PSoC5/UART_pm.c ****         /* STALL_IN_OUT */
 270:.\Generated_Source\PSoC5/UART_pm.c ****         CY_SET_REG8(UART_EP0_CR_PTR, UART_MODE_STALL_IN_OUT);
 395              		.loc 1 270 0
 396 00a2 144B     		ldr	r3, .L16+28
 397 00a4 0322     		movs	r2, #3
 398 00a6 1A70     		strb	r2, [r3]
 271:.\Generated_Source\PSoC5/UART_pm.c ****         /* Enable the SIE with a last address */
 272:.\Generated_Source\PSoC5/UART_pm.c ****         UART_CR0_REG |= UART_CR0_ENABLE;
 399              		.loc 1 272 0
 400 00a8 134A     		ldr	r2, .L16+32
 401 00aa 134B     		ldr	r3, .L16+32
 402 00ac 1B78     		ldrb	r3, [r3]
 403 00ae DBB2     		uxtb	r3, r3
 404 00b0 63F07F03 		orn	r3, r3, #127
 405 00b4 DBB2     		uxtb	r3, r3
 406 00b6 1370     		strb	r3, [r2]
 273:.\Generated_Source\PSoC5/UART_pm.c ****         CyDelayCycles(1u);
 407              		.loc 1 273 0
 408 00b8 0120     		movs	r0, #1
 409 00ba FFF7FEFF 		bl	CyDelayCycles
 274:.\Generated_Source\PSoC5/UART_pm.c ****         /* Finally, Enable d+ pullup and select iomode to USB mode*/
 275:.\Generated_Source\PSoC5/UART_pm.c ****         CY_SET_REG8(UART_USBIO_CR1_PTR, UART_USBIO_CR1_USBPUEN);
ARM GAS  C:\Users\Lois\AppData\Local\Temp\ccffXYnk.s 			page 13


 410              		.loc 1 275 0
 411 00be 0F4B     		ldr	r3, .L16+36
 412 00c0 0422     		movs	r2, #4
 413 00c2 1A70     		strb	r2, [r3]
 276:.\Generated_Source\PSoC5/UART_pm.c **** 
 277:.\Generated_Source\PSoC5/UART_pm.c ****         /* Restore USB register settings */
 278:.\Generated_Source\PSoC5/UART_pm.c ****         UART_RestoreConfig();
 414              		.loc 1 278 0
 415 00c4 FFF7FEFF 		bl	UART_RestoreConfig
 416              	.L15:
 279:.\Generated_Source\PSoC5/UART_pm.c ****     }
 280:.\Generated_Source\PSoC5/UART_pm.c **** 
 281:.\Generated_Source\PSoC5/UART_pm.c ****     CyExitCriticalSection(enableInterrupts);
 417              		.loc 1 281 0
 418 00c8 FB79     		ldrb	r3, [r7, #7]	@ zero_extendqisi2
 419 00ca 1846     		mov	r0, r3
 420 00cc FFF7FEFF 		bl	CyExitCriticalSection
 282:.\Generated_Source\PSoC5/UART_pm.c **** }
 421              		.loc 1 282 0
 422 00d0 0837     		adds	r7, r7, #8
 423              		.cfi_def_cfa_offset 8
 424 00d2 BD46     		mov	sp, r7
 425              		.cfi_def_cfa_register 13
 426              		@ sp needed
 427 00d4 80BD     		pop	{r7, pc}
 428              	.L17:
 429 00d6 00BF     		.align	2
 430              	.L16:
 431 00d8 00000000 		.word	UART_backup
 432 00dc 80E100E0 		.word	-536813184
 433 00e0 A5430040 		.word	1073759141
 434 00e4 B5430040 		.word	1073759157
 435 00e8 9D600040 		.word	1073766557
 436 00ec 94430040 		.word	1073759124
 437 00f0 09600040 		.word	1073766409
 438 00f4 28600040 		.word	1073766440
 439 00f8 08600040 		.word	1073766408
 440 00fc 12600040 		.word	1073766418
 441              		.cfi_endproc
 442              	.LFE60:
 443              		.size	UART_Resume, .-UART_Resume
 444              		.text
 445              	.Letext0:
 446              		.file 2 "c:\\program files (x86)\\cypress\\psoc creator\\3.3\\psoc creator\\import\\gnu\\arm\\4.9.
 447              		.file 3 "c:\\program files (x86)\\cypress\\psoc creator\\3.3\\psoc creator\\import\\gnu\\arm\\4.9.
 448              		.file 4 ".\\Generated_Source\\PSoC5\\cytypes.h"
 449              		.file 5 ".\\Generated_Source\\PSoC5\\UART.h"
 450              		.file 6 "Generated_Source\\PSoC5/core_cm3.h"